ARM GAS  /tmp/cc7dqAFZ.s 			page 1


   1              		.cpu cortex-m4
   2              		.eabi_attribute 27, 1
   3              		.eabi_attribute 28, 1
   4              		.eabi_attribute 20, 1
   5              		.eabi_attribute 21, 1
   6              		.eabi_attribute 23, 3
   7              		.eabi_attribute 24, 1
   8              		.eabi_attribute 25, 1
   9              		.eabi_attribute 26, 1
  10              		.eabi_attribute 30, 1
  11              		.eabi_attribute 34, 1
  12              		.eabi_attribute 18, 4
  13              		.file	"gps-firefly-example.c"
  14              		.text
  15              	.Ltext0:
  16              		.cfi_sections	.debug_frame
  17              		.section	.text.printWelcome,"ax",%progbits
  18              		.align	1
  19              		.global	printWelcome
  20              		.syntax unified
  21              		.thumb
  22              		.thumb_func
  23              		.fpu fpv4-sp-d16
  25              	printWelcome:
  26              	.LFB129:
  27              		.file 1 "../../applications/gps-firefly-example/src/gps-firefly-example.c"
   1:../../applications/gps-firefly-example/src/gps-firefly-example.c **** /* USER CODE BEGIN Header */
   2:../../applications/gps-firefly-example/src/gps-firefly-example.c **** /**
   3:../../applications/gps-firefly-example/src/gps-firefly-example.c ****   ******************************************************************************
   4:../../applications/gps-firefly-example/src/gps-firefly-example.c ****   * @file           : main.c
   5:../../applications/gps-firefly-example/src/gps-firefly-example.c ****   * @brief          : Main program body
   6:../../applications/gps-firefly-example/src/gps-firefly-example.c ****   ******************************************************************************
   7:../../applications/gps-firefly-example/src/gps-firefly-example.c ****   * This notice applies to any and all portions of this file
   8:../../applications/gps-firefly-example/src/gps-firefly-example.c ****   * that are not between comment pairs USER CODE BEGIN and
   9:../../applications/gps-firefly-example/src/gps-firefly-example.c ****   * USER CODE END. Other portions of this file, whether 
  10:../../applications/gps-firefly-example/src/gps-firefly-example.c ****   * inserted by the user or by software development tools
  11:../../applications/gps-firefly-example/src/gps-firefly-example.c ****   * are owned by their respective copyright owners.
  12:../../applications/gps-firefly-example/src/gps-firefly-example.c ****   *
  13:../../applications/gps-firefly-example/src/gps-firefly-example.c ****   * Copyright (c) 2019 STMicroelectronics International N.V. 
  14:../../applications/gps-firefly-example/src/gps-firefly-example.c ****   * All rights reserved.
  15:../../applications/gps-firefly-example/src/gps-firefly-example.c ****   *
  16:../../applications/gps-firefly-example/src/gps-firefly-example.c ****   * Redistribution and use in source and binary forms, with or without 
  17:../../applications/gps-firefly-example/src/gps-firefly-example.c ****   * modification, are permitted, provided that the following conditions are met:
  18:../../applications/gps-firefly-example/src/gps-firefly-example.c ****   *
  19:../../applications/gps-firefly-example/src/gps-firefly-example.c ****   * 1. Redistribution of source code must retain the above copyright notice, 
  20:../../applications/gps-firefly-example/src/gps-firefly-example.c ****   *    this list of conditions and the following disclaimer.
  21:../../applications/gps-firefly-example/src/gps-firefly-example.c ****   * 2. Redistributions in binary form must reproduce the above copyright notice,
  22:../../applications/gps-firefly-example/src/gps-firefly-example.c ****   *    this list of conditions and the following disclaimer in the documentation
  23:../../applications/gps-firefly-example/src/gps-firefly-example.c ****   *    and/or other materials provided with the distribution.
  24:../../applications/gps-firefly-example/src/gps-firefly-example.c ****   * 3. Neither the name of STMicroelectronics nor the names of other 
  25:../../applications/gps-firefly-example/src/gps-firefly-example.c ****   *    contributors to this software may be used to endorse or promote products 
  26:../../applications/gps-firefly-example/src/gps-firefly-example.c ****   *    derived from this software without specific written permission.
  27:../../applications/gps-firefly-example/src/gps-firefly-example.c ****   * 4. This software, including modifications and/or derivative works of this 
  28:../../applications/gps-firefly-example/src/gps-firefly-example.c ****   *    software, must execute solely and exclusively on microcontroller or
  29:../../applications/gps-firefly-example/src/gps-firefly-example.c ****   *    microprocessor devices manufactured by or for STMicroelectronics.
  30:../../applications/gps-firefly-example/src/gps-firefly-example.c ****   * 5. Redistribution and use of this software other than as permitted under 
  31:../../applications/gps-firefly-example/src/gps-firefly-example.c ****   *    this license is void and will automatically terminate your rights under 
ARM GAS  /tmp/cc7dqAFZ.s 			page 2


  32:../../applications/gps-firefly-example/src/gps-firefly-example.c ****   *    this license. 
  33:../../applications/gps-firefly-example/src/gps-firefly-example.c ****   *
  34:../../applications/gps-firefly-example/src/gps-firefly-example.c ****   * THIS SOFTWARE IS PROVIDED BY STMICROELECTRONICS AND CONTRIBUTORS "AS IS" 
  35:../../applications/gps-firefly-example/src/gps-firefly-example.c ****   * AND ANY EXPRESS, IMPLIED OR STATUTORY WARRANTIES, INCLUDING, BUT NOT 
  36:../../applications/gps-firefly-example/src/gps-firefly-example.c ****   * LIMITED TO, THE IMPLIED WARRANTIES OF MERCHANTABILITY, FITNESS FOR A 
  37:../../applications/gps-firefly-example/src/gps-firefly-example.c ****   * PARTICULAR PURPOSE AND NON-INFRINGEMENT OF THIRD PARTY INTELLECTUAL PROPERTY
  38:../../applications/gps-firefly-example/src/gps-firefly-example.c ****   * RIGHTS ARE DISCLAIMED TO THE FULLEST EXTENT PERMITTED BY LAW. IN NO EVENT 
  39:../../applications/gps-firefly-example/src/gps-firefly-example.c ****   * SHALL STMICROELECTRONICS OR CONTRIBUTORS BE LIABLE FOR ANY DIRECT, INDIRECT,
  40:../../applications/gps-firefly-example/src/gps-firefly-example.c ****   * INCIDENTAL, SPECIAL, EXEMPLARY, OR CONSEQUENTIAL DAMAGES (INCLUDING, BUT NOT
  41:../../applications/gps-firefly-example/src/gps-firefly-example.c ****   * LIMITED TO, PROCUREMENT OF SUBSTITUTE GOODS OR SERVICES; LOSS OF USE, DATA, 
  42:../../applications/gps-firefly-example/src/gps-firefly-example.c ****   * OR PROFITS; OR BUSINESS INTERRUPTION) HOWEVER CAUSED AND ON ANY THEORY OF 
  43:../../applications/gps-firefly-example/src/gps-firefly-example.c ****   * LIABILITY, WHETHER IN CONTRACT, STRICT LIABILITY, OR TORT (INCLUDING 
  44:../../applications/gps-firefly-example/src/gps-firefly-example.c ****   * NEGLIGENCE OR OTHERWISE) ARISING IN ANY WAY OUT OF THE USE OF THIS SOFTWARE,
  45:../../applications/gps-firefly-example/src/gps-firefly-example.c ****   * EVEN IF ADVISED OF THE POSSIBILITY OF SUCH DAMAGE.
  46:../../applications/gps-firefly-example/src/gps-firefly-example.c ****   *
  47:../../applications/gps-firefly-example/src/gps-firefly-example.c ****   ******************************************************************************
  48:../../applications/gps-firefly-example/src/gps-firefly-example.c ****   */
  49:../../applications/gps-firefly-example/src/gps-firefly-example.c **** /* USER CODE END Header */
  50:../../applications/gps-firefly-example/src/gps-firefly-example.c **** 
  51:../../applications/gps-firefly-example/src/gps-firefly-example.c **** /* Includes ------------------------------------------------------------------*/
  52:../../applications/gps-firefly-example/src/gps-firefly-example.c **** #include "gps-firefly-example.h"
  53:../../applications/gps-firefly-example/src/gps-firefly-example.c **** /* Private includes ----------------------------------------------------------*/
  54:../../applications/gps-firefly-example/src/gps-firefly-example.c **** /* USER CODE BEGIN Includes */
  55:../../applications/gps-firefly-example/src/gps-firefly-example.c **** #include "fireflyx1.h"
  56:../../applications/gps-firefly-example/src/gps-firefly-example.c **** 
  57:../../applications/gps-firefly-example/src/gps-firefly-example.c **** /* USER CODE END Includes */
  58:../../applications/gps-firefly-example/src/gps-firefly-example.c **** 
  59:../../applications/gps-firefly-example/src/gps-firefly-example.c **** /* Private typedef -----------------------------------------------------------*/
  60:../../applications/gps-firefly-example/src/gps-firefly-example.c **** /* USER CODE BEGIN PTD */
  61:../../applications/gps-firefly-example/src/gps-firefly-example.c **** 
  62:../../applications/gps-firefly-example/src/gps-firefly-example.c **** /* USER CODE END PTD */
  63:../../applications/gps-firefly-example/src/gps-firefly-example.c **** 
  64:../../applications/gps-firefly-example/src/gps-firefly-example.c **** /* Private define ------------------------------------------------------------*/
  65:../../applications/gps-firefly-example/src/gps-firefly-example.c **** /* USER CODE BEGIN PD */
  66:../../applications/gps-firefly-example/src/gps-firefly-example.c **** 
  67:../../applications/gps-firefly-example/src/gps-firefly-example.c **** /* USER CODE END PD */
  68:../../applications/gps-firefly-example/src/gps-firefly-example.c **** 
  69:../../applications/gps-firefly-example/src/gps-firefly-example.c **** /* Private macro -------------------------------------------------------------*/
  70:../../applications/gps-firefly-example/src/gps-firefly-example.c **** /* USER CODE BEGIN PM */
  71:../../applications/gps-firefly-example/src/gps-firefly-example.c **** 
  72:../../applications/gps-firefly-example/src/gps-firefly-example.c **** /* USER CODE END PM */
  73:../../applications/gps-firefly-example/src/gps-firefly-example.c **** 
  74:../../applications/gps-firefly-example/src/gps-firefly-example.c **** /* Private user code ---------------------------------------------------------*/
  75:../../applications/gps-firefly-example/src/gps-firefly-example.c **** /* USER CODE BEGIN 0 */
  76:../../applications/gps-firefly-example/src/gps-firefly-example.c **** float locationArray[3];
  77:../../applications/gps-firefly-example/src/gps-firefly-example.c **** uint8_t locationArrayHex[32];
  78:../../applications/gps-firefly-example/src/gps-firefly-example.c **** uint8_t hasGPSFix = 0;
  79:../../applications/gps-firefly-example/src/gps-firefly-example.c **** gps_position_dd_t currentLocation={0,0,0};
  80:../../applications/gps-firefly-example/src/gps-firefly-example.c **** /* USER CODE END 0 */
  81:../../applications/gps-firefly-example/src/gps-firefly-example.c **** 
  82:../../applications/gps-firefly-example/src/gps-firefly-example.c **** /**
  83:../../applications/gps-firefly-example/src/gps-firefly-example.c ****   * @brief  The application entry point.
  84:../../applications/gps-firefly-example/src/gps-firefly-example.c ****   * @retval int
  85:../../applications/gps-firefly-example/src/gps-firefly-example.c ****   */
  86:../../applications/gps-firefly-example/src/gps-firefly-example.c **** int main(void)
  87:../../applications/gps-firefly-example/src/gps-firefly-example.c **** {
  88:../../applications/gps-firefly-example/src/gps-firefly-example.c ****   /* USER CODE BEGIN 1 */
ARM GAS  /tmp/cc7dqAFZ.s 			page 3


  89:../../applications/gps-firefly-example/src/gps-firefly-example.c **** 
  90:../../applications/gps-firefly-example/src/gps-firefly-example.c ****   /* USER CODE END 1 */
  91:../../applications/gps-firefly-example/src/gps-firefly-example.c **** 
  92:../../applications/gps-firefly-example/src/gps-firefly-example.c ****   /* MCU Configuration--------------------------------------------------------*/
  93:../../applications/gps-firefly-example/src/gps-firefly-example.c **** 
  94:../../applications/gps-firefly-example/src/gps-firefly-example.c ****   /* Reset of all peripherals, Initializes the Flash interface and the Systick. */
  95:../../applications/gps-firefly-example/src/gps-firefly-example.c ****   HAL_Init();
  96:../../applications/gps-firefly-example/src/gps-firefly-example.c **** 
  97:../../applications/gps-firefly-example/src/gps-firefly-example.c ****   /* USER CODE BEGIN Init */
  98:../../applications/gps-firefly-example/src/gps-firefly-example.c **** 
  99:../../applications/gps-firefly-example/src/gps-firefly-example.c ****   /* USER CODE END Init */
 100:../../applications/gps-firefly-example/src/gps-firefly-example.c **** 
 101:../../applications/gps-firefly-example/src/gps-firefly-example.c ****   /* Configure the system clock */
 102:../../applications/gps-firefly-example/src/gps-firefly-example.c ****   SystemClock_Config();
 103:../../applications/gps-firefly-example/src/gps-firefly-example.c **** 
 104:../../applications/gps-firefly-example/src/gps-firefly-example.c ****   /* USER CODE BEGIN SysInit */
 105:../../applications/gps-firefly-example/src/gps-firefly-example.c **** 
 106:../../applications/gps-firefly-example/src/gps-firefly-example.c ****   /* USER CODE END SysInit */
 107:../../applications/gps-firefly-example/src/gps-firefly-example.c **** 
 108:../../applications/gps-firefly-example/src/gps-firefly-example.c ****   /* Initialize theplatform */
 109:../../applications/gps-firefly-example/src/gps-firefly-example.c ****   Initialize_Platform();
 110:../../applications/gps-firefly-example/src/gps-firefly-example.c ****   /* USER CODE BEGIN 2 */
 111:../../applications/gps-firefly-example/src/gps-firefly-example.c **** 
 112:../../applications/gps-firefly-example/src/gps-firefly-example.c ****   printWelcome();
 113:../../applications/gps-firefly-example/src/gps-firefly-example.c **** 
 114:../../applications/gps-firefly-example/src/gps-firefly-example.c ****   // Firefly-GPS
 115:../../applications/gps-firefly-example/src/gps-firefly-example.c ****   Firefly_Initialize();
 116:../../applications/gps-firefly-example/src/gps-firefly-example.c ****   memset(locationArrayHex, 1, 32); // init location array to 0
 117:../../applications/gps-firefly-example/src/gps-firefly-example.c **** 
 118:../../applications/gps-firefly-example/src/gps-firefly-example.c ****   /* USER CODE END 2 */
 119:../../applications/gps-firefly-example/src/gps-firefly-example.c **** 
 120:../../applications/gps-firefly-example/src/gps-firefly-example.c ****   /* USER CODE BEGIN RTOS_MUTEX */
 121:../../applications/gps-firefly-example/src/gps-firefly-example.c ****   /* add mutexes, ... */
 122:../../applications/gps-firefly-example/src/gps-firefly-example.c ****   printf("Initializing RTOS timers, threads and mutex\r\n");
 123:../../applications/gps-firefly-example/src/gps-firefly-example.c **** 
 124:../../applications/gps-firefly-example/src/gps-firefly-example.c **** 
 125:../../applications/gps-firefly-example/src/gps-firefly-example.c ****   /* USER CODE END RTOS_MUTEX */
 126:../../applications/gps-firefly-example/src/gps-firefly-example.c **** 
 127:../../applications/gps-firefly-example/src/gps-firefly-example.c ****   /* USER CODE BEGIN RTOS_SEMAPHORES */
 128:../../applications/gps-firefly-example/src/gps-firefly-example.c ****   /* add semaphores, ... */
 129:../../applications/gps-firefly-example/src/gps-firefly-example.c ****   /* USER CODE END RTOS_SEMAPHORES */
 130:../../applications/gps-firefly-example/src/gps-firefly-example.c **** 
 131:../../applications/gps-firefly-example/src/gps-firefly-example.c ****   /* Create the thread(s) */
 132:../../applications/gps-firefly-example/src/gps-firefly-example.c ****   /* definition and creation of defaultTask */
 133:../../applications/gps-firefly-example/src/gps-firefly-example.c ****   /* USER CODE BEGIN RTOS_TIMERS */
 134:../../applications/gps-firefly-example/src/gps-firefly-example.c ****   /* start timers, add new ones, ... */
 135:../../applications/gps-firefly-example/src/gps-firefly-example.c **** 
 136:../../applications/gps-firefly-example/src/gps-firefly-example.c ****   //feed IWDG every 5 seconds
 137:../../applications/gps-firefly-example/src/gps-firefly-example.c ****   IWDG_feed(NULL);
 138:../../applications/gps-firefly-example/src/gps-firefly-example.c ****   osTimerDef(iwdgTim, IWDG_feed);
 139:../../applications/gps-firefly-example/src/gps-firefly-example.c ****   iwdgTimId = osTimerCreate(osTimer(iwdgTim), osTimerPeriodic, NULL);
 140:../../applications/gps-firefly-example/src/gps-firefly-example.c ****   osTimerStart(iwdgTimId, 5 * 1000);
 141:../../applications/gps-firefly-example/src/gps-firefly-example.c **** 
 142:../../applications/gps-firefly-example/src/gps-firefly-example.c ****   osTimerDef(GPSTim, GPS_Read);
 143:../../applications/gps-firefly-example/src/gps-firefly-example.c ****   gpsTimId = osTimerCreate(osTimer(GPSTim), osTimerPeriodic, NULL);
 144:../../applications/gps-firefly-example/src/gps-firefly-example.c ****   osTimerStart(gpsTimId, 10 * 1000);
 145:../../applications/gps-firefly-example/src/gps-firefly-example.c **** 
ARM GAS  /tmp/cc7dqAFZ.s 			page 4


 146:../../applications/gps-firefly-example/src/gps-firefly-example.c ****   /* USER CODE END RTOS_TIMERS */
 147:../../applications/gps-firefly-example/src/gps-firefly-example.c **** 
 148:../../applications/gps-firefly-example/src/gps-firefly-example.c ****   /* USER CODE BEGIN RTOS_THREADS */
 149:../../applications/gps-firefly-example/src/gps-firefly-example.c ****   /* add threads, ... */
 150:../../applications/gps-firefly-example/src/gps-firefly-example.c **** 
 151:../../applications/gps-firefly-example/src/gps-firefly-example.c ****   /* USER CODE END RTOS_THREADS */
 152:../../applications/gps-firefly-example/src/gps-firefly-example.c **** 
 153:../../applications/gps-firefly-example/src/gps-firefly-example.c ****   /* USER CODE BEGIN RTOS_QUEUES */
 154:../../applications/gps-firefly-example/src/gps-firefly-example.c ****   /* add queues, ... */
 155:../../applications/gps-firefly-example/src/gps-firefly-example.c ****   /* USER CODE END RTOS_QUEUES */
 156:../../applications/gps-firefly-example/src/gps-firefly-example.c **** 
 157:../../applications/gps-firefly-example/src/gps-firefly-example.c ****   /* Start scheduler */
 158:../../applications/gps-firefly-example/src/gps-firefly-example.c ****   osKernelStart();
 159:../../applications/gps-firefly-example/src/gps-firefly-example.c **** 
 160:../../applications/gps-firefly-example/src/gps-firefly-example.c ****   /* We should never get here as control is now taken by the scheduler */
 161:../../applications/gps-firefly-example/src/gps-firefly-example.c **** 
 162:../../applications/gps-firefly-example/src/gps-firefly-example.c ****   /* Infinite loop */
 163:../../applications/gps-firefly-example/src/gps-firefly-example.c ****   /* USER CODE BEGIN WHILE */
 164:../../applications/gps-firefly-example/src/gps-firefly-example.c ****   while (1)
 165:../../applications/gps-firefly-example/src/gps-firefly-example.c ****   {
 166:../../applications/gps-firefly-example/src/gps-firefly-example.c ****     /* USER CODE END WHILE */
 167:../../applications/gps-firefly-example/src/gps-firefly-example.c **** 
 168:../../applications/gps-firefly-example/src/gps-firefly-example.c ****     /* USER CODE BEGIN 3 */
 169:../../applications/gps-firefly-example/src/gps-firefly-example.c ****   }
 170:../../applications/gps-firefly-example/src/gps-firefly-example.c ****   /* USER CODE END 3 */
 171:../../applications/gps-firefly-example/src/gps-firefly-example.c **** }
 172:../../applications/gps-firefly-example/src/gps-firefly-example.c **** 
 173:../../applications/gps-firefly-example/src/gps-firefly-example.c **** void printWelcome(void)
 174:../../applications/gps-firefly-example/src/gps-firefly-example.c **** {
  28              		.loc 1 174 0
  29              		.cfi_startproc
  30              		@ args = 0, pretend = 0, frame = 0
  31              		@ frame_needed = 0, uses_anonymous_args = 0
  32 0000 38B5     		push	{r3, r4, r5, lr}
  33              	.LCFI0:
  34              		.cfi_def_cfa_offset 16
  35              		.cfi_offset 3, -16
  36              		.cfi_offset 4, -12
  37              		.cfi_offset 5, -8
  38              		.cfi_offset 14, -4
 175:../../applications/gps-firefly-example/src/gps-firefly-example.c ****   printf("\r\n");
  39              		.loc 1 175 0
  40 0002 104C     		ldr	r4, .L3
  41 0004 2046     		mov	r0, r4
  42 0006 FFF7FEFF 		bl	puts
  43              	.LVL0:
 176:../../applications/gps-firefly-example/src/gps-firefly-example.c ****   printf("*****************************************\r\n");
  44              		.loc 1 176 0
  45 000a 0F4D     		ldr	r5, .L3+4
  46 000c 2846     		mov	r0, r5
  47 000e FFF7FEFF 		bl	puts
  48              	.LVL1:
 177:../../applications/gps-firefly-example/src/gps-firefly-example.c ****   printf("Firefly GPS Module example\r\n");
  49              		.loc 1 177 0
  50 0012 0E48     		ldr	r0, .L3+8
  51 0014 FFF7FEFF 		bl	puts
  52              	.LVL2:
ARM GAS  /tmp/cc7dqAFZ.s 			page 5


 178:../../applications/gps-firefly-example/src/gps-firefly-example.c ****   printf("*****************************************\r\n");
  53              		.loc 1 178 0
  54 0018 2846     		mov	r0, r5
  55 001a FFF7FEFF 		bl	puts
  56              	.LVL3:
 179:../../applications/gps-firefly-example/src/gps-firefly-example.c ****   printf("\r\n");
  57              		.loc 1 179 0
  58 001e 2046     		mov	r0, r4
  59 0020 FFF7FEFF 		bl	puts
  60              	.LVL4:
 180:../../applications/gps-firefly-example/src/gps-firefly-example.c ****   HAL_GPIO_TogglePin(OCTA_BLED_GPIO_Port, OCTA_BLED_Pin);
  61              		.loc 1 180 0
  62 0024 0A4C     		ldr	r4, .L3+12
  63 0026 4FF40041 		mov	r1, #32768
  64 002a 2046     		mov	r0, r4
  65 002c FFF7FEFF 		bl	HAL_GPIO_TogglePin
  66              	.LVL5:
 181:../../applications/gps-firefly-example/src/gps-firefly-example.c ****   HAL_Delay(2000);
  67              		.loc 1 181 0
  68 0030 4FF4FA60 		mov	r0, #2000
  69 0034 FFF7FEFF 		bl	HAL_Delay
  70              	.LVL6:
 182:../../applications/gps-firefly-example/src/gps-firefly-example.c ****   HAL_GPIO_TogglePin(OCTA_BLED_GPIO_Port, OCTA_BLED_Pin);
  71              		.loc 1 182 0
  72 0038 4FF40041 		mov	r1, #32768
  73 003c 2046     		mov	r0, r4
  74 003e FFF7FEFF 		bl	HAL_GPIO_TogglePin
  75              	.LVL7:
 183:../../applications/gps-firefly-example/src/gps-firefly-example.c **** }
  76              		.loc 1 183 0
  77 0042 38BD     		pop	{r3, r4, r5, pc}
  78              	.L4:
  79              		.align	2
  80              	.L3:
  81 0044 00000000 		.word	.LC0
  82 0048 04000000 		.word	.LC1
  83 004c 30000000 		.word	.LC2
  84 0050 000C0048 		.word	1207962624
  85              		.cfi_endproc
  86              	.LFE129:
  88              		.section	.text.main,"ax",%progbits
  89              		.align	1
  90              		.global	main
  91              		.syntax unified
  92              		.thumb
  93              		.thumb_func
  94              		.fpu fpv4-sp-d16
  96              	main:
  97              	.LFB128:
  87:../../applications/gps-firefly-example/src/gps-firefly-example.c ****   /* USER CODE BEGIN 1 */
  98              		.loc 1 87 0
  99              		.cfi_startproc
 100              		@ Volatile: function does not return.
 101              		@ args = 0, pretend = 0, frame = 8
 102              		@ frame_needed = 0, uses_anonymous_args = 0
 103 0000 00B5     		push	{lr}
 104              	.LCFI1:
ARM GAS  /tmp/cc7dqAFZ.s 			page 6


 105              		.cfi_def_cfa_offset 4
 106              		.cfi_offset 14, -4
 107 0002 83B0     		sub	sp, sp, #12
 108              	.LCFI2:
 109              		.cfi_def_cfa_offset 16
  95:../../applications/gps-firefly-example/src/gps-firefly-example.c **** 
 110              		.loc 1 95 0
 111 0004 FFF7FEFF 		bl	HAL_Init
 112              	.LVL8:
 102:../../applications/gps-firefly-example/src/gps-firefly-example.c **** 
 113              		.loc 1 102 0
 114 0008 FFF7FEFF 		bl	SystemClock_Config
 115              	.LVL9:
 109:../../applications/gps-firefly-example/src/gps-firefly-example.c ****   /* USER CODE BEGIN 2 */
 116              		.loc 1 109 0
 117 000c FFF7FEFF 		bl	Initialize_Platform
 118              	.LVL10:
 112:../../applications/gps-firefly-example/src/gps-firefly-example.c **** 
 119              		.loc 1 112 0
 120 0010 FFF7FEFF 		bl	printWelcome
 121              	.LVL11:
 115:../../applications/gps-firefly-example/src/gps-firefly-example.c ****   memset(locationArrayHex, 1, 32); // init location array to 0
 122              		.loc 1 115 0
 123 0014 FFF7FEFF 		bl	Firefly_Initialize
 124              	.LVL12:
 116:../../applications/gps-firefly-example/src/gps-firefly-example.c **** 
 125              		.loc 1 116 0
 126 0018 2022     		movs	r2, #32
 127 001a 0121     		movs	r1, #1
 128 001c 1348     		ldr	r0, .L8
 129 001e FFF7FEFF 		bl	memset
 130              	.LVL13:
 122:../../applications/gps-firefly-example/src/gps-firefly-example.c **** 
 131              		.loc 1 122 0
 132 0022 1348     		ldr	r0, .L8+4
 133 0024 FFF7FEFF 		bl	puts
 134              	.LVL14:
 137:../../applications/gps-firefly-example/src/gps-firefly-example.c ****   osTimerDef(iwdgTim, IWDG_feed);
 135              		.loc 1 137 0
 136 0028 0020     		movs	r0, #0
 137 002a FFF7FEFF 		bl	IWDG_feed
 138              	.LVL15:
 138:../../applications/gps-firefly-example/src/gps-firefly-example.c ****   iwdgTimId = osTimerCreate(osTimer(iwdgTim), osTimerPeriodic, NULL);
 139              		.loc 1 138 0
 140 002e 02A8     		add	r0, sp, #8
 141 0030 104B     		ldr	r3, .L8+8
 142 0032 40F8043D 		str	r3, [r0, #-4]!
 139:../../applications/gps-firefly-example/src/gps-firefly-example.c ****   osTimerStart(iwdgTimId, 5 * 1000);
 143              		.loc 1 139 0
 144 0036 0022     		movs	r2, #0
 145 0038 0121     		movs	r1, #1
 146 003a FFF7FEFF 		bl	osTimerCreate
 147              	.LVL16:
 148 003e 0E4B     		ldr	r3, .L8+12
 149 0040 1860     		str	r0, [r3]
 140:../../applications/gps-firefly-example/src/gps-firefly-example.c **** 
 150              		.loc 1 140 0
ARM GAS  /tmp/cc7dqAFZ.s 			page 7


 151 0042 41F28831 		movw	r1, #5000
 152 0046 FFF7FEFF 		bl	osTimerStart
 153              	.LVL17:
 142:../../applications/gps-firefly-example/src/gps-firefly-example.c ****   gpsTimId = osTimerCreate(osTimer(GPSTim), osTimerPeriodic, NULL);
 154              		.loc 1 142 0
 155 004a 02A8     		add	r0, sp, #8
 156 004c 0B4B     		ldr	r3, .L8+16
 157 004e 40F8083D 		str	r3, [r0, #-8]!
 143:../../applications/gps-firefly-example/src/gps-firefly-example.c ****   osTimerStart(gpsTimId, 10 * 1000);
 158              		.loc 1 143 0
 159 0052 0022     		movs	r2, #0
 160 0054 0121     		movs	r1, #1
 161 0056 FFF7FEFF 		bl	osTimerCreate
 162              	.LVL18:
 163 005a 094B     		ldr	r3, .L8+20
 164 005c 1860     		str	r0, [r3]
 144:../../applications/gps-firefly-example/src/gps-firefly-example.c **** 
 165              		.loc 1 144 0
 166 005e 42F21071 		movw	r1, #10000
 167 0062 FFF7FEFF 		bl	osTimerStart
 168              	.LVL19:
 158:../../applications/gps-firefly-example/src/gps-firefly-example.c **** 
 169              		.loc 1 158 0
 170 0066 FFF7FEFF 		bl	osKernelStart
 171              	.LVL20:
 172              	.L6:
 173 006a FEE7     		b	.L6
 174              	.L9:
 175              		.align	2
 176              	.L8:
 177 006c 00000000 		.word	locationArrayHex
 178 0070 00000000 		.word	.LC3
 179 0074 00000000 		.word	IWDG_feed
 180 0078 00000000 		.word	iwdgTimId
 181 007c 00000000 		.word	GPS_Read
 182 0080 00000000 		.word	gpsTimId
 183              		.cfi_endproc
 184              	.LFE128:
 186              		.global	__aeabi_f2d
 187              		.section	.text.setGPSCoordinates,"ax",%progbits
 188              		.align	1
 189              		.global	setGPSCoordinates
 190              		.syntax unified
 191              		.thumb
 192              		.thumb_func
 193              		.fpu fpv4-sp-d16
 195              	setGPSCoordinates:
 196              	.LFB131:
 184:../../applications/gps-firefly-example/src/gps-firefly-example.c **** 
 185:../../applications/gps-firefly-example/src/gps-firefly-example.c **** void GPS_Read(void const *argument)
 186:../../applications/gps-firefly-example/src/gps-firefly-example.c **** {
 187:../../applications/gps-firefly-example/src/gps-firefly-example.c ****     uint8_t response[255];
 188:../../applications/gps-firefly-example/src/gps-firefly-example.c ****     uint8_t quality = Firefly_receive(response);
 189:../../applications/gps-firefly-example/src/gps-firefly-example.c ****     if(quality==1)
 190:../../applications/gps-firefly-example/src/gps-firefly-example.c ****     {   
 191:../../applications/gps-firefly-example/src/gps-firefly-example.c ****         printf("GPS FIX\r\n");
 192:../../applications/gps-firefly-example/src/gps-firefly-example.c ****         setGPSCoordinates();
ARM GAS  /tmp/cc7dqAFZ.s 			page 8


 193:../../applications/gps-firefly-example/src/gps-firefly-example.c ****     }
 194:../../applications/gps-firefly-example/src/gps-firefly-example.c ****     else
 195:../../applications/gps-firefly-example/src/gps-firefly-example.c ****     {
 196:../../applications/gps-firefly-example/src/gps-firefly-example.c ****         hasGPSFix=0;
 197:../../applications/gps-firefly-example/src/gps-firefly-example.c ****         printf("NO GPS FIX\r\n");
 198:../../applications/gps-firefly-example/src/gps-firefly-example.c ****     }
 199:../../applications/gps-firefly-example/src/gps-firefly-example.c ****     
 200:../../applications/gps-firefly-example/src/gps-firefly-example.c **** }
 201:../../applications/gps-firefly-example/src/gps-firefly-example.c **** 
 202:../../applications/gps-firefly-example/src/gps-firefly-example.c **** void setGPSCoordinates(void)
 203:../../applications/gps-firefly-example/src/gps-firefly-example.c **** {
 197              		.loc 1 203 0
 198              		.cfi_startproc
 199              		@ args = 0, pretend = 0, frame = 0
 200              		@ frame_needed = 0, uses_anonymous_args = 0
 201 0000 F0B5     		push	{r4, r5, r6, r7, lr}
 202              	.LCFI3:
 203              		.cfi_def_cfa_offset 20
 204              		.cfi_offset 4, -20
 205              		.cfi_offset 5, -16
 206              		.cfi_offset 6, -12
 207              		.cfi_offset 7, -8
 208              		.cfi_offset 14, -4
 209 0002 85B0     		sub	sp, sp, #20
 210              	.LCFI4:
 211              		.cfi_def_cfa_offset 40
 204:../../applications/gps-firefly-example/src/gps-firefly-example.c **** 	hasGPSFix=1;
 212              		.loc 1 204 0
 213 0004 164B     		ldr	r3, .L12
 214 0006 0122     		movs	r2, #1
 215 0008 1A70     		strb	r2, [r3]
 205:../../applications/gps-firefly-example/src/gps-firefly-example.c **** 	currentLocation=gps_get_position_dd();
 216              		.loc 1 205 0
 217 000a FFF7FEFF 		bl	gps_get_position_dd
 218              	.LVL21:
 219 000e 10EE100A 		vmov	r0, s0
 220 0012 10EE904A 		vmov	r4, s1
 221 0016 11EE105A 		vmov	r5, s2
 222 001a 124B     		ldr	r3, .L12+4
 223 001c 83ED000A 		vstr.32	s0, [r3]
 224 0020 C3ED010A 		vstr.32	s1, [r3, #4]
 225 0024 83ED021A 		vstr.32	s2, [r3, #8]
 206:../../applications/gps-firefly-example/src/gps-firefly-example.c **** 	locationArray[0]=currentLocation.latitude;
 226              		.loc 1 206 0
 227 0028 0F4B     		ldr	r3, .L12+8
 228 002a 83ED000A 		vstr.32	s0, [r3]
 207:../../applications/gps-firefly-example/src/gps-firefly-example.c **** 	locationArray[1]=currentLocation.longitude;
 229              		.loc 1 207 0
 230 002e C3ED010A 		vstr.32	s1, [r3, #4]
 208:../../applications/gps-firefly-example/src/gps-firefly-example.c **** 	locationArray[2]=currentLocation.hdop;
 231              		.loc 1 208 0
 232 0032 83ED021A 		vstr.32	s2, [r3, #8]
 209:../../applications/gps-firefly-example/src/gps-firefly-example.c ****     printf("Location lat: %f, long: %f, hdop: %f \r\n", locationArray[0], locationArray[1], locatio
 233              		.loc 1 209 0
 234 0036 FFF7FEFF 		bl	__aeabi_f2d
 235              	.LVL22:
 236 003a 0646     		mov	r6, r0
ARM GAS  /tmp/cc7dqAFZ.s 			page 9


 237 003c 0F46     		mov	r7, r1
 238 003e 2846     		mov	r0, r5	@ float
 239 0040 FFF7FEFF 		bl	__aeabi_f2d
 240              	.LVL23:
 241 0044 CDE90201 		strd	r0, [sp, #8]
 242 0048 2046     		mov	r0, r4	@ float
 243 004a FFF7FEFF 		bl	__aeabi_f2d
 244              	.LVL24:
 245 004e CDE90001 		strd	r0, [sp]
 246 0052 3246     		mov	r2, r6
 247 0054 3B46     		mov	r3, r7
 248 0056 0548     		ldr	r0, .L12+12
 249 0058 FFF7FEFF 		bl	printf
 250              	.LVL25:
 210:../../applications/gps-firefly-example/src/gps-firefly-example.c **** 	//hexify2(&locationArray[0],3,&locationArrayHex,24); //32->24
 211:../../applications/gps-firefly-example/src/gps-firefly-example.c **** }
 251              		.loc 1 211 0
 252 005c 05B0     		add	sp, sp, #20
 253              	.LCFI5:
 254              		.cfi_def_cfa_offset 20
 255              		@ sp needed
 256 005e F0BD     		pop	{r4, r5, r6, r7, pc}
 257              	.L13:
 258              		.align	2
 259              	.L12:
 260 0060 00000000 		.word	.LANCHOR0
 261 0064 00000000 		.word	.LANCHOR1
 262 0068 00000000 		.word	locationArray
 263 006c 00000000 		.word	.LC4
 264              		.cfi_endproc
 265              	.LFE131:
 267              		.section	.text.GPS_Read,"ax",%progbits
 268              		.align	1
 269              		.global	GPS_Read
 270              		.syntax unified
 271              		.thumb
 272              		.thumb_func
 273              		.fpu fpv4-sp-d16
 275              	GPS_Read:
 276              	.LFB130:
 186:../../applications/gps-firefly-example/src/gps-firefly-example.c ****     uint8_t response[255];
 277              		.loc 1 186 0
 278              		.cfi_startproc
 279              		@ args = 0, pretend = 0, frame = 256
 280              		@ frame_needed = 0, uses_anonymous_args = 0
 281              	.LVL26:
 282 0000 00B5     		push	{lr}
 283              	.LCFI6:
 284              		.cfi_def_cfa_offset 4
 285              		.cfi_offset 14, -4
 286 0002 C1B0     		sub	sp, sp, #260
 287              	.LCFI7:
 288              		.cfi_def_cfa_offset 264
 188:../../applications/gps-firefly-example/src/gps-firefly-example.c ****     if(quality==1)
 289              		.loc 1 188 0
 290 0004 6846     		mov	r0, sp
 291              	.LVL27:
ARM GAS  /tmp/cc7dqAFZ.s 			page 10


 292 0006 FFF7FEFF 		bl	Firefly_receive
 293              	.LVL28:
 189:../../applications/gps-firefly-example/src/gps-firefly-example.c ****     {   
 294              		.loc 1 189 0
 295 000a 0128     		cmp	r0, #1
 296 000c 08D0     		beq	.L18
 297              	.LBB2:
 196:../../applications/gps-firefly-example/src/gps-firefly-example.c ****         printf("NO GPS FIX\r\n");
 298              		.loc 1 196 0
 299 000e 074B     		ldr	r3, .L19
 300 0010 0022     		movs	r2, #0
 301 0012 1A70     		strb	r2, [r3]
 197:../../applications/gps-firefly-example/src/gps-firefly-example.c ****     }
 302              		.loc 1 197 0
 303 0014 0648     		ldr	r0, .L19+4
 304              	.LVL29:
 305 0016 FFF7FEFF 		bl	puts
 306              	.LVL30:
 307              	.L14:
 308              	.LBE2:
 200:../../applications/gps-firefly-example/src/gps-firefly-example.c **** 
 309              		.loc 1 200 0
 310 001a 41B0     		add	sp, sp, #260
 311              	.LCFI8:
 312              		.cfi_remember_state
 313              		.cfi_def_cfa_offset 4
 314              		@ sp needed
 315 001c 5DF804FB 		ldr	pc, [sp], #4
 316              	.LVL31:
 317              	.L18:
 318              	.LCFI9:
 319              		.cfi_restore_state
 320              	.LBB3:
 191:../../applications/gps-firefly-example/src/gps-firefly-example.c ****         setGPSCoordinates();
 321              		.loc 1 191 0
 322 0020 0448     		ldr	r0, .L19+8
 323              	.LVL32:
 324 0022 FFF7FEFF 		bl	puts
 325              	.LVL33:
 192:../../applications/gps-firefly-example/src/gps-firefly-example.c ****     }
 326              		.loc 1 192 0
 327 0026 FFF7FEFF 		bl	setGPSCoordinates
 328              	.LVL34:
 329              	.LBE3:
 330 002a F6E7     		b	.L14
 331              	.L20:
 332              		.align	2
 333              	.L19:
 334 002c 00000000 		.word	.LANCHOR0
 335 0030 0C000000 		.word	.LC6
 336 0034 00000000 		.word	.LC5
 337              		.cfi_endproc
 338              	.LFE130:
 340              		.section	.text.HAL_TIM_PeriodElapsedCallback,"ax",%progbits
 341              		.align	1
 342              		.global	HAL_TIM_PeriodElapsedCallback
 343              		.syntax unified
ARM GAS  /tmp/cc7dqAFZ.s 			page 11


 344              		.thumb
 345              		.thumb_func
 346              		.fpu fpv4-sp-d16
 348              	HAL_TIM_PeriodElapsedCallback:
 349              	.LFB132:
 212:../../applications/gps-firefly-example/src/gps-firefly-example.c **** 
 213:../../applications/gps-firefly-example/src/gps-firefly-example.c **** /* USER CODE END 4 */
 214:../../applications/gps-firefly-example/src/gps-firefly-example.c **** 
 215:../../applications/gps-firefly-example/src/gps-firefly-example.c **** 
 216:../../applications/gps-firefly-example/src/gps-firefly-example.c **** 
 217:../../applications/gps-firefly-example/src/gps-firefly-example.c **** /**
 218:../../applications/gps-firefly-example/src/gps-firefly-example.c ****   * @brief  Period elapsed callback in non blocking mode
 219:../../applications/gps-firefly-example/src/gps-firefly-example.c ****   * @note   This function is called  when TIM1 interrupt took place, inside
 220:../../applications/gps-firefly-example/src/gps-firefly-example.c ****   * HAL_TIM_IRQHandler(). It makes a direct call to HAL_IncTick() to increment
 221:../../applications/gps-firefly-example/src/gps-firefly-example.c ****   * a global variable "uwTick" used as application time base.
 222:../../applications/gps-firefly-example/src/gps-firefly-example.c ****   * @param  htim : TIM handle
 223:../../applications/gps-firefly-example/src/gps-firefly-example.c ****   * @retval None
 224:../../applications/gps-firefly-example/src/gps-firefly-example.c ****   */
 225:../../applications/gps-firefly-example/src/gps-firefly-example.c **** void HAL_TIM_PeriodElapsedCallback(TIM_HandleTypeDef *htim)
 226:../../applications/gps-firefly-example/src/gps-firefly-example.c **** {
 350              		.loc 1 226 0
 351              		.cfi_startproc
 352              		@ args = 0, pretend = 0, frame = 0
 353              		@ frame_needed = 0, uses_anonymous_args = 0
 354              	.LVL35:
 355 0000 08B5     		push	{r3, lr}
 356              	.LCFI10:
 357              		.cfi_def_cfa_offset 8
 358              		.cfi_offset 3, -8
 359              		.cfi_offset 14, -4
 227:../../applications/gps-firefly-example/src/gps-firefly-example.c ****   /* USER CODE BEGIN Callback 0 */
 228:../../applications/gps-firefly-example/src/gps-firefly-example.c **** 
 229:../../applications/gps-firefly-example/src/gps-firefly-example.c ****   /* USER CODE END Callback 0 */
 230:../../applications/gps-firefly-example/src/gps-firefly-example.c ****   if (htim->Instance == TIM1)
 360              		.loc 1 230 0
 361 0002 0268     		ldr	r2, [r0]
 362 0004 034B     		ldr	r3, .L25
 363 0006 9A42     		cmp	r2, r3
 364 0008 00D0     		beq	.L24
 365              	.LVL36:
 366              	.L21:
 231:../../applications/gps-firefly-example/src/gps-firefly-example.c ****   {
 232:../../applications/gps-firefly-example/src/gps-firefly-example.c ****     HAL_IncTick();
 233:../../applications/gps-firefly-example/src/gps-firefly-example.c ****   }
 234:../../applications/gps-firefly-example/src/gps-firefly-example.c ****   /* USER CODE BEGIN Callback 1 */
 235:../../applications/gps-firefly-example/src/gps-firefly-example.c **** 
 236:../../applications/gps-firefly-example/src/gps-firefly-example.c ****   /* USER CODE END Callback 1 */
 237:../../applications/gps-firefly-example/src/gps-firefly-example.c **** }
 367              		.loc 1 237 0
 368 000a 08BD     		pop	{r3, pc}
 369              	.LVL37:
 370              	.L24:
 232:../../applications/gps-firefly-example/src/gps-firefly-example.c ****   }
 371              		.loc 1 232 0
 372 000c FFF7FEFF 		bl	HAL_IncTick
 373              	.LVL38:
 374              		.loc 1 237 0
ARM GAS  /tmp/cc7dqAFZ.s 			page 12


 375 0010 FBE7     		b	.L21
 376              	.L26:
 377 0012 00BF     		.align	2
 378              	.L25:
 379 0014 002C0140 		.word	1073818624
 380              		.cfi_endproc
 381              	.LFE132:
 383              		.section	.text.Error_Handler,"ax",%progbits
 384              		.align	1
 385              		.global	Error_Handler
 386              		.syntax unified
 387              		.thumb
 388              		.thumb_func
 389              		.fpu fpv4-sp-d16
 391              	Error_Handler:
 392              	.LFB133:
 238:../../applications/gps-firefly-example/src/gps-firefly-example.c **** 
 239:../../applications/gps-firefly-example/src/gps-firefly-example.c **** /**
 240:../../applications/gps-firefly-example/src/gps-firefly-example.c ****   * @brief  This function is executed in case of error occurrence.
 241:../../applications/gps-firefly-example/src/gps-firefly-example.c ****   * @retval None
 242:../../applications/gps-firefly-example/src/gps-firefly-example.c ****   */
 243:../../applications/gps-firefly-example/src/gps-firefly-example.c **** void Error_Handler(void)
 244:../../applications/gps-firefly-example/src/gps-firefly-example.c **** {
 393              		.loc 1 244 0
 394              		.cfi_startproc
 395              		@ args = 0, pretend = 0, frame = 0
 396              		@ frame_needed = 0, uses_anonymous_args = 0
 397              		@ link register save eliminated.
 245:../../applications/gps-firefly-example/src/gps-firefly-example.c ****   /* USER CODE BEGIN Error_Handler_Debug */
 246:../../applications/gps-firefly-example/src/gps-firefly-example.c ****   /* User can add his own implementation to report the HAL error return state */
 247:../../applications/gps-firefly-example/src/gps-firefly-example.c **** 
 248:../../applications/gps-firefly-example/src/gps-firefly-example.c ****   /* USER CODE END Error_Handler_Debug */
 249:../../applications/gps-firefly-example/src/gps-firefly-example.c **** }
 398              		.loc 1 249 0
 399 0000 7047     		bx	lr
 400              		.cfi_endproc
 401              	.LFE133:
 403              		.global	currentLocation
 404              		.global	hasGPSFix
 405              		.comm	locationArrayHex,32,4
 406              		.comm	locationArray,12,4
 407              		.comm	gpsTimId,4,4
 408              		.comm	iwdgTimId,4,4
 409              		.comm	P3_header,44,4
 410              		.comm	P2_header,44,4
 411              		.comm	P1_header,44,4
 412              		.comm	P3_SPI,100,4
 413              		.comm	P2_SPI,100,4
 414              		.comm	P1_SPI,100,4
 415              		.comm	P3_I2C,76,4
 416              		.comm	P2_I2C,76,4
 417              		.comm	P1_I2C,76,4
 418              		.comm	common_I2C,76,4
 419              		.comm	P3_UART,120,4
 420              		.comm	P2_UART,120,4
 421              		.comm	P1_UART,120,4
 422              		.comm	BLE_UART,120,4
ARM GAS  /tmp/cc7dqAFZ.s 			page 13


 423              		.comm	USB_UART,120,4
 424              		.comm	hiwdg,16,4
 425              		.comm	P3_DIO6,8,4
 426              		.comm	P3_DIO5,8,4
 427              		.comm	P3_DIO4,8,4
 428              		.comm	P3_DIO3,8,4
 429              		.comm	P3_DIO2,8,4
 430              		.comm	P3_DIO1,8,4
 431              		.comm	P2_DIO6,8,4
 432              		.comm	P2_DIO5,8,4
 433              		.comm	P2_DIO4,8,4
 434              		.comm	P2_DIO3,8,4
 435              		.comm	P2_DIO2,8,4
 436              		.comm	P2_DIO1,8,4
 437              		.comm	P1_DIO6,8,4
 438              		.comm	P1_DIO5,8,4
 439              		.comm	P1_DIO4,8,4
 440              		.comm	P1_DIO3,8,4
 441              		.comm	P1_DIO2,8,4
 442              		.comm	P1_DIO1,8,4
 443              		.section	.bss.currentLocation,"aw",%nobits
 444              		.align	2
 445              		.set	.LANCHOR1,. + 0
 448              	currentLocation:
 449 0000 00000000 		.space	12
 449      00000000 
 449      00000000 
 450              		.section	.bss.hasGPSFix,"aw",%nobits
 451              		.set	.LANCHOR0,. + 0
 454              	hasGPSFix:
 455 0000 00       		.space	1
 456              		.section	.rodata.GPS_Read.str1.4,"aMS",%progbits,1
 457              		.align	2
 458              	.LC5:
 459 0000 47505320 		.ascii	"GPS FIX\015\000"
 459      4649580D 
 459      00
 460 0009 000000   		.space	3
 461              	.LC6:
 462 000c 4E4F2047 		.ascii	"NO GPS FIX\015\000"
 462      50532046 
 462      49580D00 
 463              		.section	.rodata.main.str1.4,"aMS",%progbits,1
 464              		.align	2
 465              	.LC3:
 466 0000 496E6974 		.ascii	"Initializing RTOS timers, threads and mutex\015\000"
 466      69616C69 
 466      7A696E67 
 466      2052544F 
 466      53207469 
 467              		.section	.rodata.printWelcome.str1.4,"aMS",%progbits,1
 468              		.align	2
 469              	.LC0:
 470 0000 0D00     		.ascii	"\015\000"
 471 0002 0000     		.space	2
 472              	.LC1:
 473 0004 2A2A2A2A 		.ascii	"*****************************************\015\000"
ARM GAS  /tmp/cc7dqAFZ.s 			page 14


 473      2A2A2A2A 
 473      2A2A2A2A 
 473      2A2A2A2A 
 473      2A2A2A2A 
 474 002f 00       		.space	1
 475              	.LC2:
 476 0030 46697265 		.ascii	"Firefly GPS Module example\015\000"
 476      666C7920 
 476      47505320 
 476      4D6F6475 
 476      6C652065 
 477              		.section	.rodata.setGPSCoordinates.str1.4,"aMS",%progbits,1
 478              		.align	2
 479              	.LC4:
 480 0000 4C6F6361 		.ascii	"Location lat: %f, long: %f, hdop: %f \015\012\000"
 480      74696F6E 
 480      206C6174 
 480      3A202566 
 480      2C206C6F 
 481              		.weak	SystemClock_Config
 482              		.text
 483              	.Letext0:
 484              		.file 2 "/home/mats/gcc-arm-none-eabi-7-2018-q2-update/arm-none-eabi/include/machine/_default_type
 485              		.file 3 "/home/mats/gcc-arm-none-eabi-7-2018-q2-update/arm-none-eabi/include/sys/_stdint.h"
 486              		.file 4 "../../core/ST/CMSIS/Include/core_cm4.h"
 487              		.file 5 "../../core/ST/CMSIS/Device/ST/STM32L4xx/Include/system_stm32l4xx.h"
 488              		.file 6 "../../core/ST/CMSIS/Device/ST/STM32L4xx/Include/stm32l496xx.h"
 489              		.file 7 "../../core/ST/STM32L4xx_HAL_Driver/Inc/stm32l4xx_hal_def.h"
 490              		.file 8 "../../core/ST/STM32L4xx_HAL_Driver/Inc/stm32l4xx_hal_dma.h"
 491              		.file 9 "../../core/ST/STM32L4xx_HAL_Driver/Inc/stm32l4xx_hal_i2c.h"
 492              		.file 10 "../../core/ST/STM32L4xx_HAL_Driver/Inc/stm32l4xx_hal_iwdg.h"
 493              		.file 11 "../../core/ST/STM32L4xx_HAL_Driver/Inc/stm32l4xx_hal_spi.h"
 494              		.file 12 "../../core/ST/STM32L4xx_HAL_Driver/Inc/stm32l4xx_hal_tim.h"
 495              		.file 13 "../../core/ST/STM32L4xx_HAL_Driver/Inc/stm32l4xx_hal_uart.h"
 496              		.file 14 "../../core/ST/STM32L4xx_HAL_Driver/Inc/stm32l4xx_hal.h"
 497              		.file 15 "../../core/ST/Middlewares/Third_Party/FreeRTOS/Source/include/timers.h"
 498              		.file 16 "../../core/ST/Middlewares/Third_Party/FreeRTOS/Source/CMSIS_RTOS/cmsis_os.h"
 499              		.file 17 "../../core/platform/octa/inc/gpio.h"
 500              		.file 18 "../../core/platform/octa/inc/iwdg.h"
 501              		.file 19 "../../core/platform/octa/inc/uart.h"
 502              		.file 20 "../../core/platform/octa/inc/i2c.h"
 503              		.file 21 "../../core/platform/octa/inc/spi.h"
 504              		.file 22 "../../core/platform/octa/inc/octa.h"
 505              		.file 23 "../../applications/gps-firefly-example/inc/gps-firefly-example.h"
 506              		.file 24 "../../shields/gps-firefly/inc/fireflyx1.h"
 507              		.file 25 "<built-in>"
 508              		.file 26 "../../core/ST/STM32L4xx_HAL_Driver/Inc/stm32l4xx_hal_gpio.h"
 509              		.file 27 "../../core/platform/octa/inc/sysclock.h"
 510              		.file 28 "../../core/platform/common/inc/platform.h"
ARM GAS  /tmp/cc7dqAFZ.s 			page 15

