ARM GAS  /tmp/cc4TUd6U.s 			page 1


   1              		.cpu cortex-m4
   2              		.eabi_attribute 27, 1
   3              		.eabi_attribute 28, 1
   4              		.eabi_attribute 20, 1
   5              		.eabi_attribute 21, 1
   6              		.eabi_attribute 23, 3
   7              		.eabi_attribute 24, 1
   8              		.eabi_attribute 25, 1
   9              		.eabi_attribute 26, 1
  10              		.eabi_attribute 30, 1
  11              		.eabi_attribute 34, 1
  12              		.eabi_attribute 18, 4
  13              		.file	"nmea.c"
  14              		.text
  15              	.Ltext0:
  16              		.cfi_sections	.debug_frame
  17              		.section	.text.find_start,"ax",%progbits
  18              		.align	1
  19              		.global	find_start
  20              		.syntax unified
  21              		.thumb
  22              		.thumb_func
  23              		.fpu fpv4-sp-d16
  25              	find_start:
  26              	.LFB4:
  27              		.file 1 "../../shields/gps-firefly/src/nmea.c"
   1:../../shields/gps-firefly/src/nmea.c **** // NMEA parser - only support for GNGGA and its coordinates, for now ;-)
   2:../../shields/gps-firefly/src/nmea.c **** // constructed as a state machine
   3:../../shields/gps-firefly/src/nmea.c **** 
   4:../../shields/gps-firefly/src/nmea.c **** // example:
   5:../../shields/gps-firefly/src/nmea.c **** // $GNGGA,135507.000,5101.1610,N,00442.8453,E,...
   6:../../shields/gps-firefly/src/nmea.c **** // $.....,hhmmss.sss,ddmm.mmmm,[NS],ddmm.mmmm,[EW],...
   7:../../shields/gps-firefly/src/nmea.c **** 
   8:../../shields/gps-firefly/src/nmea.c **** #include <math.h>
   9:../../shields/gps-firefly/src/nmea.c **** #include <stdlib.h>
  10:../../shields/gps-firefly/src/nmea.c **** 
  11:../../shields/gps-firefly/src/nmea.c **** #include "nmea.h"
  12:../../shields/gps-firefly/src/nmea.c **** 
  13:../../shields/gps-firefly/src/nmea.c **** // local variable to store the results of parsing
  14:../../shields/gps-firefly/src/nmea.c **** static nmea_position_t position,
  15:../../shields/gps-firefly/src/nmea.c ****                        current_position;
  16:../../shields/gps-firefly/src/nmea.c **** 
  17:../../shields/gps-firefly/src/nmea.c **** nmea_position_t nmea_get_position() { return current_position;             }
  18:../../shields/gps-firefly/src/nmea.c **** uint8_t nmea_have_position()           { return current_position.quality > 0; }
  19:../../shields/gps-firefly/src/nmea.c **** 
  20:../../shields/gps-firefly/src/nmea.c **** void _reset_position(void) {
  21:../../shields/gps-firefly/src/nmea.c ****   position.time.hour     = 0;
  22:../../shields/gps-firefly/src/nmea.c ****   position.time.min      = 0;
  23:../../shields/gps-firefly/src/nmea.c ****   position.time.sec      = 0;
  24:../../shields/gps-firefly/src/nmea.c ****   position.latitude.deg  = 0;
  25:../../shields/gps-firefly/src/nmea.c ****   position.latitude.min  = 0;
  26:../../shields/gps-firefly/src/nmea.c ****   position.latitude.ns   = '_';
  27:../../shields/gps-firefly/src/nmea.c ****   position.longitude.deg = 0;
  28:../../shields/gps-firefly/src/nmea.c ****   position.longitude.min = 0;
  29:../../shields/gps-firefly/src/nmea.c ****   position.longitude.ew  = '_';
  30:../../shields/gps-firefly/src/nmea.c ****   position.quality=0;
  31:../../shields/gps-firefly/src/nmea.c **** }
ARM GAS  /tmp/cc4TUd6U.s 			page 2


  32:../../shields/gps-firefly/src/nmea.c **** void _reset_position2(void) {
  33:../../shields/gps-firefly/src/nmea.c **** 	current_position.time.hour     = 0;
  34:../../shields/gps-firefly/src/nmea.c **** 	current_position.time.min      = 0;
  35:../../shields/gps-firefly/src/nmea.c **** 	current_position.time.sec      = 0;
  36:../../shields/gps-firefly/src/nmea.c **** 	current_position.latitude.deg  = 0;
  37:../../shields/gps-firefly/src/nmea.c **** 	current_position.latitude.min  = 0;
  38:../../shields/gps-firefly/src/nmea.c **** 	current_position.latitude.ns   = '_';
  39:../../shields/gps-firefly/src/nmea.c **** 	current_position.longitude.deg = 0;
  40:../../shields/gps-firefly/src/nmea.c ****   current_position.longitude.min = 0;
  41:../../shields/gps-firefly/src/nmea.c ****   current_position.longitude.ew  = '_';
  42:../../shields/gps-firefly/src/nmea.c ****   current_position.quality=0;
  43:../../shields/gps-firefly/src/nmea.c **** }
  44:../../shields/gps-firefly/src/nmea.c **** 
  45:../../shields/gps-firefly/src/nmea.c **** // states use parser functions to do parts of the parsing
  46:../../shields/gps-firefly/src/nmea.c **** // they return a result code indicating if they failed to parse, want to 
  47:../../shields/gps-firefly/src/nmea.c **** // continue parsing or are done for their part
  48:../../shields/gps-firefly/src/nmea.c **** // the codes are used as their int value 0, 1, 2 in the transitions table
  49:../../shields/gps-firefly/src/nmea.c **** // to choose the next state.
  50:../../shields/gps-firefly/src/nmea.c **** enum result_code { FAIL, REPEAT, OK };
  51:../../shields/gps-firefly/src/nmea.c **** 
  52:../../shields/gps-firefly/src/nmea.c **** // detects the start of a command
  53:../../shields/gps-firefly/src/nmea.c **** int find_start (uint8_t b) { return b == '$' ? OK : FAIL; }
  28              		.loc 1 53 0
  29              		.cfi_startproc
  30              		@ args = 0, pretend = 0, frame = 0
  31              		@ frame_needed = 0, uses_anonymous_args = 0
  32              		@ link register save eliminated.
  33              	.LVL0:
  34              		.loc 1 53 0
  35 0000 2428     		cmp	r0, #36
  36 0002 01D0     		beq	.L4
  37 0004 0020     		movs	r0, #0
  38              	.LVL1:
  39 0006 7047     		bx	lr
  40              	.LVL2:
  41              	.L4:
  42 0008 0220     		movs	r0, #2
  43              	.LVL3:
  44 000a 7047     		bx	lr
  45              		.cfi_endproc
  46              	.LFE4:
  48              		.section	.text.parse_ns_ind,"ax",%progbits
  49              		.align	1
  50              		.global	parse_ns_ind
  51              		.syntax unified
  52              		.thumb
  53              		.thumb_func
  54              		.fpu fpv4-sp-d16
  56              	parse_ns_ind:
  57              	.LFB8:
  54:../../shields/gps-firefly/src/nmea.c **** 
  55:../../shields/gps-firefly/src/nmea.c **** // detects the GNGGA command
  56:../../shields/gps-firefly/src/nmea.c **** //$GNGGA,132322.000,5113.4908,N,00424.7987,E,1,6,1.23,-13.3,M,47.3,M,,*5B
  57:../../shields/gps-firefly/src/nmea.c **** int parse_gngga(uint8_t b) {
  58:../../shields/gps-firefly/src/nmea.c ****   static uint8_t pos = 0;
  59:../../shields/gps-firefly/src/nmea.c ****   const uint8_t string[] = "GNGGA,";
  60:../../shields/gps-firefly/src/nmea.c **** 
ARM GAS  /tmp/cc4TUd6U.s 			page 3


  61:../../shields/gps-firefly/src/nmea.c ****   // is it the expected next char?
  62:../../shields/gps-firefly/src/nmea.c ****   if(string[pos] == b) {
  63:../../shields/gps-firefly/src/nmea.c ****     if(pos == 5) {
  64:../../shields/gps-firefly/src/nmea.c ****       pos = 0;
  65:../../shields/gps-firefly/src/nmea.c ****       _reset_position();
  66:../../shields/gps-firefly/src/nmea.c ****       return OK;
  67:../../shields/gps-firefly/src/nmea.c ****     } else {
  68:../../shields/gps-firefly/src/nmea.c ****       pos++;
  69:../../shields/gps-firefly/src/nmea.c ****       return REPEAT;
  70:../../shields/gps-firefly/src/nmea.c ****     }
  71:../../shields/gps-firefly/src/nmea.c ****   }
  72:../../shields/gps-firefly/src/nmea.c ****   pos = 0;
  73:../../shields/gps-firefly/src/nmea.c ****   return FAIL;
  74:../../shields/gps-firefly/src/nmea.c **** }
  75:../../shields/gps-firefly/src/nmea.c **** 
  76:../../shields/gps-firefly/src/nmea.c **** // parses the UTC timestamp
  77:../../shields/gps-firefly/src/nmea.c **** int parse_time (uint8_t b) {
  78:../../shields/gps-firefly/src/nmea.c ****   static uint8_t pos = 0;
  79:../../shields/gps-firefly/src/nmea.c ****   switch(pos) {
  80:../../shields/gps-firefly/src/nmea.c ****     case 0: // Hhmmss.sss
  81:../../shields/gps-firefly/src/nmea.c ****     case 1: // hHmmss.sss
  82:../../shields/gps-firefly/src/nmea.c ****       if(b < '0' || b > '9') { pos = 0; return FAIL; }
  83:../../shields/gps-firefly/src/nmea.c ****       position.time.hour += (b - '0') * pow(10, (1-pos));
  84:../../shields/gps-firefly/src/nmea.c ****       break;
  85:../../shields/gps-firefly/src/nmea.c ****     case 2: // hhMmss.sss
  86:../../shields/gps-firefly/src/nmea.c ****     case 3: // hhmMss.sss
  87:../../shields/gps-firefly/src/nmea.c ****       if(b < '0' || b > '9') { pos = 0; return FAIL; }
  88:../../shields/gps-firefly/src/nmea.c ****       position.time.min += (b - '0') * pow(10, (3-pos));
  89:../../shields/gps-firefly/src/nmea.c ****       break;
  90:../../shields/gps-firefly/src/nmea.c ****     case 4: // hhmmSs.sss
  91:../../shields/gps-firefly/src/nmea.c ****     case 5: // hhmmsS.sss
  92:../../shields/gps-firefly/src/nmea.c ****       if(b < '0' || b > '9') { pos = 0; return FAIL; }
  93:../../shields/gps-firefly/src/nmea.c ****       position.time.sec += (b - '0') * pow(10, (5-pos));
  94:../../shields/gps-firefly/src/nmea.c ****       break;
  95:../../shields/gps-firefly/src/nmea.c ****     case 6: // skip .
  96:../../shields/gps-firefly/src/nmea.c ****       break;
  97:../../shields/gps-firefly/src/nmea.c ****     case 7: // hhmmss.Sss
  98:../../shields/gps-firefly/src/nmea.c ****     case 8: // hhmmss.sSs
  99:../../shields/gps-firefly/src/nmea.c ****     case 9: // hhmmss.ssS
 100:../../shields/gps-firefly/src/nmea.c ****       if(b < '0' || b > '9') { pos = 0; return FAIL; }
 101:../../shields/gps-firefly/src/nmea.c ****       position.time.sec += (b - '0') / pow(10, (pos - 6));
 102:../../shields/gps-firefly/src/nmea.c ****       break;
 103:../../shields/gps-firefly/src/nmea.c ****     case 10:
 104:../../shields/gps-firefly/src/nmea.c ****       pos = 0;
 105:../../shields/gps-firefly/src/nmea.c ****       if (b == ',')
 106:../../shields/gps-firefly/src/nmea.c ****         return OK;
 107:../../shields/gps-firefly/src/nmea.c ****       else
 108:../../shields/gps-firefly/src/nmea.c ****     	  return FAIL;
 109:../../shields/gps-firefly/src/nmea.c **** 
 110:../../shields/gps-firefly/src/nmea.c ****   }
 111:../../shields/gps-firefly/src/nmea.c **** 
 112:../../shields/gps-firefly/src/nmea.c ****   pos++;
 113:../../shields/gps-firefly/src/nmea.c ****   return REPEAT;
 114:../../shields/gps-firefly/src/nmea.c **** 
 115:../../shields/gps-firefly/src/nmea.c **** }
 116:../../shields/gps-firefly/src/nmea.c **** 
 117:../../shields/gps-firefly/src/nmea.c **** // parses the latitude information
ARM GAS  /tmp/cc4TUd6U.s 			page 4


 118:../../shields/gps-firefly/src/nmea.c **** int parse_latitude(uint8_t b) {
 119:../../shields/gps-firefly/src/nmea.c ****   static uint8_t pos = 0;
 120:../../shields/gps-firefly/src/nmea.c ****   switch(pos) {
 121:../../shields/gps-firefly/src/nmea.c ****     case 0: // Ddmm.mmmm
 122:../../shields/gps-firefly/src/nmea.c ****     case 1: // dDmm.mmmm
 123:../../shields/gps-firefly/src/nmea.c ****       if(b < '0' || b > '9') { pos = 0; return FAIL; }
 124:../../shields/gps-firefly/src/nmea.c ****       position.latitude.deg += (b - '0') * pow(10, (1-pos));
 125:../../shields/gps-firefly/src/nmea.c ****       break;
 126:../../shields/gps-firefly/src/nmea.c ****     case 2: // Ddmm.mmmm
 127:../../shields/gps-firefly/src/nmea.c ****     case 3: // dDmm.mmmm
 128:../../shields/gps-firefly/src/nmea.c ****       if(b < '0' || b > '9') { pos = 0; return FAIL; }
 129:../../shields/gps-firefly/src/nmea.c ****       position.latitude.min += (b - '0') * pow(10, (3-pos));
 130:../../shields/gps-firefly/src/nmea.c ****       break;
 131:../../shields/gps-firefly/src/nmea.c ****     case 4: break; // skip .
 132:../../shields/gps-firefly/src/nmea.c ****     case 5:
 133:../../shields/gps-firefly/src/nmea.c ****     case 6:
 134:../../shields/gps-firefly/src/nmea.c ****     case 7:
 135:../../shields/gps-firefly/src/nmea.c ****     case 8:
 136:../../shields/gps-firefly/src/nmea.c ****       if(b < '0' || b > '9') { pos = 0; return FAIL; }
 137:../../shields/gps-firefly/src/nmea.c ****       position.latitude.min += (b - '0') / pow(10, (pos - 4));
 138:../../shields/gps-firefly/src/nmea.c ****       break;
 139:../../shields/gps-firefly/src/nmea.c ****     case 9:
 140:../../shields/gps-firefly/src/nmea.c ****       if (b == ',')
 141:../../shields/gps-firefly/src/nmea.c ****       {
 142:../../shields/gps-firefly/src/nmea.c ****     	  pos = 0;
 143:../../shields/gps-firefly/src/nmea.c ****     	  return OK;
 144:../../shields/gps-firefly/src/nmea.c ****       }
 145:../../shields/gps-firefly/src/nmea.c ****       else
 146:../../shields/gps-firefly/src/nmea.c ****     	  break;
 147:../../shields/gps-firefly/src/nmea.c ****     case 10:
 148:../../shields/gps-firefly/src/nmea.c ****     	if(b < '0' || b > '9') { pos = 0; return FAIL; }
 149:../../shields/gps-firefly/src/nmea.c ****     	position.latitude.min += (b - '0') / pow(10, (pos - 6));
 150:../../shields/gps-firefly/src/nmea.c ****     	break;
 151:../../shields/gps-firefly/src/nmea.c ****     case 11:
 152:../../shields/gps-firefly/src/nmea.c ****     	pos = 0;
 153:../../shields/gps-firefly/src/nmea.c ****     	if (b == ',')
 154:../../shields/gps-firefly/src/nmea.c ****     	{
 155:../../shields/gps-firefly/src/nmea.c ****     	  	  return OK;
 156:../../shields/gps-firefly/src/nmea.c ****     	}
 157:../../shields/gps-firefly/src/nmea.c ****     	else
 158:../../shields/gps-firefly/src/nmea.c ****     	  	  return FAIL;
 159:../../shields/gps-firefly/src/nmea.c **** 
 160:../../shields/gps-firefly/src/nmea.c **** 
 161:../../shields/gps-firefly/src/nmea.c ****   }
 162:../../shields/gps-firefly/src/nmea.c ****   pos++;
 163:../../shields/gps-firefly/src/nmea.c ****   return REPEAT;
 164:../../shields/gps-firefly/src/nmea.c **** 
 165:../../shields/gps-firefly/src/nmea.c **** }
 166:../../shields/gps-firefly/src/nmea.c **** 
 167:../../shields/gps-firefly/src/nmea.c **** // parses the latitude orientation
 168:../../shields/gps-firefly/src/nmea.c **** int parse_ns_ind(uint8_t b) {
  58              		.loc 1 168 0
  59              		.cfi_startproc
  60              		@ args = 0, pretend = 0, frame = 0
  61              		@ frame_needed = 0, uses_anonymous_args = 0
  62              		@ link register save eliminated.
  63              	.LVL4:
ARM GAS  /tmp/cc4TUd6U.s 			page 5


 169:../../shields/gps-firefly/src/nmea.c ****   if (b == ',') return OK;
  64              		.loc 1 169 0
  65 0000 2C28     		cmp	r0, #44
  66 0002 09D0     		beq	.L8
 170:../../shields/gps-firefly/src/nmea.c **** 
 171:../../shields/gps-firefly/src/nmea.c ****   if(b != 'N' && b != 'S') { return FAIL; }
  67              		.loc 1 171 0
  68 0004 4E28     		cmp	r0, #78
  69 0006 03D0     		beq	.L7
  70              		.loc 1 171 0 is_stmt 0 discriminator 1
  71 0008 5328     		cmp	r0, #83
  72 000a 01D0     		beq	.L7
  73              		.loc 1 171 0
  74 000c 0020     		movs	r0, #0
  75              	.LVL5:
 172:../../shields/gps-firefly/src/nmea.c ****   position.latitude.ns = b;
 173:../../shields/gps-firefly/src/nmea.c ****   return REPEAT;
 174:../../shields/gps-firefly/src/nmea.c **** }
  76              		.loc 1 174 0 is_stmt 1
  77 000e 7047     		bx	lr
  78              	.LVL6:
  79              	.L7:
 172:../../shields/gps-firefly/src/nmea.c ****   position.latitude.ns = b;
  80              		.loc 1 172 0
  81 0010 024B     		ldr	r3, .L10
  82 0012 1874     		strb	r0, [r3, #16]
 173:../../shields/gps-firefly/src/nmea.c **** }
  83              		.loc 1 173 0
  84 0014 0120     		movs	r0, #1
  85              	.LVL7:
  86 0016 7047     		bx	lr
  87              	.LVL8:
  88              	.L8:
 169:../../shields/gps-firefly/src/nmea.c **** 
  89              		.loc 1 169 0
  90 0018 0220     		movs	r0, #2
  91              	.LVL9:
  92 001a 7047     		bx	lr
  93              	.L11:
  94              		.align	2
  95              	.L10:
  96 001c 00000000 		.word	.LANCHOR0
  97              		.cfi_endproc
  98              	.LFE8:
 100              		.section	.text.parse_ew_ind,"ax",%progbits
 101              		.align	1
 102              		.global	parse_ew_ind
 103              		.syntax unified
 104              		.thumb
 105              		.thumb_func
 106              		.fpu fpv4-sp-d16
 108              	parse_ew_ind:
 109              	.LFB10:
 175:../../shields/gps-firefly/src/nmea.c **** 
 176:../../shields/gps-firefly/src/nmea.c **** // parses the liongitude information
 177:../../shields/gps-firefly/src/nmea.c **** int parse_longitude(uint8_t b) {
 178:../../shields/gps-firefly/src/nmea.c ****   static uint8_t pos = 0;
ARM GAS  /tmp/cc4TUd6U.s 			page 6


 179:../../shields/gps-firefly/src/nmea.c ****   switch(pos) {
 180:../../shields/gps-firefly/src/nmea.c ****     case 0: // Dddmm.mmmm
 181:../../shields/gps-firefly/src/nmea.c ****       position.longitude.deg = 0;
 182:../../shields/gps-firefly/src/nmea.c ****       position.longitude.min = 0;
 183:../../shields/gps-firefly/src/nmea.c ****     case 1: // dDdmm.mmmm
 184:../../shields/gps-firefly/src/nmea.c ****     case 2: // ddDmm.mmmm
 185:../../shields/gps-firefly/src/nmea.c ****       if(b < '0' || b > '9') { pos = 0; return FAIL; }
 186:../../shields/gps-firefly/src/nmea.c ****       position.longitude.deg += (b - '0') * pow(10, (2-pos));
 187:../../shields/gps-firefly/src/nmea.c ****       break;
 188:../../shields/gps-firefly/src/nmea.c ****     case 3: // Ddmm.mmmm
 189:../../shields/gps-firefly/src/nmea.c ****     case 4: // dDmm.mmmm
 190:../../shields/gps-firefly/src/nmea.c ****       if(b < '0' || b > '9') { pos = 0; return FAIL; }
 191:../../shields/gps-firefly/src/nmea.c ****       position.longitude.min += (b - '0') * pow(10, (4-pos));
 192:../../shields/gps-firefly/src/nmea.c ****       break;
 193:../../shields/gps-firefly/src/nmea.c ****     case 5: break; // skip .
 194:../../shields/gps-firefly/src/nmea.c ****     case 6:
 195:../../shields/gps-firefly/src/nmea.c ****     case 7:
 196:../../shields/gps-firefly/src/nmea.c ****     case 8:
 197:../../shields/gps-firefly/src/nmea.c ****     case 9:
 198:../../shields/gps-firefly/src/nmea.c ****       if(b < '0' || b > '9') { pos = 0; return FAIL; }
 199:../../shields/gps-firefly/src/nmea.c ****       position.longitude.min += (b - '0') / pow(10, (pos - 5));
 200:../../shields/gps-firefly/src/nmea.c ****       break;
 201:../../shields/gps-firefly/src/nmea.c ****     case 10:
 202:../../shields/gps-firefly/src/nmea.c ****     	if (b == ',')
 203:../../shields/gps-firefly/src/nmea.c ****     	{
 204:../../shields/gps-firefly/src/nmea.c ****     		pos = 0;
 205:../../shields/gps-firefly/src/nmea.c ****     		return OK;
 206:../../shields/gps-firefly/src/nmea.c ****     	}
 207:../../shields/gps-firefly/src/nmea.c ****     	else
 208:../../shields/gps-firefly/src/nmea.c ****     		break;
 209:../../shields/gps-firefly/src/nmea.c ****     case 11:
 210:../../shields/gps-firefly/src/nmea.c ****     	if(b < '0' || b > '9') { pos = 0; return FAIL; }
 211:../../shields/gps-firefly/src/nmea.c ****     	position.longitude.min += (b - '0') / pow(10, (pos - 5));
 212:../../shields/gps-firefly/src/nmea.c ****     	break;
 213:../../shields/gps-firefly/src/nmea.c ****     case 12:
 214:../../shields/gps-firefly/src/nmea.c ****           pos = 0;
 215:../../shields/gps-firefly/src/nmea.c ****           if (b == ',')
 216:../../shields/gps-firefly/src/nmea.c ****             return OK;
 217:../../shields/gps-firefly/src/nmea.c ****           else
 218:../../shields/gps-firefly/src/nmea.c ****         	  return FAIL;
 219:../../shields/gps-firefly/src/nmea.c **** 
 220:../../shields/gps-firefly/src/nmea.c ****   }
 221:../../shields/gps-firefly/src/nmea.c ****   pos++;
 222:../../shields/gps-firefly/src/nmea.c ****   return REPEAT;
 223:../../shields/gps-firefly/src/nmea.c **** }
 224:../../shields/gps-firefly/src/nmea.c **** 
 225:../../shields/gps-firefly/src/nmea.c **** // parses the longitude orientation
 226:../../shields/gps-firefly/src/nmea.c **** int parse_ew_ind(uint8_t b) {
 110              		.loc 1 226 0
 111              		.cfi_startproc
 112              		@ args = 0, pretend = 0, frame = 0
 113              		@ frame_needed = 0, uses_anonymous_args = 0
 114              		@ link register save eliminated.
 115              	.LVL10:
 227:../../shields/gps-firefly/src/nmea.c **** 	if (b == ',') return OK;
 116              		.loc 1 227 0
 117 0000 2C28     		cmp	r0, #44
ARM GAS  /tmp/cc4TUd6U.s 			page 7


 118 0002 09D0     		beq	.L15
 228:../../shields/gps-firefly/src/nmea.c **** 	if(b != 'E' && b != 'W') { return FAIL; }
 119              		.loc 1 228 0
 120 0004 4528     		cmp	r0, #69
 121 0006 03D0     		beq	.L14
 122              		.loc 1 228 0 is_stmt 0 discriminator 1
 123 0008 5728     		cmp	r0, #87
 124 000a 01D0     		beq	.L14
 125              		.loc 1 228 0
 126 000c 0020     		movs	r0, #0
 127              	.LVL11:
 229:../../shields/gps-firefly/src/nmea.c **** 	position.longitude.ew = b;
 230:../../shields/gps-firefly/src/nmea.c **** 
 231:../../shields/gps-firefly/src/nmea.c **** 	return REPEAT;
 232:../../shields/gps-firefly/src/nmea.c **** }
 128              		.loc 1 232 0 is_stmt 1
 129 000e 7047     		bx	lr
 130              	.LVL12:
 131              	.L14:
 229:../../shields/gps-firefly/src/nmea.c **** 	position.longitude.ew = b;
 132              		.loc 1 229 0
 133 0010 024B     		ldr	r3, .L17
 134 0012 1877     		strb	r0, [r3, #28]
 231:../../shields/gps-firefly/src/nmea.c **** }
 135              		.loc 1 231 0
 136 0014 0120     		movs	r0, #1
 137              	.LVL13:
 138 0016 7047     		bx	lr
 139              	.LVL14:
 140              	.L15:
 227:../../shields/gps-firefly/src/nmea.c **** 	if(b != 'E' && b != 'W') { return FAIL; }
 141              		.loc 1 227 0
 142 0018 0220     		movs	r0, #2
 143              	.LVL15:
 144 001a 7047     		bx	lr
 145              	.L18:
 146              		.align	2
 147              	.L17:
 148 001c 00000000 		.word	.LANCHOR0
 149              		.cfi_endproc
 150              	.LFE10:
 152              		.section	.text.parse_quality,"ax",%progbits
 153              		.align	1
 154              		.global	parse_quality
 155              		.syntax unified
 156              		.thumb
 157              		.thumb_func
 158              		.fpu fpv4-sp-d16
 160              	parse_quality:
 161              	.LFB11:
 233:../../shields/gps-firefly/src/nmea.c **** 
 234:../../shields/gps-firefly/src/nmea.c **** int parse_quality(uint8_t b) {
 162              		.loc 1 234 0
 163              		.cfi_startproc
 164              		@ args = 0, pretend = 0, frame = 0
 165              		@ frame_needed = 0, uses_anonymous_args = 0
 166              		@ link register save eliminated.
ARM GAS  /tmp/cc4TUd6U.s 			page 8


 167              	.LVL16:
 235:../../shields/gps-firefly/src/nmea.c **** 	if (b == ',') return OK;
 168              		.loc 1 235 0
 169 0000 2C28     		cmp	r0, #44
 170 0002 08D0     		beq	.L21
 236:../../shields/gps-firefly/src/nmea.c **** 	b -= '0';
 171              		.loc 1 236 0
 172 0004 3038     		subs	r0, r0, #48
 173              	.LVL17:
 174 0006 C0B2     		uxtb	r0, r0
 175              	.LVL18:
 237:../../shields/gps-firefly/src/nmea.c **** 	if(b > 8) { return FAIL; }
 176              		.loc 1 237 0
 177 0008 0828     		cmp	r0, #8
 178 000a 06D8     		bhi	.L22
 238:../../shields/gps-firefly/src/nmea.c **** 	position.quality = b;
 179              		.loc 1 238 0
 180 000c 044B     		ldr	r3, .L23
 181 000e 83F82000 		strb	r0, [r3, #32]
 239:../../shields/gps-firefly/src/nmea.c **** 
 240:../../shields/gps-firefly/src/nmea.c **** 	return REPEAT;
 182              		.loc 1 240 0
 183 0012 0120     		movs	r0, #1
 184              	.LVL19:
 185 0014 7047     		bx	lr
 186              	.LVL20:
 187              	.L21:
 235:../../shields/gps-firefly/src/nmea.c **** 	b -= '0';
 188              		.loc 1 235 0
 189 0016 0220     		movs	r0, #2
 190              	.LVL21:
 191 0018 7047     		bx	lr
 192              	.LVL22:
 193              	.L22:
 237:../../shields/gps-firefly/src/nmea.c **** 	position.quality = b;
 194              		.loc 1 237 0
 195 001a 0020     		movs	r0, #0
 196              	.LVL23:
 241:../../shields/gps-firefly/src/nmea.c **** }
 197              		.loc 1 241 0
 198 001c 7047     		bx	lr
 199              	.L24:
 200 001e 00BF     		.align	2
 201              	.L23:
 202 0020 00000000 		.word	.LANCHOR0
 203              		.cfi_endproc
 204              	.LFE11:
 206              		.section	.text.parse_nr_sats,"ax",%progbits
 207              		.align	1
 208              		.global	parse_nr_sats
 209              		.syntax unified
 210              		.thumb
 211              		.thumb_func
 212              		.fpu fpv4-sp-d16
 214              	parse_nr_sats:
 215              	.LFB12:
 242:../../shields/gps-firefly/src/nmea.c **** 
ARM GAS  /tmp/cc4TUd6U.s 			page 9


 243:../../shields/gps-firefly/src/nmea.c **** int parse_nr_sats(uint8_t b) {
 216              		.loc 1 243 0
 217              		.cfi_startproc
 218              		@ args = 0, pretend = 0, frame = 0
 219              		@ frame_needed = 0, uses_anonymous_args = 0
 220              		@ link register save eliminated.
 221              	.LVL24:
 244:../../shields/gps-firefly/src/nmea.c **** 
 245:../../shields/gps-firefly/src/nmea.c **** 	static uint8_t pos = 0;
 246:../../shields/gps-firefly/src/nmea.c **** 	if (b == ',')
 222              		.loc 1 246 0
 223 0000 2C28     		cmp	r0, #44
 224 0002 10D0     		beq	.L31
 247:../../shields/gps-firefly/src/nmea.c **** 	{
 248:../../shields/gps-firefly/src/nmea.c **** 		pos = 0;
 249:../../shields/gps-firefly/src/nmea.c **** 		return OK;
 250:../../shields/gps-firefly/src/nmea.c **** 	}
 251:../../shields/gps-firefly/src/nmea.c **** 
 252:../../shields/gps-firefly/src/nmea.c **** 	if(b < '0' || b > '9') { pos = 0; return FAIL; }
 225              		.loc 1 252 0
 226 0004 A0F13003 		sub	r3, r0, #48
 227 0008 DBB2     		uxtb	r3, r3
 228 000a 092B     		cmp	r3, #9
 229 000c 10D8     		bhi	.L32
 253:../../shields/gps-firefly/src/nmea.c **** 
 254:../../shields/gps-firefly/src/nmea.c **** 	if (pos == 0)
 230              		.loc 1 254 0
 231 000e 104A     		ldr	r2, .L33
 232 0010 1278     		ldrb	r2, [r2]	@ zero_extendqisi2
 233 0012 8AB9     		cbnz	r2, .L29
 255:../../shields/gps-firefly/src/nmea.c **** 	{
 256:../../shields/gps-firefly/src/nmea.c **** 		position.nrofsats = (b - '0');
 234              		.loc 1 256 0
 235 0014 0F4A     		ldr	r2, .L33+4
 236 0016 82F82830 		strb	r3, [r2, #40]
 237              	.LVL25:
 238              	.L30:
 257:../../shields/gps-firefly/src/nmea.c **** 	}
 258:../../shields/gps-firefly/src/nmea.c **** 	else
 259:../../shields/gps-firefly/src/nmea.c **** 	{
 260:../../shields/gps-firefly/src/nmea.c **** 		position.nrofsats *= 10;
 261:../../shields/gps-firefly/src/nmea.c **** 		position.nrofsats += (b - '0');
 262:../../shields/gps-firefly/src/nmea.c **** 	}
 263:../../shields/gps-firefly/src/nmea.c **** 
 264:../../shields/gps-firefly/src/nmea.c **** 	pos++;
 239              		.loc 1 264 0
 240 001a 0D4A     		ldr	r2, .L33
 241 001c 1378     		ldrb	r3, [r2]	@ zero_extendqisi2
 242 001e 0133     		adds	r3, r3, #1
 243 0020 1370     		strb	r3, [r2]
 265:../../shields/gps-firefly/src/nmea.c ****     return REPEAT;
 244              		.loc 1 265 0
 245 0022 0120     		movs	r0, #1
 266:../../shields/gps-firefly/src/nmea.c **** }
 246              		.loc 1 266 0
 247 0024 7047     		bx	lr
 248              	.LVL26:
ARM GAS  /tmp/cc4TUd6U.s 			page 10


 249              	.L31:
 248:../../shields/gps-firefly/src/nmea.c **** 		return OK;
 250              		.loc 1 248 0
 251 0026 0A4B     		ldr	r3, .L33
 252 0028 0022     		movs	r2, #0
 253 002a 1A70     		strb	r2, [r3]
 249:../../shields/gps-firefly/src/nmea.c **** 	}
 254              		.loc 1 249 0
 255 002c 0220     		movs	r0, #2
 256              	.LVL27:
 257 002e 7047     		bx	lr
 258              	.LVL28:
 259              	.L32:
 252:../../shields/gps-firefly/src/nmea.c **** 
 260              		.loc 1 252 0 discriminator 1
 261 0030 0020     		movs	r0, #0
 262              	.LVL29:
 263 0032 074B     		ldr	r3, .L33
 264 0034 1870     		strb	r0, [r3]
 265 0036 7047     		bx	lr
 266              	.LVL30:
 267              	.L29:
 260:../../shields/gps-firefly/src/nmea.c **** 		position.nrofsats += (b - '0');
 268              		.loc 1 260 0
 269 0038 0649     		ldr	r1, .L33+4
 270 003a 91F82820 		ldrb	r2, [r1, #40]	@ zero_extendqisi2
 271 003e 02EB8202 		add	r2, r2, r2, lsl #2
 272 0042 5300     		lsls	r3, r2, #1
 273 0044 DBB2     		uxtb	r3, r3
 261:../../shields/gps-firefly/src/nmea.c **** 	}
 274              		.loc 1 261 0
 275 0046 1844     		add	r0, r0, r3
 276              	.LVL31:
 277 0048 3038     		subs	r0, r0, #48
 278 004a 81F82800 		strb	r0, [r1, #40]
 279 004e E4E7     		b	.L30
 280              	.L34:
 281              		.align	2
 282              	.L33:
 283 0050 00000000 		.word	.LANCHOR1
 284 0054 00000000 		.word	.LANCHOR0
 285              		.cfi_endproc
 286              	.LFE12:
 288              		.global	__aeabi_i2d
 289              		.global	__aeabi_dmul
 290              		.global	__aeabi_dadd
 291              		.global	__aeabi_d2uiz
 292              		.global	__aeabi_f2d
 293              		.global	__aeabi_d2f
 294              		.global	__aeabi_ddiv
 295              		.section	.text.parse_time,"ax",%progbits
 296              		.align	1
 297              		.global	parse_time
 298              		.syntax unified
 299              		.thumb
 300              		.thumb_func
 301              		.fpu fpv4-sp-d16
ARM GAS  /tmp/cc4TUd6U.s 			page 11


 303              	parse_time:
 304              	.LFB6:
  77:../../shields/gps-firefly/src/nmea.c ****   static uint8_t pos = 0;
 305              		.loc 1 77 0
 306              		.cfi_startproc
 307              		@ args = 0, pretend = 0, frame = 0
 308              		@ frame_needed = 0, uses_anonymous_args = 0
 309              	.LVL32:
 310 0000 D0B5     		push	{r4, r6, r7, lr}
 311              	.LCFI0:
 312              		.cfi_def_cfa_offset 16
 313              		.cfi_offset 4, -16
 314              		.cfi_offset 6, -12
 315              		.cfi_offset 7, -8
 316              		.cfi_offset 14, -4
  79:../../shields/gps-firefly/src/nmea.c ****     case 0: // Hhmmss.sss
 317              		.loc 1 79 0
 318 0002 674B     		ldr	r3, .L51+8
 319 0004 1B78     		ldrb	r3, [r3]	@ zero_extendqisi2
 320 0006 0A2B     		cmp	r3, #10
 321 0008 32D8     		bhi	.L36
 322 000a DFE803F0 		tbb	[pc, r3]
 323              	.L38:
 324 000e 06       		.byte	(.L37-.L38)/2
 325 000f 06       		.byte	(.L37-.L38)/2
 326 0010 37       		.byte	(.L39-.L38)/2
 327 0011 37       		.byte	(.L39-.L38)/2
 328 0012 63       		.byte	(.L40-.L38)/2
 329 0013 63       		.byte	(.L40-.L38)/2
 330 0014 31       		.byte	(.L36-.L38)/2
 331 0015 8F       		.byte	(.L41-.L38)/2
 332 0016 8F       		.byte	(.L41-.L38)/2
 333 0017 8F       		.byte	(.L41-.L38)/2
 334 0018 BA       		.byte	(.L42-.L38)/2
 335 0019 00       		.p2align 1
 336              	.L37:
  82:../../shields/gps-firefly/src/nmea.c ****       position.time.hour += (b - '0') * pow(10, (1-pos));
 337              		.loc 1 82 0
 338 001a A0F13002 		sub	r2, r0, #48
 339 001e D2B2     		uxtb	r2, r2
 340 0020 092A     		cmp	r2, #9
 341 0022 03D9     		bls	.L43
  82:../../shields/gps-firefly/src/nmea.c ****       position.time.hour += (b - '0') * pow(10, (1-pos));
 342              		.loc 1 82 0 is_stmt 0 discriminator 1
 343 0024 0020     		movs	r0, #0
 344              	.LVL33:
 345 0026 5E4B     		ldr	r3, .L51+8
 346 0028 1870     		strb	r0, [r3]
 347 002a 26E0     		b	.L35
 348              	.LVL34:
 349              	.L43:
  83:../../shields/gps-firefly/src/nmea.c ****       break;
 350              		.loc 1 83 0 is_stmt 1
 351 002c A0F13004 		sub	r4, r0, #48
 352 0030 C3F10100 		rsb	r0, r3, #1
 353              	.LVL35:
 354 0034 FFF7FEFF 		bl	__aeabi_i2d
ARM GAS  /tmp/cc4TUd6U.s 			page 12


 355              	.LVL36:
 356 0038 41EC110B 		vmov	d1, r0, r1
 357 003c 9FED560B 		vldr.64	d0, .L51
 358 0040 FFF7FEFF 		bl	pow
 359              	.LVL37:
 360 0044 57EC106B 		vmov	r6, r7, d0
 361 0048 2046     		mov	r0, r4
 362 004a FFF7FEFF 		bl	__aeabi_i2d
 363              	.LVL38:
 364 004e 3246     		mov	r2, r6
 365 0050 3B46     		mov	r3, r7
 366 0052 FFF7FEFF 		bl	__aeabi_dmul
 367              	.LVL39:
 368 0056 0646     		mov	r6, r0
 369 0058 0F46     		mov	r7, r1
 370 005a 524C     		ldr	r4, .L51+12
 371 005c 2078     		ldrb	r0, [r4]	@ zero_extendqisi2
 372 005e FFF7FEFF 		bl	__aeabi_i2d
 373              	.LVL40:
 374 0062 3246     		mov	r2, r6
 375 0064 3B46     		mov	r3, r7
 376 0066 FFF7FEFF 		bl	__aeabi_dadd
 377              	.LVL41:
 378 006a FFF7FEFF 		bl	__aeabi_d2uiz
 379              	.LVL42:
 380 006e 2070     		strb	r0, [r4]
 381              	.L36:
 112:../../shields/gps-firefly/src/nmea.c ****   return REPEAT;
 382              		.loc 1 112 0
 383 0070 4B4A     		ldr	r2, .L51+8
 384 0072 1378     		ldrb	r3, [r2]	@ zero_extendqisi2
 385 0074 0133     		adds	r3, r3, #1
 386 0076 1370     		strb	r3, [r2]
 113:../../shields/gps-firefly/src/nmea.c **** 
 387              		.loc 1 113 0
 388 0078 0120     		movs	r0, #1
 389              	.L35:
 115:../../shields/gps-firefly/src/nmea.c **** 
 390              		.loc 1 115 0
 391 007a D0BD     		pop	{r4, r6, r7, pc}
 392              	.LVL43:
 393              	.L39:
  87:../../shields/gps-firefly/src/nmea.c ****       position.time.min += (b - '0') * pow(10, (3-pos));
 394              		.loc 1 87 0
 395 007c A0F13002 		sub	r2, r0, #48
 396 0080 D2B2     		uxtb	r2, r2
 397 0082 092A     		cmp	r2, #9
 398 0084 03D9     		bls	.L45
  87:../../shields/gps-firefly/src/nmea.c ****       position.time.min += (b - '0') * pow(10, (3-pos));
 399              		.loc 1 87 0 is_stmt 0 discriminator 1
 400 0086 0020     		movs	r0, #0
 401              	.LVL44:
 402 0088 454B     		ldr	r3, .L51+8
 403 008a 1870     		strb	r0, [r3]
 404 008c F5E7     		b	.L35
 405              	.LVL45:
 406              	.L45:
ARM GAS  /tmp/cc4TUd6U.s 			page 13


  88:../../shields/gps-firefly/src/nmea.c ****       break;
 407              		.loc 1 88 0 is_stmt 1
 408 008e A0F13004 		sub	r4, r0, #48
 409 0092 C3F10300 		rsb	r0, r3, #3
 410              	.LVL46:
 411 0096 FFF7FEFF 		bl	__aeabi_i2d
 412              	.LVL47:
 413 009a 41EC110B 		vmov	d1, r0, r1
 414 009e 9FED3E0B 		vldr.64	d0, .L51
 415 00a2 FFF7FEFF 		bl	pow
 416              	.LVL48:
 417 00a6 57EC106B 		vmov	r6, r7, d0
 418 00aa 2046     		mov	r0, r4
 419 00ac FFF7FEFF 		bl	__aeabi_i2d
 420              	.LVL49:
 421 00b0 3246     		mov	r2, r6
 422 00b2 3B46     		mov	r3, r7
 423 00b4 FFF7FEFF 		bl	__aeabi_dmul
 424              	.LVL50:
 425 00b8 0646     		mov	r6, r0
 426 00ba 0F46     		mov	r7, r1
 427 00bc 394C     		ldr	r4, .L51+12
 428 00be 6078     		ldrb	r0, [r4, #1]	@ zero_extendqisi2
 429 00c0 FFF7FEFF 		bl	__aeabi_i2d
 430              	.LVL51:
 431 00c4 3246     		mov	r2, r6
 432 00c6 3B46     		mov	r3, r7
 433 00c8 FFF7FEFF 		bl	__aeabi_dadd
 434              	.LVL52:
 435 00cc FFF7FEFF 		bl	__aeabi_d2uiz
 436              	.LVL53:
 437 00d0 6070     		strb	r0, [r4, #1]
  89:../../shields/gps-firefly/src/nmea.c ****     case 4: // hhmmSs.sss
 438              		.loc 1 89 0
 439 00d2 CDE7     		b	.L36
 440              	.LVL54:
 441              	.L40:
  92:../../shields/gps-firefly/src/nmea.c ****       position.time.sec += (b - '0') * pow(10, (5-pos));
 442              		.loc 1 92 0
 443 00d4 A0F13002 		sub	r2, r0, #48
 444 00d8 D2B2     		uxtb	r2, r2
 445 00da 092A     		cmp	r2, #9
 446 00dc 03D9     		bls	.L46
  92:../../shields/gps-firefly/src/nmea.c ****       position.time.sec += (b - '0') * pow(10, (5-pos));
 447              		.loc 1 92 0 is_stmt 0 discriminator 1
 448 00de 0020     		movs	r0, #0
 449              	.LVL55:
 450 00e0 2F4B     		ldr	r3, .L51+8
 451 00e2 1870     		strb	r0, [r3]
 452 00e4 C9E7     		b	.L35
 453              	.LVL56:
 454              	.L46:
  93:../../shields/gps-firefly/src/nmea.c ****       break;
 455              		.loc 1 93 0 is_stmt 1
 456 00e6 A0F13004 		sub	r4, r0, #48
 457 00ea C3F10500 		rsb	r0, r3, #5
 458              	.LVL57:
ARM GAS  /tmp/cc4TUd6U.s 			page 14


 459 00ee FFF7FEFF 		bl	__aeabi_i2d
 460              	.LVL58:
 461 00f2 41EC110B 		vmov	d1, r0, r1
 462 00f6 9FED280B 		vldr.64	d0, .L51
 463 00fa FFF7FEFF 		bl	pow
 464              	.LVL59:
 465 00fe 57EC106B 		vmov	r6, r7, d0
 466 0102 2046     		mov	r0, r4
 467 0104 FFF7FEFF 		bl	__aeabi_i2d
 468              	.LVL60:
 469 0108 3246     		mov	r2, r6
 470 010a 3B46     		mov	r3, r7
 471 010c FFF7FEFF 		bl	__aeabi_dmul
 472              	.LVL61:
 473 0110 0646     		mov	r6, r0
 474 0112 0F46     		mov	r7, r1
 475 0114 234C     		ldr	r4, .L51+12
 476 0116 6068     		ldr	r0, [r4, #4]	@ float
 477 0118 FFF7FEFF 		bl	__aeabi_f2d
 478              	.LVL62:
 479 011c 3246     		mov	r2, r6
 480 011e 3B46     		mov	r3, r7
 481 0120 FFF7FEFF 		bl	__aeabi_dadd
 482              	.LVL63:
 483 0124 FFF7FEFF 		bl	__aeabi_d2f
 484              	.LVL64:
 485 0128 6060     		str	r0, [r4, #4]	@ float
  94:../../shields/gps-firefly/src/nmea.c ****     case 6: // skip .
 486              		.loc 1 94 0
 487 012a A1E7     		b	.L36
 488              	.LVL65:
 489              	.L41:
 100:../../shields/gps-firefly/src/nmea.c ****       position.time.sec += (b - '0') / pow(10, (pos - 6));
 490              		.loc 1 100 0
 491 012c A0F13002 		sub	r2, r0, #48
 492 0130 D2B2     		uxtb	r2, r2
 493 0132 092A     		cmp	r2, #9
 494 0134 03D9     		bls	.L47
 100:../../shields/gps-firefly/src/nmea.c ****       position.time.sec += (b - '0') / pow(10, (pos - 6));
 495              		.loc 1 100 0 is_stmt 0 discriminator 1
 496 0136 0020     		movs	r0, #0
 497              	.LVL66:
 498 0138 194B     		ldr	r3, .L51+8
 499 013a 1870     		strb	r0, [r3]
 500 013c 9DE7     		b	.L35
 501              	.LVL67:
 502              	.L47:
 101:../../shields/gps-firefly/src/nmea.c ****       break;
 503              		.loc 1 101 0 is_stmt 1
 504 013e A0F13004 		sub	r4, r0, #48
 505 0142 981F     		subs	r0, r3, #6
 506              	.LVL68:
 507 0144 FFF7FEFF 		bl	__aeabi_i2d
 508              	.LVL69:
 509 0148 41EC110B 		vmov	d1, r0, r1
 510 014c 9FED120B 		vldr.64	d0, .L51
 511 0150 FFF7FEFF 		bl	pow
ARM GAS  /tmp/cc4TUd6U.s 			page 15


 512              	.LVL70:
 513 0154 57EC106B 		vmov	r6, r7, d0
 514 0158 2046     		mov	r0, r4
 515 015a FFF7FEFF 		bl	__aeabi_i2d
 516              	.LVL71:
 517 015e 3246     		mov	r2, r6
 518 0160 3B46     		mov	r3, r7
 519 0162 FFF7FEFF 		bl	__aeabi_ddiv
 520              	.LVL72:
 521 0166 0646     		mov	r6, r0
 522 0168 0F46     		mov	r7, r1
 523 016a 0E4C     		ldr	r4, .L51+12
 524 016c 6068     		ldr	r0, [r4, #4]	@ float
 525 016e FFF7FEFF 		bl	__aeabi_f2d
 526              	.LVL73:
 527 0172 3246     		mov	r2, r6
 528 0174 3B46     		mov	r3, r7
 529 0176 FFF7FEFF 		bl	__aeabi_dadd
 530              	.LVL74:
 531 017a FFF7FEFF 		bl	__aeabi_d2f
 532              	.LVL75:
 533 017e 6060     		str	r0, [r4, #4]	@ float
 102:../../shields/gps-firefly/src/nmea.c ****     case 10:
 534              		.loc 1 102 0
 535 0180 76E7     		b	.L36
 536              	.LVL76:
 537              	.L42:
 104:../../shields/gps-firefly/src/nmea.c ****       if (b == ',')
 538              		.loc 1 104 0
 539 0182 074B     		ldr	r3, .L51+8
 540 0184 0022     		movs	r2, #0
 541 0186 1A70     		strb	r2, [r3]
 105:../../shields/gps-firefly/src/nmea.c ****         return OK;
 542              		.loc 1 105 0
 543 0188 2C28     		cmp	r0, #44
 544 018a 01D0     		beq	.L50
 108:../../shields/gps-firefly/src/nmea.c **** 
 545              		.loc 1 108 0
 546 018c 0020     		movs	r0, #0
 547              	.LVL77:
 548 018e 74E7     		b	.L35
 549              	.LVL78:
 550              	.L50:
 106:../../shields/gps-firefly/src/nmea.c ****       else
 551              		.loc 1 106 0
 552 0190 0220     		movs	r0, #2
 553              	.LVL79:
 554 0192 72E7     		b	.L35
 555              	.L52:
 556 0194 AFF30080 		.align	3
 557              	.L51:
 558 0198 00000000 		.word	0
 559 019c 00002440 		.word	1076101120
 560 01a0 00000000 		.word	.LANCHOR2
 561 01a4 00000000 		.word	.LANCHOR0
 562              		.cfi_endproc
 563              	.LFE6:
ARM GAS  /tmp/cc4TUd6U.s 			page 16


 565              		.section	.text.parse_latitude,"ax",%progbits
 566              		.align	1
 567              		.global	parse_latitude
 568              		.syntax unified
 569              		.thumb
 570              		.thumb_func
 571              		.fpu fpv4-sp-d16
 573              	parse_latitude:
 574              	.LFB7:
 118:../../shields/gps-firefly/src/nmea.c ****   static uint8_t pos = 0;
 575              		.loc 1 118 0
 576              		.cfi_startproc
 577              		@ args = 0, pretend = 0, frame = 0
 578              		@ frame_needed = 0, uses_anonymous_args = 0
 579              	.LVL80:
 580 0000 D0B5     		push	{r4, r6, r7, lr}
 581              	.LCFI1:
 582              		.cfi_def_cfa_offset 16
 583              		.cfi_offset 4, -16
 584              		.cfi_offset 6, -12
 585              		.cfi_offset 7, -8
 586              		.cfi_offset 14, -4
 120:../../shields/gps-firefly/src/nmea.c ****     case 0: // Ddmm.mmmm
 587              		.loc 1 120 0
 588 0002 6B4B     		ldr	r3, .L71+8
 589 0004 1B78     		ldrb	r3, [r3]	@ zero_extendqisi2
 590 0006 0B2B     		cmp	r3, #11
 591 0008 00F28D80 		bhi	.L54
 592 000c DFE803F0 		tbb	[pc, r3]
 593              	.L56:
 594 0010 06       		.byte	(.L55-.L56)/2
 595 0011 06       		.byte	(.L55-.L56)/2
 596 0012 32       		.byte	(.L57-.L56)/2
 597 0013 32       		.byte	(.L57-.L56)/2
 598 0014 8B       		.byte	(.L54-.L56)/2
 599 0015 5E       		.byte	(.L58-.L56)/2
 600 0016 5E       		.byte	(.L58-.L56)/2
 601 0017 5E       		.byte	(.L58-.L56)/2
 602 0018 5E       		.byte	(.L58-.L56)/2
 603 0019 89       		.byte	(.L59-.L56)/2
 604 001a 96       		.byte	(.L60-.L56)/2
 605 001b C1       		.byte	(.L61-.L56)/2
 606              		.p2align 1
 607              	.L55:
 123:../../shields/gps-firefly/src/nmea.c ****       position.latitude.deg += (b - '0') * pow(10, (1-pos));
 608              		.loc 1 123 0
 609 001c A0F13002 		sub	r2, r0, #48
 610 0020 D2B2     		uxtb	r2, r2
 611 0022 092A     		cmp	r2, #9
 612 0024 03D9     		bls	.L62
 123:../../shields/gps-firefly/src/nmea.c ****       position.latitude.deg += (b - '0') * pow(10, (1-pos));
 613              		.loc 1 123 0 is_stmt 0 discriminator 1
 614 0026 0020     		movs	r0, #0
 615              	.LVL81:
 616 0028 614B     		ldr	r3, .L71+8
 617 002a 1870     		strb	r0, [r3]
 618 002c 80E0     		b	.L53
ARM GAS  /tmp/cc4TUd6U.s 			page 17


 619              	.LVL82:
 620              	.L62:
 124:../../shields/gps-firefly/src/nmea.c ****       break;
 621              		.loc 1 124 0 is_stmt 1
 622 002e A0F13004 		sub	r4, r0, #48
 623 0032 C3F10100 		rsb	r0, r3, #1
 624              	.LVL83:
 625 0036 FFF7FEFF 		bl	__aeabi_i2d
 626              	.LVL84:
 627 003a 41EC110B 		vmov	d1, r0, r1
 628 003e 9FED5A0B 		vldr.64	d0, .L71
 629 0042 FFF7FEFF 		bl	pow
 630              	.LVL85:
 631 0046 57EC106B 		vmov	r6, r7, d0
 632 004a 2046     		mov	r0, r4
 633 004c FFF7FEFF 		bl	__aeabi_i2d
 634              	.LVL86:
 635 0050 3246     		mov	r2, r6
 636 0052 3B46     		mov	r3, r7
 637 0054 FFF7FEFF 		bl	__aeabi_dmul
 638              	.LVL87:
 639 0058 0646     		mov	r6, r0
 640 005a 0F46     		mov	r7, r1
 641 005c 554C     		ldr	r4, .L71+12
 642 005e 207A     		ldrb	r0, [r4, #8]	@ zero_extendqisi2
 643 0060 FFF7FEFF 		bl	__aeabi_i2d
 644              	.LVL88:
 645 0064 3246     		mov	r2, r6
 646 0066 3B46     		mov	r3, r7
 647 0068 FFF7FEFF 		bl	__aeabi_dadd
 648              	.LVL89:
 649 006c FFF7FEFF 		bl	__aeabi_d2uiz
 650              	.LVL90:
 651 0070 2072     		strb	r0, [r4, #8]
 125:../../shields/gps-firefly/src/nmea.c ****     case 2: // Ddmm.mmmm
 652              		.loc 1 125 0
 653 0072 58E0     		b	.L54
 654              	.LVL91:
 655              	.L57:
 128:../../shields/gps-firefly/src/nmea.c ****       position.latitude.min += (b - '0') * pow(10, (3-pos));
 656              		.loc 1 128 0
 657 0074 A0F13002 		sub	r2, r0, #48
 658 0078 D2B2     		uxtb	r2, r2
 659 007a 092A     		cmp	r2, #9
 660 007c 03D9     		bls	.L64
 128:../../shields/gps-firefly/src/nmea.c ****       position.latitude.min += (b - '0') * pow(10, (3-pos));
 661              		.loc 1 128 0 is_stmt 0 discriminator 1
 662 007e 0020     		movs	r0, #0
 663              	.LVL92:
 664 0080 4B4B     		ldr	r3, .L71+8
 665 0082 1870     		strb	r0, [r3]
 666 0084 54E0     		b	.L53
 667              	.LVL93:
 668              	.L64:
 129:../../shields/gps-firefly/src/nmea.c ****       break;
 669              		.loc 1 129 0 is_stmt 1
 670 0086 A0F13004 		sub	r4, r0, #48
ARM GAS  /tmp/cc4TUd6U.s 			page 18


 671 008a C3F10300 		rsb	r0, r3, #3
 672              	.LVL94:
 673 008e FFF7FEFF 		bl	__aeabi_i2d
 674              	.LVL95:
 675 0092 41EC110B 		vmov	d1, r0, r1
 676 0096 9FED440B 		vldr.64	d0, .L71
 677 009a FFF7FEFF 		bl	pow
 678              	.LVL96:
 679 009e 57EC106B 		vmov	r6, r7, d0
 680 00a2 2046     		mov	r0, r4
 681 00a4 FFF7FEFF 		bl	__aeabi_i2d
 682              	.LVL97:
 683 00a8 3246     		mov	r2, r6
 684 00aa 3B46     		mov	r3, r7
 685 00ac FFF7FEFF 		bl	__aeabi_dmul
 686              	.LVL98:
 687 00b0 0646     		mov	r6, r0
 688 00b2 0F46     		mov	r7, r1
 689 00b4 3F4C     		ldr	r4, .L71+12
 690 00b6 E068     		ldr	r0, [r4, #12]	@ float
 691 00b8 FFF7FEFF 		bl	__aeabi_f2d
 692              	.LVL99:
 693 00bc 3246     		mov	r2, r6
 694 00be 3B46     		mov	r3, r7
 695 00c0 FFF7FEFF 		bl	__aeabi_dadd
 696              	.LVL100:
 697 00c4 FFF7FEFF 		bl	__aeabi_d2f
 698              	.LVL101:
 699 00c8 E060     		str	r0, [r4, #12]	@ float
 130:../../shields/gps-firefly/src/nmea.c ****     case 4: break; // skip .
 700              		.loc 1 130 0
 701 00ca 2CE0     		b	.L54
 702              	.LVL102:
 703              	.L58:
 136:../../shields/gps-firefly/src/nmea.c ****       position.latitude.min += (b - '0') / pow(10, (pos - 4));
 704              		.loc 1 136 0
 705 00cc A0F13002 		sub	r2, r0, #48
 706 00d0 D2B2     		uxtb	r2, r2
 707 00d2 092A     		cmp	r2, #9
 708 00d4 03D9     		bls	.L65
 136:../../shields/gps-firefly/src/nmea.c ****       position.latitude.min += (b - '0') / pow(10, (pos - 4));
 709              		.loc 1 136 0 is_stmt 0 discriminator 1
 710 00d6 0020     		movs	r0, #0
 711              	.LVL103:
 712 00d8 354B     		ldr	r3, .L71+8
 713 00da 1870     		strb	r0, [r3]
 714 00dc 28E0     		b	.L53
 715              	.LVL104:
 716              	.L65:
 137:../../shields/gps-firefly/src/nmea.c ****       break;
 717              		.loc 1 137 0 is_stmt 1
 718 00de A0F13004 		sub	r4, r0, #48
 719 00e2 181F     		subs	r0, r3, #4
 720              	.LVL105:
 721 00e4 FFF7FEFF 		bl	__aeabi_i2d
 722              	.LVL106:
 723 00e8 41EC110B 		vmov	d1, r0, r1
ARM GAS  /tmp/cc4TUd6U.s 			page 19


 724 00ec 9FED2E0B 		vldr.64	d0, .L71
 725 00f0 FFF7FEFF 		bl	pow
 726              	.LVL107:
 727 00f4 57EC106B 		vmov	r6, r7, d0
 728 00f8 2046     		mov	r0, r4
 729 00fa FFF7FEFF 		bl	__aeabi_i2d
 730              	.LVL108:
 731 00fe 3246     		mov	r2, r6
 732 0100 3B46     		mov	r3, r7
 733 0102 FFF7FEFF 		bl	__aeabi_ddiv
 734              	.LVL109:
 735 0106 0646     		mov	r6, r0
 736 0108 0F46     		mov	r7, r1
 737 010a 2A4C     		ldr	r4, .L71+12
 738 010c E068     		ldr	r0, [r4, #12]	@ float
 739 010e FFF7FEFF 		bl	__aeabi_f2d
 740              	.LVL110:
 741 0112 3246     		mov	r2, r6
 742 0114 3B46     		mov	r3, r7
 743 0116 FFF7FEFF 		bl	__aeabi_dadd
 744              	.LVL111:
 745 011a FFF7FEFF 		bl	__aeabi_d2f
 746              	.LVL112:
 747 011e E060     		str	r0, [r4, #12]	@ float
 138:../../shields/gps-firefly/src/nmea.c ****     case 9:
 748              		.loc 1 138 0
 749 0120 01E0     		b	.L54
 750              	.LVL113:
 751              	.L59:
 140:../../shields/gps-firefly/src/nmea.c ****       {
 752              		.loc 1 140 0
 753 0122 2C28     		cmp	r0, #44
 754 0124 05D0     		beq	.L69
 755              	.LVL114:
 756              	.L54:
 162:../../shields/gps-firefly/src/nmea.c ****   return REPEAT;
 757              		.loc 1 162 0
 758 0126 224A     		ldr	r2, .L71+8
 759 0128 1378     		ldrb	r3, [r2]	@ zero_extendqisi2
 760 012a 0133     		adds	r3, r3, #1
 761 012c 1370     		strb	r3, [r2]
 163:../../shields/gps-firefly/src/nmea.c **** 
 762              		.loc 1 163 0
 763 012e 0120     		movs	r0, #1
 764              	.L53:
 165:../../shields/gps-firefly/src/nmea.c **** 
 765              		.loc 1 165 0
 766 0130 D0BD     		pop	{r4, r6, r7, pc}
 767              	.LVL115:
 768              	.L69:
 142:../../shields/gps-firefly/src/nmea.c ****     	  return OK;
 769              		.loc 1 142 0
 770 0132 1F4B     		ldr	r3, .L71+8
 771 0134 0022     		movs	r2, #0
 772 0136 1A70     		strb	r2, [r3]
 143:../../shields/gps-firefly/src/nmea.c ****       }
 773              		.loc 1 143 0
ARM GAS  /tmp/cc4TUd6U.s 			page 20


 774 0138 0220     		movs	r0, #2
 775              	.LVL116:
 776 013a F9E7     		b	.L53
 777              	.LVL117:
 778              	.L60:
 148:../../shields/gps-firefly/src/nmea.c ****     	position.latitude.min += (b - '0') / pow(10, (pos - 6));
 779              		.loc 1 148 0
 780 013c A0F13002 		sub	r2, r0, #48
 781 0140 D2B2     		uxtb	r2, r2
 782 0142 092A     		cmp	r2, #9
 783 0144 03D9     		bls	.L66
 148:../../shields/gps-firefly/src/nmea.c ****     	position.latitude.min += (b - '0') / pow(10, (pos - 6));
 784              		.loc 1 148 0 is_stmt 0 discriminator 1
 785 0146 0020     		movs	r0, #0
 786              	.LVL118:
 787 0148 194B     		ldr	r3, .L71+8
 788 014a 1870     		strb	r0, [r3]
 789 014c F0E7     		b	.L53
 790              	.LVL119:
 791              	.L66:
 149:../../shields/gps-firefly/src/nmea.c ****     	break;
 792              		.loc 1 149 0 is_stmt 1
 793 014e A0F13004 		sub	r4, r0, #48
 794 0152 981F     		subs	r0, r3, #6
 795              	.LVL120:
 796 0154 FFF7FEFF 		bl	__aeabi_i2d
 797              	.LVL121:
 798 0158 41EC110B 		vmov	d1, r0, r1
 799 015c 9FED120B 		vldr.64	d0, .L71
 800 0160 FFF7FEFF 		bl	pow
 801              	.LVL122:
 802 0164 57EC106B 		vmov	r6, r7, d0
 803 0168 2046     		mov	r0, r4
 804 016a FFF7FEFF 		bl	__aeabi_i2d
 805              	.LVL123:
 806 016e 3246     		mov	r2, r6
 807 0170 3B46     		mov	r3, r7
 808 0172 FFF7FEFF 		bl	__aeabi_ddiv
 809              	.LVL124:
 810 0176 0646     		mov	r6, r0
 811 0178 0F46     		mov	r7, r1
 812 017a 0E4C     		ldr	r4, .L71+12
 813 017c E068     		ldr	r0, [r4, #12]	@ float
 814 017e FFF7FEFF 		bl	__aeabi_f2d
 815              	.LVL125:
 816 0182 3246     		mov	r2, r6
 817 0184 3B46     		mov	r3, r7
 818 0186 FFF7FEFF 		bl	__aeabi_dadd
 819              	.LVL126:
 820 018a FFF7FEFF 		bl	__aeabi_d2f
 821              	.LVL127:
 822 018e E060     		str	r0, [r4, #12]	@ float
 150:../../shields/gps-firefly/src/nmea.c ****     case 11:
 823              		.loc 1 150 0
 824 0190 C9E7     		b	.L54
 825              	.LVL128:
 826              	.L61:
ARM GAS  /tmp/cc4TUd6U.s 			page 21


 152:../../shields/gps-firefly/src/nmea.c ****     	if (b == ',')
 827              		.loc 1 152 0
 828 0192 074B     		ldr	r3, .L71+8
 829 0194 0022     		movs	r2, #0
 830 0196 1A70     		strb	r2, [r3]
 153:../../shields/gps-firefly/src/nmea.c ****     	{
 831              		.loc 1 153 0
 832 0198 2C28     		cmp	r0, #44
 833 019a 01D0     		beq	.L70
 158:../../shields/gps-firefly/src/nmea.c **** 
 834              		.loc 1 158 0
 835 019c 0020     		movs	r0, #0
 836              	.LVL129:
 837 019e C7E7     		b	.L53
 838              	.LVL130:
 839              	.L70:
 155:../../shields/gps-firefly/src/nmea.c ****     	}
 840              		.loc 1 155 0
 841 01a0 0220     		movs	r0, #2
 842              	.LVL131:
 843 01a2 C5E7     		b	.L53
 844              	.L72:
 845 01a4 AFF30080 		.align	3
 846              	.L71:
 847 01a8 00000000 		.word	0
 848 01ac 00002440 		.word	1076101120
 849 01b0 00000000 		.word	.LANCHOR3
 850 01b4 00000000 		.word	.LANCHOR0
 851              		.cfi_endproc
 852              	.LFE7:
 854              		.section	.text.parse_longitude,"ax",%progbits
 855              		.align	1
 856              		.global	parse_longitude
 857              		.syntax unified
 858              		.thumb
 859              		.thumb_func
 860              		.fpu fpv4-sp-d16
 862              	parse_longitude:
 863              	.LFB9:
 177:../../shields/gps-firefly/src/nmea.c ****   static uint8_t pos = 0;
 864              		.loc 1 177 0
 865              		.cfi_startproc
 866              		@ args = 0, pretend = 0, frame = 0
 867              		@ frame_needed = 0, uses_anonymous_args = 0
 868              	.LVL132:
 869 0000 F8B5     		push	{r3, r4, r5, r6, r7, lr}
 870              	.LCFI2:
 871              		.cfi_def_cfa_offset 24
 872              		.cfi_offset 3, -24
 873              		.cfi_offset 4, -20
 874              		.cfi_offset 5, -16
 875              		.cfi_offset 6, -12
 876              		.cfi_offset 7, -8
 877              		.cfi_offset 14, -4
 179:../../shields/gps-firefly/src/nmea.c ****     case 0: // Dddmm.mmmm
 878              		.loc 1 179 0
 879 0002 6D4B     		ldr	r3, .L92+8
ARM GAS  /tmp/cc4TUd6U.s 			page 22


 880 0004 1B78     		ldrb	r3, [r3]	@ zero_extendqisi2
 881 0006 0C2B     		cmp	r3, #12
 882 0008 00F29380 		bhi	.L74
 883 000c DFE803F0 		tbb	[pc, r3]
 884              	.L76:
 885 0010 07       		.byte	(.L75-.L76)/2
 886 0011 0C       		.byte	(.L77-.L76)/2
 887 0012 0C       		.byte	(.L77-.L76)/2
 888 0013 38       		.byte	(.L78-.L76)/2
 889 0014 38       		.byte	(.L78-.L76)/2
 890 0015 91       		.byte	(.L74-.L76)/2
 891 0016 64       		.byte	(.L79-.L76)/2
 892 0017 64       		.byte	(.L79-.L76)/2
 893 0018 64       		.byte	(.L79-.L76)/2
 894 0019 64       		.byte	(.L79-.L76)/2
 895 001a 8F       		.byte	(.L80-.L76)/2
 896 001b 9C       		.byte	(.L81-.L76)/2
 897 001c C7       		.byte	(.L82-.L76)/2
 898 001d 00       		.p2align 1
 899              	.L75:
 181:../../shields/gps-firefly/src/nmea.c ****       position.longitude.min = 0;
 900              		.loc 1 181 0
 901 001e 674A     		ldr	r2, .L92+12
 902 0020 0021     		movs	r1, #0
 903 0022 1175     		strb	r1, [r2, #20]
 182:../../shields/gps-firefly/src/nmea.c ****     case 1: // dDdmm.mmmm
 904              		.loc 1 182 0
 905 0024 0021     		movs	r1, #0
 906 0026 9161     		str	r1, [r2, #24]	@ float
 907              	.L77:
 185:../../shields/gps-firefly/src/nmea.c ****       position.longitude.deg += (b - '0') * pow(10, (2-pos));
 908              		.loc 1 185 0
 909 0028 A0F13002 		sub	r2, r0, #48
 910 002c D2B2     		uxtb	r2, r2
 911 002e 092A     		cmp	r2, #9
 912 0030 03D9     		bls	.L83
 185:../../shields/gps-firefly/src/nmea.c ****       position.longitude.deg += (b - '0') * pow(10, (2-pos));
 913              		.loc 1 185 0 is_stmt 0 discriminator 1
 914 0032 0020     		movs	r0, #0
 915              	.LVL133:
 916 0034 604B     		ldr	r3, .L92+8
 917 0036 1870     		strb	r0, [r3]
 918 0038 80E0     		b	.L73
 919              	.LVL134:
 920              	.L83:
 186:../../shields/gps-firefly/src/nmea.c ****       break;
 921              		.loc 1 186 0 is_stmt 1
 922 003a A0F13006 		sub	r6, r0, #48
 923 003e C3F10200 		rsb	r0, r3, #2
 924              	.LVL135:
 925 0042 FFF7FEFF 		bl	__aeabi_i2d
 926              	.LVL136:
 927 0046 41EC110B 		vmov	d1, r0, r1
 928 004a 9FED590B 		vldr.64	d0, .L92
 929 004e FFF7FEFF 		bl	pow
 930              	.LVL137:
 931 0052 55EC104B 		vmov	r4, r5, d0
ARM GAS  /tmp/cc4TUd6U.s 			page 23


 932 0056 3046     		mov	r0, r6
 933 0058 FFF7FEFF 		bl	__aeabi_i2d
 934              	.LVL138:
 935 005c 2246     		mov	r2, r4
 936 005e 2B46     		mov	r3, r5
 937 0060 FFF7FEFF 		bl	__aeabi_dmul
 938              	.LVL139:
 939 0064 0646     		mov	r6, r0
 940 0066 0F46     		mov	r7, r1
 941 0068 544C     		ldr	r4, .L92+12
 942 006a 207D     		ldrb	r0, [r4, #20]	@ zero_extendqisi2
 943 006c FFF7FEFF 		bl	__aeabi_i2d
 944              	.LVL140:
 945 0070 3246     		mov	r2, r6
 946 0072 3B46     		mov	r3, r7
 947 0074 FFF7FEFF 		bl	__aeabi_dadd
 948              	.LVL141:
 949 0078 FFF7FEFF 		bl	__aeabi_d2uiz
 950              	.LVL142:
 951 007c 2075     		strb	r0, [r4, #20]
 187:../../shields/gps-firefly/src/nmea.c ****     case 3: // Ddmm.mmmm
 952              		.loc 1 187 0
 953 007e 58E0     		b	.L74
 954              	.LVL143:
 955              	.L78:
 190:../../shields/gps-firefly/src/nmea.c ****       position.longitude.min += (b - '0') * pow(10, (4-pos));
 956              		.loc 1 190 0
 957 0080 A0F13002 		sub	r2, r0, #48
 958 0084 D2B2     		uxtb	r2, r2
 959 0086 092A     		cmp	r2, #9
 960 0088 03D9     		bls	.L85
 190:../../shields/gps-firefly/src/nmea.c ****       position.longitude.min += (b - '0') * pow(10, (4-pos));
 961              		.loc 1 190 0 is_stmt 0 discriminator 1
 962 008a 0020     		movs	r0, #0
 963              	.LVL144:
 964 008c 4A4B     		ldr	r3, .L92+8
 965 008e 1870     		strb	r0, [r3]
 966 0090 54E0     		b	.L73
 967              	.LVL145:
 968              	.L85:
 191:../../shields/gps-firefly/src/nmea.c ****       break;
 969              		.loc 1 191 0 is_stmt 1
 970 0092 A0F13006 		sub	r6, r0, #48
 971 0096 C3F10400 		rsb	r0, r3, #4
 972              	.LVL146:
 973 009a FFF7FEFF 		bl	__aeabi_i2d
 974              	.LVL147:
 975 009e 41EC110B 		vmov	d1, r0, r1
 976 00a2 9FED430B 		vldr.64	d0, .L92
 977 00a6 FFF7FEFF 		bl	pow
 978              	.LVL148:
 979 00aa 55EC104B 		vmov	r4, r5, d0
 980 00ae 3046     		mov	r0, r6
 981 00b0 FFF7FEFF 		bl	__aeabi_i2d
 982              	.LVL149:
 983 00b4 2246     		mov	r2, r4
 984 00b6 2B46     		mov	r3, r5
ARM GAS  /tmp/cc4TUd6U.s 			page 24


 985 00b8 FFF7FEFF 		bl	__aeabi_dmul
 986              	.LVL150:
 987 00bc 0646     		mov	r6, r0
 988 00be 0F46     		mov	r7, r1
 989 00c0 3E4C     		ldr	r4, .L92+12
 990 00c2 A069     		ldr	r0, [r4, #24]	@ float
 991 00c4 FFF7FEFF 		bl	__aeabi_f2d
 992              	.LVL151:
 993 00c8 3246     		mov	r2, r6
 994 00ca 3B46     		mov	r3, r7
 995 00cc FFF7FEFF 		bl	__aeabi_dadd
 996              	.LVL152:
 997 00d0 FFF7FEFF 		bl	__aeabi_d2f
 998              	.LVL153:
 999 00d4 A061     		str	r0, [r4, #24]	@ float
 192:../../shields/gps-firefly/src/nmea.c ****     case 5: break; // skip .
 1000              		.loc 1 192 0
 1001 00d6 2CE0     		b	.L74
 1002              	.LVL154:
 1003              	.L79:
 198:../../shields/gps-firefly/src/nmea.c ****       position.longitude.min += (b - '0') / pow(10, (pos - 5));
 1004              		.loc 1 198 0
 1005 00d8 A0F13002 		sub	r2, r0, #48
 1006 00dc D2B2     		uxtb	r2, r2
 1007 00de 092A     		cmp	r2, #9
 1008 00e0 03D9     		bls	.L86
 198:../../shields/gps-firefly/src/nmea.c ****       position.longitude.min += (b - '0') / pow(10, (pos - 5));
 1009              		.loc 1 198 0 is_stmt 0 discriminator 1
 1010 00e2 0020     		movs	r0, #0
 1011              	.LVL155:
 1012 00e4 344B     		ldr	r3, .L92+8
 1013 00e6 1870     		strb	r0, [r3]
 1014 00e8 28E0     		b	.L73
 1015              	.LVL156:
 1016              	.L86:
 199:../../shields/gps-firefly/src/nmea.c ****       break;
 1017              		.loc 1 199 0 is_stmt 1
 1018 00ea A0F13006 		sub	r6, r0, #48
 1019 00ee 581F     		subs	r0, r3, #5
 1020              	.LVL157:
 1021 00f0 FFF7FEFF 		bl	__aeabi_i2d
 1022              	.LVL158:
 1023 00f4 41EC110B 		vmov	d1, r0, r1
 1024 00f8 9FED2D0B 		vldr.64	d0, .L92
 1025 00fc FFF7FEFF 		bl	pow
 1026              	.LVL159:
 1027 0100 55EC104B 		vmov	r4, r5, d0
 1028 0104 3046     		mov	r0, r6
 1029 0106 FFF7FEFF 		bl	__aeabi_i2d
 1030              	.LVL160:
 1031 010a 2246     		mov	r2, r4
 1032 010c 2B46     		mov	r3, r5
 1033 010e FFF7FEFF 		bl	__aeabi_ddiv
 1034              	.LVL161:
 1035 0112 0646     		mov	r6, r0
 1036 0114 0F46     		mov	r7, r1
 1037 0116 294C     		ldr	r4, .L92+12
ARM GAS  /tmp/cc4TUd6U.s 			page 25


 1038 0118 A069     		ldr	r0, [r4, #24]	@ float
 1039 011a FFF7FEFF 		bl	__aeabi_f2d
 1040              	.LVL162:
 1041 011e 3246     		mov	r2, r6
 1042 0120 3B46     		mov	r3, r7
 1043 0122 FFF7FEFF 		bl	__aeabi_dadd
 1044              	.LVL163:
 1045 0126 FFF7FEFF 		bl	__aeabi_d2f
 1046              	.LVL164:
 1047 012a A061     		str	r0, [r4, #24]	@ float
 200:../../shields/gps-firefly/src/nmea.c ****     case 10:
 1048              		.loc 1 200 0
 1049 012c 01E0     		b	.L74
 1050              	.LVL165:
 1051              	.L80:
 202:../../shields/gps-firefly/src/nmea.c ****     	{
 1052              		.loc 1 202 0
 1053 012e 2C28     		cmp	r0, #44
 1054 0130 05D0     		beq	.L90
 1055              	.LVL166:
 1056              	.L74:
 221:../../shields/gps-firefly/src/nmea.c ****   return REPEAT;
 1057              		.loc 1 221 0
 1058 0132 214A     		ldr	r2, .L92+8
 1059 0134 1378     		ldrb	r3, [r2]	@ zero_extendqisi2
 1060 0136 0133     		adds	r3, r3, #1
 1061 0138 1370     		strb	r3, [r2]
 222:../../shields/gps-firefly/src/nmea.c **** }
 1062              		.loc 1 222 0
 1063 013a 0120     		movs	r0, #1
 1064              	.L73:
 223:../../shields/gps-firefly/src/nmea.c **** 
 1065              		.loc 1 223 0
 1066 013c F8BD     		pop	{r3, r4, r5, r6, r7, pc}
 1067              	.LVL167:
 1068              	.L90:
 204:../../shields/gps-firefly/src/nmea.c ****     		return OK;
 1069              		.loc 1 204 0
 1070 013e 1E4B     		ldr	r3, .L92+8
 1071 0140 0022     		movs	r2, #0
 1072 0142 1A70     		strb	r2, [r3]
 205:../../shields/gps-firefly/src/nmea.c ****     	}
 1073              		.loc 1 205 0
 1074 0144 0220     		movs	r0, #2
 1075              	.LVL168:
 1076 0146 F9E7     		b	.L73
 1077              	.LVL169:
 1078              	.L81:
 210:../../shields/gps-firefly/src/nmea.c ****     	position.longitude.min += (b - '0') / pow(10, (pos - 5));
 1079              		.loc 1 210 0
 1080 0148 A0F13002 		sub	r2, r0, #48
 1081 014c D2B2     		uxtb	r2, r2
 1082 014e 092A     		cmp	r2, #9
 1083 0150 03D9     		bls	.L87
 210:../../shields/gps-firefly/src/nmea.c ****     	position.longitude.min += (b - '0') / pow(10, (pos - 5));
 1084              		.loc 1 210 0 is_stmt 0 discriminator 1
 1085 0152 0020     		movs	r0, #0
ARM GAS  /tmp/cc4TUd6U.s 			page 26


 1086              	.LVL170:
 1087 0154 184B     		ldr	r3, .L92+8
 1088 0156 1870     		strb	r0, [r3]
 1089 0158 F0E7     		b	.L73
 1090              	.LVL171:
 1091              	.L87:
 211:../../shields/gps-firefly/src/nmea.c ****     	break;
 1092              		.loc 1 211 0 is_stmt 1
 1093 015a A0F13006 		sub	r6, r0, #48
 1094 015e 581F     		subs	r0, r3, #5
 1095              	.LVL172:
 1096 0160 FFF7FEFF 		bl	__aeabi_i2d
 1097              	.LVL173:
 1098 0164 41EC110B 		vmov	d1, r0, r1
 1099 0168 9FED110B 		vldr.64	d0, .L92
 1100 016c FFF7FEFF 		bl	pow
 1101              	.LVL174:
 1102 0170 55EC104B 		vmov	r4, r5, d0
 1103 0174 3046     		mov	r0, r6
 1104 0176 FFF7FEFF 		bl	__aeabi_i2d
 1105              	.LVL175:
 1106 017a 2246     		mov	r2, r4
 1107 017c 2B46     		mov	r3, r5
 1108 017e FFF7FEFF 		bl	__aeabi_ddiv
 1109              	.LVL176:
 1110 0182 0646     		mov	r6, r0
 1111 0184 0F46     		mov	r7, r1
 1112 0186 0D4C     		ldr	r4, .L92+12
 1113 0188 A069     		ldr	r0, [r4, #24]	@ float
 1114 018a FFF7FEFF 		bl	__aeabi_f2d
 1115              	.LVL177:
 1116 018e 3246     		mov	r2, r6
 1117 0190 3B46     		mov	r3, r7
 1118 0192 FFF7FEFF 		bl	__aeabi_dadd
 1119              	.LVL178:
 1120 0196 FFF7FEFF 		bl	__aeabi_d2f
 1121              	.LVL179:
 1122 019a A061     		str	r0, [r4, #24]	@ float
 212:../../shields/gps-firefly/src/nmea.c ****     case 12:
 1123              		.loc 1 212 0
 1124 019c C9E7     		b	.L74
 1125              	.LVL180:
 1126              	.L82:
 214:../../shields/gps-firefly/src/nmea.c ****           if (b == ',')
 1127              		.loc 1 214 0
 1128 019e 064B     		ldr	r3, .L92+8
 1129 01a0 0022     		movs	r2, #0
 1130 01a2 1A70     		strb	r2, [r3]
 215:../../shields/gps-firefly/src/nmea.c ****             return OK;
 1131              		.loc 1 215 0
 1132 01a4 2C28     		cmp	r0, #44
 1133 01a6 01D0     		beq	.L91
 218:../../shields/gps-firefly/src/nmea.c **** 
 1134              		.loc 1 218 0
 1135 01a8 0020     		movs	r0, #0
 1136              	.LVL181:
 1137 01aa C7E7     		b	.L73
ARM GAS  /tmp/cc4TUd6U.s 			page 27


 1138              	.LVL182:
 1139              	.L91:
 216:../../shields/gps-firefly/src/nmea.c ****           else
 1140              		.loc 1 216 0
 1141 01ac 0220     		movs	r0, #2
 1142              	.LVL183:
 1143 01ae C5E7     		b	.L73
 1144              	.L93:
 1145              		.align	3
 1146              	.L92:
 1147 01b0 00000000 		.word	0
 1148 01b4 00002440 		.word	1076101120
 1149 01b8 00000000 		.word	.LANCHOR4
 1150 01bc 00000000 		.word	.LANCHOR0
 1151              		.cfi_endproc
 1152              	.LFE9:
 1154              		.global	__aeabi_ui2d
 1155              		.section	.text.parse_hdop,"ax",%progbits
 1156              		.align	1
 1157              		.global	parse_hdop
 1158              		.syntax unified
 1159              		.thumb
 1160              		.thumb_func
 1161              		.fpu fpv4-sp-d16
 1163              	parse_hdop:
 1164              	.LFB13:
 267:../../shields/gps-firefly/src/nmea.c **** 
 268:../../shields/gps-firefly/src/nmea.c **** int parse_hdop(uint8_t b) {
 1165              		.loc 1 268 0
 1166              		.cfi_startproc
 1167              		@ args = 0, pretend = 0, frame = 0
 1168              		@ frame_needed = 0, uses_anonymous_args = 0
 1169              	.LVL184:
 1170 0000 F8B5     		push	{r3, r4, r5, r6, r7, lr}
 1171              	.LCFI3:
 1172              		.cfi_def_cfa_offset 24
 1173              		.cfi_offset 3, -24
 1174              		.cfi_offset 4, -20
 1175              		.cfi_offset 5, -16
 1176              		.cfi_offset 6, -12
 1177              		.cfi_offset 7, -8
 1178              		.cfi_offset 14, -4
 269:../../shields/gps-firefly/src/nmea.c **** 	static uint8_t pos = 0;
 270:../../shields/gps-firefly/src/nmea.c **** 	static uint8_t dec = 0;
 271:../../shields/gps-firefly/src/nmea.c **** 
 272:../../shields/gps-firefly/src/nmea.c **** 	if (b == ',')
 1179              		.loc 1 272 0
 1180 0002 2C28     		cmp	r0, #44
 1181 0004 20D0     		beq	.L102
 273:../../shields/gps-firefly/src/nmea.c **** 	{
 274:../../shields/gps-firefly/src/nmea.c **** 		pos = 0;
 275:../../shields/gps-firefly/src/nmea.c **** 		dec = 0;
 276:../../shields/gps-firefly/src/nmea.c **** 		// full parse, store current position
 277:../../shields/gps-firefly/src/nmea.c **** 		current_position = position;
 278:../../shields/gps-firefly/src/nmea.c **** 		return OK;
 279:../../shields/gps-firefly/src/nmea.c **** 	}
 280:../../shields/gps-firefly/src/nmea.c **** 
ARM GAS  /tmp/cc4TUd6U.s 			page 28


 281:../../shields/gps-firefly/src/nmea.c **** 	if (b == '.')
 1182              		.loc 1 281 0
 1183 0006 2E28     		cmp	r0, #46
 1184 0008 2FD0     		beq	.L103
 282:../../shields/gps-firefly/src/nmea.c **** 	{
 283:../../shields/gps-firefly/src/nmea.c **** 		dec = 1;
 284:../../shields/gps-firefly/src/nmea.c **** 		return REPEAT;
 285:../../shields/gps-firefly/src/nmea.c **** 	}
 286:../../shields/gps-firefly/src/nmea.c **** 
 287:../../shields/gps-firefly/src/nmea.c **** 	if(b < '0' || b > '9') { pos = 0; return FAIL; }
 1185              		.loc 1 287 0
 1186 000a A0F13003 		sub	r3, r0, #48
 1187 000e DBB2     		uxtb	r3, r3
 1188 0010 092B     		cmp	r3, #9
 1189 0012 2ED8     		bhi	.L104
 288:../../shields/gps-firefly/src/nmea.c **** 
 289:../../shields/gps-firefly/src/nmea.c **** 	if (pos == 0)
 1190              		.loc 1 289 0
 1191 0014 344B     		ldr	r3, .L106+8
 1192 0016 1B78     		ldrb	r3, [r3]	@ zero_extendqisi2
 1193 0018 7BB3     		cbz	r3, .L105
 290:../../shields/gps-firefly/src/nmea.c **** 	{
 291:../../shields/gps-firefly/src/nmea.c **** 		position.hdop = (b - '0');
 292:../../shields/gps-firefly/src/nmea.c **** 		pos = 1;
 293:../../shields/gps-firefly/src/nmea.c **** 	} else {
 294:../../shields/gps-firefly/src/nmea.c **** 		if (dec == 0)
 1194              		.loc 1 294 0
 1195 001a 344B     		ldr	r3, .L106+12
 1196 001c 1B78     		ldrb	r3, [r3]	@ zero_extendqisi2
 1197 001e 002B     		cmp	r3, #0
 1198 0020 37D1     		bne	.L100
 295:../../shields/gps-firefly/src/nmea.c **** 		{
 296:../../shields/gps-firefly/src/nmea.c **** 			position.hdop *= 10;
 1199              		.loc 1 296 0
 1200 0022 334B     		ldr	r3, .L106+16
 1201 0024 D3ED097A 		vldr.32	s15, [r3, #36]
 1202 0028 B2EE047A 		vmov.f32	s14, #1.0e+1
 1203 002c 27EE877A 		vmul.f32	s14, s15, s14
 297:../../shields/gps-firefly/src/nmea.c **** 			position.hdop += (b - '0');
 1204              		.loc 1 297 0
 1205 0030 A0F13002 		sub	r2, r0, #48
 1206 0034 07EE902A 		vmov	s15, r2	@ int
 1207 0038 F8EEE77A 		vcvt.f32.s32	s15, s15
 1208 003c 77EE877A 		vadd.f32	s15, s15, s14
 1209 0040 C3ED097A 		vstr.32	s15, [r3, #36]
 298:../../shields/gps-firefly/src/nmea.c **** 		} else {
 299:../../shields/gps-firefly/src/nmea.c **** 			position.hdop += (b - '0') / pow(10, dec);
 300:../../shields/gps-firefly/src/nmea.c **** 			dec++;
 301:../../shields/gps-firefly/src/nmea.c **** 		}
 302:../../shields/gps-firefly/src/nmea.c **** 	}
 303:../../shields/gps-firefly/src/nmea.c **** 
 304:../../shields/gps-firefly/src/nmea.c **** 	return REPEAT;
 1210              		.loc 1 304 0
 1211 0044 0120     		movs	r0, #1
 1212              	.LVL185:
 1213 0046 17E0     		b	.L94
 1214              	.LVL186:
ARM GAS  /tmp/cc4TUd6U.s 			page 29


 1215              	.L102:
 274:../../shields/gps-firefly/src/nmea.c **** 		dec = 0;
 1216              		.loc 1 274 0
 1217 0048 0023     		movs	r3, #0
 1218 004a 274A     		ldr	r2, .L106+8
 1219 004c 1370     		strb	r3, [r2]
 275:../../shields/gps-firefly/src/nmea.c **** 		// full parse, store current position
 1220              		.loc 1 275 0
 1221 004e 274A     		ldr	r2, .L106+12
 1222 0050 1370     		strb	r3, [r2]
 277:../../shields/gps-firefly/src/nmea.c **** 		return OK;
 1223              		.loc 1 277 0
 1224 0052 284C     		ldr	r4, .L106+20
 1225 0054 264D     		ldr	r5, .L106+16
 1226 0056 0FCD     		ldmia	r5!, {r0, r1, r2, r3}
 1227              	.LVL187:
 1228 0058 0FC4     		stmia	r4!, {r0, r1, r2, r3}
 1229 005a 0FCD     		ldmia	r5!, {r0, r1, r2, r3}
 1230 005c 0FC4     		stmia	r4!, {r0, r1, r2, r3}
 1231 005e 95E80700 		ldm	r5, {r0, r1, r2}
 1232 0062 84E80700 		stm	r4, {r0, r1, r2}
 278:../../shields/gps-firefly/src/nmea.c **** 	}
 1233              		.loc 1 278 0
 1234 0066 0220     		movs	r0, #2
 1235 0068 06E0     		b	.L94
 1236              	.LVL188:
 1237              	.L103:
 283:../../shields/gps-firefly/src/nmea.c **** 		return REPEAT;
 1238              		.loc 1 283 0
 1239 006a 0120     		movs	r0, #1
 1240              	.LVL189:
 1241 006c 1F4B     		ldr	r3, .L106+12
 1242 006e 1870     		strb	r0, [r3]
 284:../../shields/gps-firefly/src/nmea.c **** 	}
 1243              		.loc 1 284 0
 1244 0070 02E0     		b	.L94
 1245              	.LVL190:
 1246              	.L104:
 287:../../shields/gps-firefly/src/nmea.c **** 
 1247              		.loc 1 287 0 discriminator 1
 1248 0072 0020     		movs	r0, #0
 1249              	.LVL191:
 1250 0074 1C4B     		ldr	r3, .L106+8
 1251 0076 1870     		strb	r0, [r3]
 1252              	.L94:
 305:../../shields/gps-firefly/src/nmea.c **** }
 1253              		.loc 1 305 0
 1254 0078 F8BD     		pop	{r3, r4, r5, r6, r7, pc}
 1255              	.LVL192:
 1256              	.L105:
 291:../../shields/gps-firefly/src/nmea.c **** 		pos = 1;
 1257              		.loc 1 291 0
 1258 007a 3038     		subs	r0, r0, #48
 1259              	.LVL193:
 1260 007c 07EE900A 		vmov	s15, r0	@ int
 1261 0080 F8EEE77A 		vcvt.f32.s32	s15, s15
 1262 0084 1A4B     		ldr	r3, .L106+16
ARM GAS  /tmp/cc4TUd6U.s 			page 30


 1263 0086 C3ED097A 		vstr.32	s15, [r3, #36]
 292:../../shields/gps-firefly/src/nmea.c **** 	} else {
 1264              		.loc 1 292 0
 1265 008a 0120     		movs	r0, #1
 1266 008c 164B     		ldr	r3, .L106+8
 1267 008e 1870     		strb	r0, [r3]
 1268 0090 F2E7     		b	.L94
 1269              	.LVL194:
 1270              	.L100:
 299:../../shields/gps-firefly/src/nmea.c **** 			dec++;
 1271              		.loc 1 299 0
 1272 0092 A0F13004 		sub	r4, r0, #48
 1273 0096 1846     		mov	r0, r3
 1274              	.LVL195:
 1275 0098 FFF7FEFF 		bl	__aeabi_ui2d
 1276              	.LVL196:
 1277 009c 41EC110B 		vmov	d1, r0, r1
 1278 00a0 9FED0F0B 		vldr.64	d0, .L106
 1279 00a4 FFF7FEFF 		bl	pow
 1280              	.LVL197:
 1281 00a8 57EC106B 		vmov	r6, r7, d0
 1282 00ac 2046     		mov	r0, r4
 1283 00ae FFF7FEFF 		bl	__aeabi_i2d
 1284              	.LVL198:
 1285 00b2 3246     		mov	r2, r6
 1286 00b4 3B46     		mov	r3, r7
 1287 00b6 FFF7FEFF 		bl	__aeabi_ddiv
 1288              	.LVL199:
 1289 00ba 0646     		mov	r6, r0
 1290 00bc 0F46     		mov	r7, r1
 1291 00be 0C4C     		ldr	r4, .L106+16
 1292 00c0 606A     		ldr	r0, [r4, #36]	@ float
 1293 00c2 FFF7FEFF 		bl	__aeabi_f2d
 1294              	.LVL200:
 1295 00c6 3246     		mov	r2, r6
 1296 00c8 3B46     		mov	r3, r7
 1297 00ca FFF7FEFF 		bl	__aeabi_dadd
 1298              	.LVL201:
 1299 00ce FFF7FEFF 		bl	__aeabi_d2f
 1300              	.LVL202:
 1301 00d2 6062     		str	r0, [r4, #36]	@ float
 300:../../shields/gps-firefly/src/nmea.c **** 		}
 1302              		.loc 1 300 0
 1303 00d4 054A     		ldr	r2, .L106+12
 1304 00d6 1378     		ldrb	r3, [r2]	@ zero_extendqisi2
 1305 00d8 0133     		adds	r3, r3, #1
 1306 00da 1370     		strb	r3, [r2]
 304:../../shields/gps-firefly/src/nmea.c **** }
 1307              		.loc 1 304 0
 1308 00dc 0120     		movs	r0, #1
 1309 00de CBE7     		b	.L94
 1310              	.L107:
 1311              		.align	3
 1312              	.L106:
 1313 00e0 00000000 		.word	0
 1314 00e4 00002440 		.word	1076101120
 1315 00e8 00000000 		.word	.LANCHOR5
ARM GAS  /tmp/cc4TUd6U.s 			page 31


 1316 00ec 00000000 		.word	.LANCHOR6
 1317 00f0 00000000 		.word	.LANCHOR0
 1318 00f4 00000000 		.word	.LANCHOR7
 1319              		.cfi_endproc
 1320              	.LFE13:
 1322              		.section	.text.nmea_get_position,"ax",%progbits
 1323              		.align	1
 1324              		.global	nmea_get_position
 1325              		.syntax unified
 1326              		.thumb
 1327              		.thumb_func
 1328              		.fpu fpv4-sp-d16
 1330              	nmea_get_position:
 1331              	.LFB0:
  17:../../shields/gps-firefly/src/nmea.c **** uint8_t nmea_have_position()           { return current_position.quality > 0; }
 1332              		.loc 1 17 0
 1333              		.cfi_startproc
 1334              		@ args = 0, pretend = 0, frame = 0
 1335              		@ frame_needed = 0, uses_anonymous_args = 0
 1336              		@ link register save eliminated.
 1337              	.LVL203:
 1338 0000 70B4     		push	{r4, r5, r6}
 1339              	.LCFI4:
 1340              		.cfi_def_cfa_offset 12
 1341              		.cfi_offset 4, -12
 1342              		.cfi_offset 5, -8
 1343              		.cfi_offset 6, -4
 1344 0002 0646     		mov	r6, r0
  17:../../shields/gps-firefly/src/nmea.c **** uint8_t nmea_have_position()           { return current_position.quality > 0; }
 1345              		.loc 1 17 0
 1346 0004 0446     		mov	r4, r0
 1347 0006 064D     		ldr	r5, .L110
 1348 0008 0FCD     		ldmia	r5!, {r0, r1, r2, r3}
 1349              	.LVL204:
 1350 000a 0FC4     		stmia	r4!, {r0, r1, r2, r3}
 1351              	.LVL205:
 1352 000c 0FCD     		ldmia	r5!, {r0, r1, r2, r3}
 1353 000e 0FC4     		stmia	r4!, {r0, r1, r2, r3}
 1354 0010 95E80700 		ldm	r5, {r0, r1, r2}
 1355 0014 84E80700 		stm	r4, {r0, r1, r2}
 1356 0018 3046     		mov	r0, r6
 1357 001a 70BC     		pop	{r4, r5, r6}
 1358              	.LCFI5:
 1359              		.cfi_restore 6
 1360              		.cfi_restore 5
 1361              		.cfi_restore 4
 1362              		.cfi_def_cfa_offset 0
 1363              	.LVL206:
 1364 001c 7047     		bx	lr
 1365              	.L111:
 1366 001e 00BF     		.align	2
 1367              	.L110:
 1368 0020 00000000 		.word	.LANCHOR7
 1369              		.cfi_endproc
 1370              	.LFE0:
 1372              		.section	.text.nmea_have_position,"ax",%progbits
 1373              		.align	1
ARM GAS  /tmp/cc4TUd6U.s 			page 32


 1374              		.global	nmea_have_position
 1375              		.syntax unified
 1376              		.thumb
 1377              		.thumb_func
 1378              		.fpu fpv4-sp-d16
 1380              	nmea_have_position:
 1381              	.LFB1:
  18:../../shields/gps-firefly/src/nmea.c **** 
 1382              		.loc 1 18 0
 1383              		.cfi_startproc
 1384              		@ args = 0, pretend = 0, frame = 0
 1385              		@ frame_needed = 0, uses_anonymous_args = 0
 1386              		@ link register save eliminated.
  18:../../shields/gps-firefly/src/nmea.c **** 
 1387              		.loc 1 18 0
 1388 0000 034B     		ldr	r3, .L113
 1389 0002 93F82000 		ldrb	r0, [r3, #32]	@ zero_extendqisi2
 1390 0006 0030     		adds	r0, r0, #0
 1391 0008 18BF     		it	ne
 1392 000a 0120     		movne	r0, #1
 1393 000c 7047     		bx	lr
 1394              	.L114:
 1395 000e 00BF     		.align	2
 1396              	.L113:
 1397 0010 00000000 		.word	.LANCHOR7
 1398              		.cfi_endproc
 1399              	.LFE1:
 1401              		.section	.text._reset_position,"ax",%progbits
 1402              		.align	1
 1403              		.global	_reset_position
 1404              		.syntax unified
 1405              		.thumb
 1406              		.thumb_func
 1407              		.fpu fpv4-sp-d16
 1409              	_reset_position:
 1410              	.LFB2:
  20:../../shields/gps-firefly/src/nmea.c ****   position.time.hour     = 0;
 1411              		.loc 1 20 0
 1412              		.cfi_startproc
 1413              		@ args = 0, pretend = 0, frame = 0
 1414              		@ frame_needed = 0, uses_anonymous_args = 0
 1415              		@ link register save eliminated.
  21:../../shields/gps-firefly/src/nmea.c ****   position.time.min      = 0;
 1416              		.loc 1 21 0
 1417 0000 074B     		ldr	r3, .L116
 1418 0002 0022     		movs	r2, #0
 1419 0004 1A70     		strb	r2, [r3]
  22:../../shields/gps-firefly/src/nmea.c ****   position.time.sec      = 0;
 1420              		.loc 1 22 0
 1421 0006 5A70     		strb	r2, [r3, #1]
  23:../../shields/gps-firefly/src/nmea.c ****   position.latitude.deg  = 0;
 1422              		.loc 1 23 0
 1423 0008 0021     		movs	r1, #0
 1424 000a 5960     		str	r1, [r3, #4]	@ float
  24:../../shields/gps-firefly/src/nmea.c ****   position.latitude.min  = 0;
 1425              		.loc 1 24 0
 1426 000c 1A72     		strb	r2, [r3, #8]
ARM GAS  /tmp/cc4TUd6U.s 			page 33


  25:../../shields/gps-firefly/src/nmea.c ****   position.latitude.ns   = '_';
 1427              		.loc 1 25 0
 1428 000e D960     		str	r1, [r3, #12]	@ float
  26:../../shields/gps-firefly/src/nmea.c ****   position.longitude.deg = 0;
 1429              		.loc 1 26 0
 1430 0010 5F20     		movs	r0, #95
 1431 0012 1874     		strb	r0, [r3, #16]
  27:../../shields/gps-firefly/src/nmea.c ****   position.longitude.min = 0;
 1432              		.loc 1 27 0
 1433 0014 1A75     		strb	r2, [r3, #20]
  28:../../shields/gps-firefly/src/nmea.c ****   position.longitude.ew  = '_';
 1434              		.loc 1 28 0
 1435 0016 9961     		str	r1, [r3, #24]	@ float
  29:../../shields/gps-firefly/src/nmea.c ****   position.quality=0;
 1436              		.loc 1 29 0
 1437 0018 1877     		strb	r0, [r3, #28]
  30:../../shields/gps-firefly/src/nmea.c **** }
 1438              		.loc 1 30 0
 1439 001a 83F82020 		strb	r2, [r3, #32]
  31:../../shields/gps-firefly/src/nmea.c **** void _reset_position2(void) {
 1440              		.loc 1 31 0
 1441 001e 7047     		bx	lr
 1442              	.L117:
 1443              		.align	2
 1444              	.L116:
 1445 0020 00000000 		.word	.LANCHOR0
 1446              		.cfi_endproc
 1447              	.LFE2:
 1449              		.section	.text.parse_gngga,"ax",%progbits
 1450              		.align	1
 1451              		.global	parse_gngga
 1452              		.syntax unified
 1453              		.thumb
 1454              		.thumb_func
 1455              		.fpu fpv4-sp-d16
 1457              	parse_gngga:
 1458              	.LFB5:
  57:../../shields/gps-firefly/src/nmea.c ****   static uint8_t pos = 0;
 1459              		.loc 1 57 0
 1460              		.cfi_startproc
 1461              		@ args = 0, pretend = 0, frame = 8
 1462              		@ frame_needed = 0, uses_anonymous_args = 0
 1463              	.LVL207:
 1464 0000 00B5     		push	{lr}
 1465              	.LCFI6:
 1466              		.cfi_def_cfa_offset 4
 1467              		.cfi_offset 14, -4
 1468 0002 83B0     		sub	sp, sp, #12
 1469              	.LCFI7:
 1470              		.cfi_def_cfa_offset 16
 1471 0004 0246     		mov	r2, r0
  59:../../shields/gps-firefly/src/nmea.c **** 
 1472              		.loc 1 59 0
 1473 0006 124B     		ldr	r3, .L125
 1474 0008 93E80300 		ldm	r3, {r0, r1}
 1475              	.LVL208:
 1476 000c 0090     		str	r0, [sp]
ARM GAS  /tmp/cc4TUd6U.s 			page 34


 1477 000e ADF80410 		strh	r1, [sp, #4]	@ movhi
 1478 0012 090C     		lsrs	r1, r1, #16
 1479 0014 8DF80610 		strb	r1, [sp, #6]
  62:../../shields/gps-firefly/src/nmea.c ****     if(pos == 5) {
 1480              		.loc 1 62 0
 1481 0018 0E4B     		ldr	r3, .L125+4
 1482 001a 1B78     		ldrb	r3, [r3]	@ zero_extendqisi2
 1483 001c 02A9     		add	r1, sp, #8
 1484 001e 1944     		add	r1, r1, r3
 1485 0020 11F8081C 		ldrb	r1, [r1, #-8]	@ zero_extendqisi2
 1486 0024 9142     		cmp	r1, r2
 1487 0026 05D0     		beq	.L123
  72:../../shields/gps-firefly/src/nmea.c ****   return FAIL;
 1488              		.loc 1 72 0
 1489 0028 0020     		movs	r0, #0
 1490 002a 0A4B     		ldr	r3, .L125+4
 1491 002c 1870     		strb	r0, [r3]
 1492              	.L118:
  74:../../shields/gps-firefly/src/nmea.c **** 
 1493              		.loc 1 74 0
 1494 002e 03B0     		add	sp, sp, #12
 1495              	.LCFI8:
 1496              		.cfi_remember_state
 1497              		.cfi_def_cfa_offset 4
 1498              		@ sp needed
 1499 0030 5DF804FB 		ldr	pc, [sp], #4
 1500              	.L123:
 1501              	.LCFI9:
 1502              		.cfi_restore_state
  63:../../shields/gps-firefly/src/nmea.c ****       pos = 0;
 1503              		.loc 1 63 0
 1504 0034 052B     		cmp	r3, #5
 1505 0036 04D0     		beq	.L124
  68:../../shields/gps-firefly/src/nmea.c ****       return REPEAT;
 1506              		.loc 1 68 0
 1507 0038 0133     		adds	r3, r3, #1
 1508 003a 064A     		ldr	r2, .L125+4
 1509 003c 1370     		strb	r3, [r2]
  69:../../shields/gps-firefly/src/nmea.c ****     }
 1510              		.loc 1 69 0
 1511 003e 0120     		movs	r0, #1
 1512 0040 F5E7     		b	.L118
 1513              	.L124:
  64:../../shields/gps-firefly/src/nmea.c ****       _reset_position();
 1514              		.loc 1 64 0
 1515 0042 044B     		ldr	r3, .L125+4
 1516 0044 0022     		movs	r2, #0
 1517 0046 1A70     		strb	r2, [r3]
  65:../../shields/gps-firefly/src/nmea.c ****       return OK;
 1518              		.loc 1 65 0
 1519 0048 FFF7FEFF 		bl	_reset_position
 1520              	.LVL209:
  66:../../shields/gps-firefly/src/nmea.c ****     } else {
 1521              		.loc 1 66 0
 1522 004c 0220     		movs	r0, #2
 1523 004e EEE7     		b	.L118
 1524              	.L126:
ARM GAS  /tmp/cc4TUd6U.s 			page 35


 1525              		.align	2
 1526              	.L125:
 1527 0050 00000000 		.word	.LC0
 1528 0054 00000000 		.word	.LANCHOR8
 1529              		.cfi_endproc
 1530              	.LFE5:
 1532              		.section	.text._reset_position2,"ax",%progbits
 1533              		.align	1
 1534              		.global	_reset_position2
 1535              		.syntax unified
 1536              		.thumb
 1537              		.thumb_func
 1538              		.fpu fpv4-sp-d16
 1540              	_reset_position2:
 1541              	.LFB3:
  32:../../shields/gps-firefly/src/nmea.c **** 	current_position.time.hour     = 0;
 1542              		.loc 1 32 0
 1543              		.cfi_startproc
 1544              		@ args = 0, pretend = 0, frame = 0
 1545              		@ frame_needed = 0, uses_anonymous_args = 0
 1546              		@ link register save eliminated.
  33:../../shields/gps-firefly/src/nmea.c **** 	current_position.time.min      = 0;
 1547              		.loc 1 33 0
 1548 0000 074B     		ldr	r3, .L128
 1549 0002 0022     		movs	r2, #0
 1550 0004 1A70     		strb	r2, [r3]
  34:../../shields/gps-firefly/src/nmea.c **** 	current_position.time.sec      = 0;
 1551              		.loc 1 34 0
 1552 0006 5A70     		strb	r2, [r3, #1]
  35:../../shields/gps-firefly/src/nmea.c **** 	current_position.latitude.deg  = 0;
 1553              		.loc 1 35 0
 1554 0008 0021     		movs	r1, #0
 1555 000a 5960     		str	r1, [r3, #4]	@ float
  36:../../shields/gps-firefly/src/nmea.c **** 	current_position.latitude.min  = 0;
 1556              		.loc 1 36 0
 1557 000c 1A72     		strb	r2, [r3, #8]
  37:../../shields/gps-firefly/src/nmea.c **** 	current_position.latitude.ns   = '_';
 1558              		.loc 1 37 0
 1559 000e D960     		str	r1, [r3, #12]	@ float
  38:../../shields/gps-firefly/src/nmea.c **** 	current_position.longitude.deg = 0;
 1560              		.loc 1 38 0
 1561 0010 5F20     		movs	r0, #95
 1562 0012 1874     		strb	r0, [r3, #16]
  39:../../shields/gps-firefly/src/nmea.c ****   current_position.longitude.min = 0;
 1563              		.loc 1 39 0
 1564 0014 1A75     		strb	r2, [r3, #20]
  40:../../shields/gps-firefly/src/nmea.c ****   current_position.longitude.ew  = '_';
 1565              		.loc 1 40 0
 1566 0016 9961     		str	r1, [r3, #24]	@ float
  41:../../shields/gps-firefly/src/nmea.c ****   current_position.quality=0;
 1567              		.loc 1 41 0
 1568 0018 1877     		strb	r0, [r3, #28]
  42:../../shields/gps-firefly/src/nmea.c **** }
 1569              		.loc 1 42 0
 1570 001a 83F82020 		strb	r2, [r3, #32]
  43:../../shields/gps-firefly/src/nmea.c **** 
 1571              		.loc 1 43 0
ARM GAS  /tmp/cc4TUd6U.s 			page 36


 1572 001e 7047     		bx	lr
 1573              	.L129:
 1574              		.align	2
 1575              	.L128:
 1576 0020 00000000 		.word	.LANCHOR7
 1577              		.cfi_endproc
 1578              	.LFE3:
 1580              		.section	.text.nmea_parse,"ax",%progbits
 1581              		.align	1
 1582              		.global	nmea_parse
 1583              		.syntax unified
 1584              		.thumb
 1585              		.thumb_func
 1586              		.fpu fpv4-sp-d16
 1588              	nmea_parse:
 1589              	.LFB14:
 306:../../shields/gps-firefly/src/nmea.c **** 
 307:../../shields/gps-firefly/src/nmea.c **** // function pointer for state_handlers
 308:../../shields/gps-firefly/src/nmea.c **** typedef int (* state_handler)(uint8_t);
 309:../../shields/gps-firefly/src/nmea.c **** 
 310:../../shields/gps-firefly/src/nmea.c **** enum state {
 311:../../shields/gps-firefly/src/nmea.c ****   start_state,
 312:../../shields/gps-firefly/src/nmea.c ****   gngga_state,
 313:../../shields/gps-firefly/src/nmea.c ****   time_state,
 314:../../shields/gps-firefly/src/nmea.c ****   latitude_state,
 315:../../shields/gps-firefly/src/nmea.c ****   ns_ind_state,
 316:../../shields/gps-firefly/src/nmea.c ****   longitude_state,
 317:../../shields/gps-firefly/src/nmea.c ****   ew_ind_state,
 318:../../shields/gps-firefly/src/nmea.c ****   quality_state,
 319:../../shields/gps-firefly/src/nmea.c ****   nr_sat_state,
 320:../../shields/gps-firefly/src/nmea.c ****   hdop_state
 321:../../shields/gps-firefly/src/nmea.c **** };
 322:../../shields/gps-firefly/src/nmea.c **** 
 323:../../shields/gps-firefly/src/nmea.c **** struct transition {
 324:../../shields/gps-firefly/src/nmea.c ****   state_handler handler;
 325:../../shields/gps-firefly/src/nmea.c ****   int result[3];
 326:../../shields/gps-firefly/src/nmea.c **** };
 327:../../shields/gps-firefly/src/nmea.c **** 
 328:../../shields/gps-firefly/src/nmea.c **** static struct transition transitions[] = {
 329:../../shields/gps-firefly/src/nmea.c ****   /* in state              what to look for   FAIL         REPEAT            OK               */
 330:../../shields/gps-firefly/src/nmea.c ****   /* -------------------   ----------------   -----------  ----------------  ---------------  */
 331:../../shields/gps-firefly/src/nmea.c ****   /* start_state */      { find_start,      { start_state, start_state,      gngga_state     } },
 332:../../shields/gps-firefly/src/nmea.c ****   /* gngga_state */      { parse_gngga,     { start_state, gngga_state,      time_state      } },
 333:../../shields/gps-firefly/src/nmea.c ****   /* time_state */       { parse_time,      { start_state, time_state,       latitude_state  } },
 334:../../shields/gps-firefly/src/nmea.c ****   /* latitude_state */   { parse_latitude,  { start_state, latitude_state,   ns_ind_state    } },
 335:../../shields/gps-firefly/src/nmea.c ****   /* ns_ind_state */     { parse_ns_ind,    { start_state, ns_ind_state,     longitude_state } },
 336:../../shields/gps-firefly/src/nmea.c ****   /* longitude_state */  { parse_longitude, { start_state, longitude_state,  ew_ind_state    } },
 337:../../shields/gps-firefly/src/nmea.c ****   /* ew_ind_state */     { parse_ew_ind,    { start_state, ew_ind_state,     quality_state   } },
 338:../../shields/gps-firefly/src/nmea.c ****   /* quality_state */    { parse_quality,   { start_state, quality_state,    nr_sat_state    } },
 339:../../shields/gps-firefly/src/nmea.c ****   /* nr_sat_state */     { parse_nr_sats,   { start_state, nr_sat_state,     hdop_state      } },
 340:../../shields/gps-firefly/src/nmea.c ****   /* hdop_state */       { parse_hdop,      { start_state, hdop_state,       start_state     } }
 341:../../shields/gps-firefly/src/nmea.c **** };
 342:../../shields/gps-firefly/src/nmea.c **** 
 343:../../shields/gps-firefly/src/nmea.c **** static int current_state = start_state;
 344:../../shields/gps-firefly/src/nmea.c ****   
 345:../../shields/gps-firefly/src/nmea.c **** void nmea_parse(uint8_t b) {
 1590              		.loc 1 345 0
ARM GAS  /tmp/cc4TUd6U.s 			page 37


 1591              		.cfi_startproc
 1592              		@ args = 0, pretend = 0, frame = 0
 1593              		@ frame_needed = 0, uses_anonymous_args = 0
 1594              	.LVL210:
 346:../../shields/gps-firefly/src/nmea.c ****   if(b == '\n' || b == '\r') {   // IGNORES
 1595              		.loc 1 346 0
 1596 0000 0A28     		cmp	r0, #10
 1597 0002 10D0     		beq	.L133
 1598              		.loc 1 346 0 is_stmt 0 discriminator 1
 1599 0004 0D28     		cmp	r0, #13
 1600 0006 0ED0     		beq	.L133
 345:../../shields/gps-firefly/src/nmea.c ****   if(b == '\n' || b == '\r') {   // IGNORES
 1601              		.loc 1 345 0 is_stmt 1
 1602 0008 38B5     		push	{r3, r4, r5, lr}
 1603              	.LCFI10:
 1604              		.cfi_def_cfa_offset 16
 1605              		.cfi_offset 3, -16
 1606              		.cfi_offset 4, -12
 1607              		.cfi_offset 5, -8
 1608              		.cfi_offset 14, -4
 347:../../shields/gps-firefly/src/nmea.c ****     return;
 348:../../shields/gps-firefly/src/nmea.c ****   }
 349:../../shields/gps-firefly/src/nmea.c ****   int outcome   = transitions[current_state].handler(b);
 1609              		.loc 1 349 0
 1610 000a 074C     		ldr	r4, .L136
 1611 000c 074D     		ldr	r5, .L136+4
 1612 000e 2B68     		ldr	r3, [r5]
 1613 0010 1B01     		lsls	r3, r3, #4
 1614 0012 E358     		ldr	r3, [r4, r3]
 1615 0014 9847     		blx	r3
 1616              	.LVL211:
 350:../../shields/gps-firefly/src/nmea.c ****   current_state = transitions[current_state].result[outcome];
 1617              		.loc 1 350 0
 1618 0016 2B68     		ldr	r3, [r5]
 1619 0018 00EB8300 		add	r0, r0, r3, lsl #2
 1620              	.LVL212:
 1621 001c 04EB8004 		add	r4, r4, r0, lsl #2
 1622 0020 6368     		ldr	r3, [r4, #4]
 1623 0022 2B60     		str	r3, [r5]
 351:../../shields/gps-firefly/src/nmea.c **** }
 1624              		.loc 1 351 0
 1625 0024 38BD     		pop	{r3, r4, r5, pc}
 1626              	.LVL213:
 1627              	.L133:
 1628              	.LCFI11:
 1629              		.cfi_def_cfa_offset 0
 1630              		.cfi_restore 3
 1631              		.cfi_restore 4
 1632              		.cfi_restore 5
 1633              		.cfi_restore 14
 1634 0026 7047     		bx	lr
 1635              	.L137:
 1636              		.align	2
 1637              	.L136:
 1638 0028 00000000 		.word	.LANCHOR9
 1639 002c 00000000 		.word	.LANCHOR10
 1640              		.cfi_endproc
ARM GAS  /tmp/cc4TUd6U.s 			page 38


 1641              	.LFE14:
 1643              		.section	.bss.current_position,"aw",%nobits
 1644              		.align	2
 1645              		.set	.LANCHOR7,. + 0
 1648              	current_position:
 1649 0000 00000000 		.space	44
 1649      00000000 
 1649      00000000 
 1649      00000000 
 1649      00000000 
 1650              		.section	.bss.current_state,"aw",%nobits
 1651              		.align	2
 1652              		.set	.LANCHOR10,. + 0
 1655              	current_state:
 1656 0000 00000000 		.space	4
 1657              		.section	.bss.dec.6668,"aw",%nobits
 1658              		.set	.LANCHOR6,. + 0
 1661              	dec.6668:
 1662 0000 00       		.space	1
 1663              		.section	.bss.pos.6598,"aw",%nobits
 1664              		.set	.LANCHOR8,. + 0
 1667              	pos.6598:
 1668 0000 00       		.space	1
 1669              		.section	.bss.pos.6603,"aw",%nobits
 1670              		.set	.LANCHOR2,. + 0
 1673              	pos.6603:
 1674 0000 00       		.space	1
 1675              		.section	.bss.pos.6619,"aw",%nobits
 1676              		.set	.LANCHOR3,. + 0
 1679              	pos.6619:
 1680 0000 00       		.space	1
 1681              		.section	.bss.pos.6639,"aw",%nobits
 1682              		.set	.LANCHOR4,. + 0
 1685              	pos.6639:
 1686 0000 00       		.space	1
 1687              		.section	.bss.pos.6663,"aw",%nobits
 1688              		.set	.LANCHOR1,. + 0
 1691              	pos.6663:
 1692 0000 00       		.space	1
 1693              		.section	.bss.pos.6667,"aw",%nobits
 1694              		.set	.LANCHOR5,. + 0
 1697              	pos.6667:
 1698 0000 00       		.space	1
 1699              		.section	.bss.position,"aw",%nobits
 1700              		.align	2
 1701              		.set	.LANCHOR0,. + 0
 1704              	position:
 1705 0000 00000000 		.space	44
 1705      00000000 
 1705      00000000 
 1705      00000000 
 1705      00000000 
 1706              		.section	.rodata.parse_gngga.str1.4,"aMS",%progbits,1
 1707              		.align	2
 1708              	.LC0:
 1709 0000 474E4747 		.ascii	"GNGGA,\000"
 1709      412C00
ARM GAS  /tmp/cc4TUd6U.s 			page 39


 1710              		.section	.rodata.transitions,"a",%progbits
 1711              		.align	2
 1712              		.set	.LANCHOR9,. + 0
 1715              	transitions:
 1716 0000 00000000 		.word	find_start
 1717 0004 00000000 		.word	0
 1718 0008 00000000 		.word	0
 1719 000c 01000000 		.word	1
 1720 0010 00000000 		.word	parse_gngga
 1721 0014 00000000 		.word	0
 1722 0018 01000000 		.word	1
 1723 001c 02000000 		.word	2
 1724 0020 00000000 		.word	parse_time
 1725 0024 00000000 		.word	0
 1726 0028 02000000 		.word	2
 1727 002c 03000000 		.word	3
 1728 0030 00000000 		.word	parse_latitude
 1729 0034 00000000 		.word	0
 1730 0038 03000000 		.word	3
 1731 003c 04000000 		.word	4
 1732 0040 00000000 		.word	parse_ns_ind
 1733 0044 00000000 		.word	0
 1734 0048 04000000 		.word	4
 1735 004c 05000000 		.word	5
 1736 0050 00000000 		.word	parse_longitude
 1737 0054 00000000 		.word	0
 1738 0058 05000000 		.word	5
 1739 005c 06000000 		.word	6
 1740 0060 00000000 		.word	parse_ew_ind
 1741 0064 00000000 		.word	0
 1742 0068 06000000 		.word	6
 1743 006c 07000000 		.word	7
 1744 0070 00000000 		.word	parse_quality
 1745 0074 00000000 		.word	0
 1746 0078 07000000 		.word	7
 1747 007c 08000000 		.word	8
 1748 0080 00000000 		.word	parse_nr_sats
 1749 0084 00000000 		.word	0
 1750 0088 08000000 		.word	8
 1751 008c 09000000 		.word	9
 1752 0090 00000000 		.word	parse_hdop
 1753 0094 00000000 		.word	0
 1754 0098 09000000 		.word	9
 1755 009c 00000000 		.word	0
 1756              		.text
 1757              	.Letext0:
 1758              		.file 2 "/home/mats/gcc-arm-none-eabi-7-2018-q2-update/arm-none-eabi/include/machine/_default_type
 1759              		.file 3 "/home/mats/gcc-arm-none-eabi-7-2018-q2-update/arm-none-eabi/include/sys/lock.h"
 1760              		.file 4 "/home/mats/gcc-arm-none-eabi-7-2018-q2-update/arm-none-eabi/include/sys/_types.h"
 1761              		.file 5 "/home/mats/gcc-arm-none-eabi-7-2018-q2-update/lib/gcc/arm-none-eabi/7.3.1/include/stddef.
 1762              		.file 6 "/home/mats/gcc-arm-none-eabi-7-2018-q2-update/arm-none-eabi/include/sys/reent.h"
 1763              		.file 7 "/home/mats/gcc-arm-none-eabi-7-2018-q2-update/arm-none-eabi/include/math.h"
 1764              		.file 8 "/home/mats/gcc-arm-none-eabi-7-2018-q2-update/arm-none-eabi/include/stdlib.h"
 1765              		.file 9 "/home/mats/gcc-arm-none-eabi-7-2018-q2-update/arm-none-eabi/include/sys/_stdint.h"
 1766              		.file 10 "../../shields/gps-firefly/inc/nmea.h"
ARM GAS  /tmp/cc4TUd6U.s 			page 40

