ARM GAS  /tmp/ccTcjWSA.s 			page 1


   1              		.cpu cortex-m4
   2              		.eabi_attribute 27, 1
   3              		.eabi_attribute 28, 1
   4              		.eabi_attribute 20, 1
   5              		.eabi_attribute 21, 1
   6              		.eabi_attribute 23, 3
   7              		.eabi_attribute 24, 1
   8              		.eabi_attribute 25, 1
   9              		.eabi_attribute 26, 1
  10              		.eabi_attribute 30, 1
  11              		.eabi_attribute 34, 1
  12              		.eabi_attribute 18, 4
  13              		.file	"octa.c"
  14              		.text
  15              	.Ltext0:
  16              		.cfi_sections	.debug_frame
  17              		.section	.text.OCTA_Initialize_Common_Peripherals,"ax",%progbits
  18              		.align	1
  19              		.global	OCTA_Initialize_Common_Peripherals
  20              		.syntax unified
  21              		.thumb
  22              		.thumb_func
  23              		.fpu fpv4-sp-d16
  25              	OCTA_Initialize_Common_Peripherals:
  26              	.LFB129:
  27              		.file 1 "../../core/platform/octa/src/octa.c"
   1:../../core/platform/octa/src/octa.c **** #include "octa.h"
   2:../../core/platform/octa/src/octa.c **** 
   3:../../core/platform/octa/src/octa.c **** void OCTA_Initialize_Platform(void)
   4:../../core/platform/octa/src/octa.c **** {
   5:../../core/platform/octa/src/octa.c ****     //GPIO, IWDG, USB_UART(Logging)
   6:../../core/platform/octa/src/octa.c ****     OCTA_Initialize_Common_Peripherals();
   7:../../core/platform/octa/src/octa.c ****     //P1 UART, I2C, SPI & GPIO handles
   8:../../core/platform/octa/src/octa.c ****     OCTA_Initialize_P1_Peripherals();
   9:../../core/platform/octa/src/octa.c ****     //P2 UART, I2C, SPI & GPIO handles
  10:../../core/platform/octa/src/octa.c ****     OCTA_Initialize_P2_Peripherals();
  11:../../core/platform/octa/src/octa.c ****     //P3 UART, I2C, SPI & GPIO handles
  12:../../core/platform/octa/src/octa.c ****     OCTA_Initialize_P3_Peripherals();
  13:../../core/platform/octa/src/octa.c **** }
  14:../../core/platform/octa/src/octa.c **** 
  15:../../core/platform/octa/src/octa.c **** void OCTA_Initialize_Common_Peripherals(void)
  16:../../core/platform/octa/src/octa.c **** {
  28              		.loc 1 16 0
  29              		.cfi_startproc
  30              		@ args = 0, pretend = 0, frame = 0
  31              		@ frame_needed = 0, uses_anonymous_args = 0
  32 0000 08B5     		push	{r3, lr}
  33              	.LCFI0:
  34              		.cfi_def_cfa_offset 8
  35              		.cfi_offset 3, -8
  36              		.cfi_offset 14, -4
  17:../../core/platform/octa/src/octa.c ****     OCTA_GPIO_Init();
  37              		.loc 1 17 0
  38 0002 FFF7FEFF 		bl	OCTA_GPIO_Init
  39              	.LVL0:
  18:../../core/platform/octa/src/octa.c ****     OCTA_IWDG_Init();
  40              		.loc 1 18 0
ARM GAS  /tmp/ccTcjWSA.s 			page 2


  41 0006 FFF7FEFF 		bl	OCTA_IWDG_Init
  42              	.LVL1:
  19:../../core/platform/octa/src/octa.c ****     common_I2C_Init();
  43              		.loc 1 19 0
  44 000a FFF7FEFF 		bl	common_I2C_Init
  45              	.LVL2:
  20:../../core/platform/octa/src/octa.c ****     USB_UART_Init(115200);
  46              		.loc 1 20 0
  47 000e 4FF4E130 		mov	r0, #115200
  48 0012 FFF7FEFF 		bl	USB_UART_Init
  49              	.LVL3:
  21:../../core/platform/octa/src/octa.c ****     #if USE_BOOTLOADER
  22:../../core/platform/octa/src/octa.c ****         printf("\r\nusing bootloader, initializing BLE UART\r\n");
  23:../../core/platform/octa/src/octa.c ****         BLE_UART_Init(115200); 
  24:../../core/platform/octa/src/octa.c ****         bootloader_initialize(&BLE_UART);     
  25:../../core/platform/octa/src/octa.c ****     #endif
  26:../../core/platform/octa/src/octa.c **** }
  50              		.loc 1 26 0
  51 0016 08BD     		pop	{r3, pc}
  52              		.cfi_endproc
  53              	.LFE129:
  55              		.section	.text.OCTA_Initialize_P1_Peripherals,"ax",%progbits
  56              		.align	1
  57              		.global	OCTA_Initialize_P1_Peripherals
  58              		.syntax unified
  59              		.thumb
  60              		.thumb_func
  61              		.fpu fpv4-sp-d16
  63              	OCTA_Initialize_P1_Peripherals:
  64              	.LFB130:
  27:../../core/platform/octa/src/octa.c **** 
  28:../../core/platform/octa/src/octa.c **** void OCTA_Initialize_P1_Peripherals(void)
  29:../../core/platform/octa/src/octa.c **** {
  65              		.loc 1 29 0
  66              		.cfi_startproc
  67              		@ args = 0, pretend = 0, frame = 0
  68              		@ frame_needed = 0, uses_anonymous_args = 0
  69              		@ link register save eliminated.
  30:../../core/platform/octa/src/octa.c ****     P1_header.number = 1;
  70              		.loc 1 30 0
  71 0000 0A4B     		ldr	r3, .L4
  72 0002 0122     		movs	r2, #1
  73 0004 1A70     		strb	r2, [r3]
  31:../../core/platform/octa/src/octa.c ****     P1_header.uartHandle = &P1_UART;
  74              		.loc 1 31 0
  75 0006 0A4A     		ldr	r2, .L4+4
  76 0008 5A60     		str	r2, [r3, #4]
  32:../../core/platform/octa/src/octa.c ****     P1_header.i2cHandle = &P1_I2C;
  77              		.loc 1 32 0
  78 000a 0A4A     		ldr	r2, .L4+8
  79 000c 9A60     		str	r2, [r3, #8]
  33:../../core/platform/octa/src/octa.c ****     P1_header.spiHandle = &P1_SPI;
  80              		.loc 1 33 0
  81 000e 0A4A     		ldr	r2, .L4+12
  82 0010 DA60     		str	r2, [r3, #12]
  34:../../core/platform/octa/src/octa.c ****     P1_header.DIO1 = &P1_DIO1;
  83              		.loc 1 34 0
ARM GAS  /tmp/ccTcjWSA.s 			page 3


  84 0012 0A4A     		ldr	r2, .L4+16
  85 0014 1A61     		str	r2, [r3, #16]
  35:../../core/platform/octa/src/octa.c ****     P1_header.DIO2 = &P1_DIO2;
  86              		.loc 1 35 0
  87 0016 0A4A     		ldr	r2, .L4+20
  88 0018 5A61     		str	r2, [r3, #20]
  36:../../core/platform/octa/src/octa.c ****     P1_header.DIO3 = &P1_DIO3;
  89              		.loc 1 36 0
  90 001a 0A4A     		ldr	r2, .L4+24
  91 001c 9A61     		str	r2, [r3, #24]
  37:../../core/platform/octa/src/octa.c ****     P1_header.DIO4 = &P1_DIO4;
  92              		.loc 1 37 0
  93 001e 0A4A     		ldr	r2, .L4+28
  94 0020 DA61     		str	r2, [r3, #28]
  38:../../core/platform/octa/src/octa.c ****     P1_header.DIO5 = &P1_DIO5;
  95              		.loc 1 38 0
  96 0022 0A4A     		ldr	r2, .L4+32
  97 0024 1A62     		str	r2, [r3, #32]
  39:../../core/platform/octa/src/octa.c ****     P1_header.DIO6 = &P1_DIO6;
  98              		.loc 1 39 0
  99 0026 0A4A     		ldr	r2, .L4+36
 100 0028 5A62     		str	r2, [r3, #36]
  40:../../core/platform/octa/src/octa.c **** }
 101              		.loc 1 40 0
 102 002a 7047     		bx	lr
 103              	.L5:
 104              		.align	2
 105              	.L4:
 106 002c 00000000 		.word	P1_header
 107 0030 00000000 		.word	P1_UART
 108 0034 00000000 		.word	P1_I2C
 109 0038 00000000 		.word	P1_SPI
 110 003c 00000000 		.word	P1_DIO1
 111 0040 00000000 		.word	P1_DIO2
 112 0044 00000000 		.word	P1_DIO3
 113 0048 00000000 		.word	P1_DIO4
 114 004c 00000000 		.word	P1_DIO5
 115 0050 00000000 		.word	P1_DIO6
 116              		.cfi_endproc
 117              	.LFE130:
 119              		.section	.text.OCTA_Initialize_P2_Peripherals,"ax",%progbits
 120              		.align	1
 121              		.global	OCTA_Initialize_P2_Peripherals
 122              		.syntax unified
 123              		.thumb
 124              		.thumb_func
 125              		.fpu fpv4-sp-d16
 127              	OCTA_Initialize_P2_Peripherals:
 128              	.LFB131:
  41:../../core/platform/octa/src/octa.c **** 
  42:../../core/platform/octa/src/octa.c **** void OCTA_Initialize_P2_Peripherals(void)
  43:../../core/platform/octa/src/octa.c **** {
 129              		.loc 1 43 0
 130              		.cfi_startproc
 131              		@ args = 0, pretend = 0, frame = 0
 132              		@ frame_needed = 0, uses_anonymous_args = 0
 133              		@ link register save eliminated.
ARM GAS  /tmp/ccTcjWSA.s 			page 4


  44:../../core/platform/octa/src/octa.c ****     P2_header.number = 2;
 134              		.loc 1 44 0
 135 0000 0A4B     		ldr	r3, .L7
 136 0002 0222     		movs	r2, #2
 137 0004 1A70     		strb	r2, [r3]
  45:../../core/platform/octa/src/octa.c ****     #if USE_BOOTLOADER
  46:../../core/platform/octa/src/octa.c ****         printf("\r\nusing bootloader, P2 UART unavailable\r\n");
  47:../../core/platform/octa/src/octa.c ****         P2_header.uartHandle = NULL;
  48:../../core/platform/octa/src/octa.c ****     #else
  49:../../core/platform/octa/src/octa.c ****         P2_header.uartHandle = &P2_UART;
 138              		.loc 1 49 0
 139 0006 0A4A     		ldr	r2, .L7+4
 140 0008 5A60     		str	r2, [r3, #4]
  50:../../core/platform/octa/src/octa.c ****     #endif
  51:../../core/platform/octa/src/octa.c ****     P2_header.i2cHandle = &P2_I2C;
 141              		.loc 1 51 0
 142 000a 0A4A     		ldr	r2, .L7+8
 143 000c 9A60     		str	r2, [r3, #8]
  52:../../core/platform/octa/src/octa.c ****     P2_header.spiHandle = &P2_SPI;
 144              		.loc 1 52 0
 145 000e 0A4A     		ldr	r2, .L7+12
 146 0010 DA60     		str	r2, [r3, #12]
  53:../../core/platform/octa/src/octa.c ****     P2_header.DIO1 = &P2_DIO1;
 147              		.loc 1 53 0
 148 0012 0A4A     		ldr	r2, .L7+16
 149 0014 1A61     		str	r2, [r3, #16]
  54:../../core/platform/octa/src/octa.c ****     P2_header.DIO2 = &P2_DIO2;
 150              		.loc 1 54 0
 151 0016 0A4A     		ldr	r2, .L7+20
 152 0018 5A61     		str	r2, [r3, #20]
  55:../../core/platform/octa/src/octa.c ****     P2_header.DIO3 = &P2_DIO3;
 153              		.loc 1 55 0
 154 001a 0A4A     		ldr	r2, .L7+24
 155 001c 9A61     		str	r2, [r3, #24]
  56:../../core/platform/octa/src/octa.c ****     P2_header.DIO4 = &P2_DIO4;
 156              		.loc 1 56 0
 157 001e 0A4A     		ldr	r2, .L7+28
 158 0020 DA61     		str	r2, [r3, #28]
  57:../../core/platform/octa/src/octa.c ****     P2_header.DIO5 = &P2_DIO5;
 159              		.loc 1 57 0
 160 0022 0A4A     		ldr	r2, .L7+32
 161 0024 1A62     		str	r2, [r3, #32]
  58:../../core/platform/octa/src/octa.c ****     P2_header.DIO6 = &P2_DIO6;
 162              		.loc 1 58 0
 163 0026 0A4A     		ldr	r2, .L7+36
 164 0028 5A62     		str	r2, [r3, #36]
  59:../../core/platform/octa/src/octa.c **** }
 165              		.loc 1 59 0
 166 002a 7047     		bx	lr
 167              	.L8:
 168              		.align	2
 169              	.L7:
 170 002c 00000000 		.word	P2_header
 171 0030 00000000 		.word	P2_UART
 172 0034 00000000 		.word	P2_I2C
 173 0038 00000000 		.word	P2_SPI
 174 003c 00000000 		.word	P2_DIO1
ARM GAS  /tmp/ccTcjWSA.s 			page 5


 175 0040 00000000 		.word	P2_DIO2
 176 0044 00000000 		.word	P2_DIO3
 177 0048 00000000 		.word	P2_DIO4
 178 004c 00000000 		.word	P2_DIO5
 179 0050 00000000 		.word	P2_DIO6
 180              		.cfi_endproc
 181              	.LFE131:
 183              		.section	.text.OCTA_Initialize_P3_Peripherals,"ax",%progbits
 184              		.align	1
 185              		.global	OCTA_Initialize_P3_Peripherals
 186              		.syntax unified
 187              		.thumb
 188              		.thumb_func
 189              		.fpu fpv4-sp-d16
 191              	OCTA_Initialize_P3_Peripherals:
 192              	.LFB132:
  60:../../core/platform/octa/src/octa.c **** 
  61:../../core/platform/octa/src/octa.c **** void OCTA_Initialize_P3_Peripherals(void)
  62:../../core/platform/octa/src/octa.c **** {
 193              		.loc 1 62 0
 194              		.cfi_startproc
 195              		@ args = 0, pretend = 0, frame = 0
 196              		@ frame_needed = 0, uses_anonymous_args = 0
 197              		@ link register save eliminated.
  63:../../core/platform/octa/src/octa.c ****     P3_header.number = 3;
 198              		.loc 1 63 0
 199 0000 0A4B     		ldr	r3, .L10
 200 0002 0322     		movs	r2, #3
 201 0004 1A70     		strb	r2, [r3]
  64:../../core/platform/octa/src/octa.c ****     P3_header.uartHandle = &P3_UART;
 202              		.loc 1 64 0
 203 0006 0A4A     		ldr	r2, .L10+4
 204 0008 5A60     		str	r2, [r3, #4]
  65:../../core/platform/octa/src/octa.c ****     P3_header.i2cHandle = &P3_I2C;
 205              		.loc 1 65 0
 206 000a 0A4A     		ldr	r2, .L10+8
 207 000c 9A60     		str	r2, [r3, #8]
  66:../../core/platform/octa/src/octa.c ****     P3_header.spiHandle = &P3_SPI;
 208              		.loc 1 66 0
 209 000e 0A4A     		ldr	r2, .L10+12
 210 0010 DA60     		str	r2, [r3, #12]
  67:../../core/platform/octa/src/octa.c ****     P3_header.DIO1 = &P3_DIO1;
 211              		.loc 1 67 0
 212 0012 0A4A     		ldr	r2, .L10+16
 213 0014 1A61     		str	r2, [r3, #16]
  68:../../core/platform/octa/src/octa.c ****     P3_header.DIO2 = &P3_DIO2;
 214              		.loc 1 68 0
 215 0016 0A4A     		ldr	r2, .L10+20
 216 0018 5A61     		str	r2, [r3, #20]
  69:../../core/platform/octa/src/octa.c ****     P3_header.DIO3 = &P3_DIO3;
 217              		.loc 1 69 0
 218 001a 0A4A     		ldr	r2, .L10+24
 219 001c 9A61     		str	r2, [r3, #24]
  70:../../core/platform/octa/src/octa.c ****     P3_header.DIO4 = &P3_DIO4;
 220              		.loc 1 70 0
 221 001e 0A4A     		ldr	r2, .L10+28
 222 0020 DA61     		str	r2, [r3, #28]
ARM GAS  /tmp/ccTcjWSA.s 			page 6


  71:../../core/platform/octa/src/octa.c ****     P3_header.DIO5 = &P3_DIO5;
 223              		.loc 1 71 0
 224 0022 0A4A     		ldr	r2, .L10+32
 225 0024 1A62     		str	r2, [r3, #32]
  72:../../core/platform/octa/src/octa.c ****     P3_header.DIO6 = &P3_DIO6;
 226              		.loc 1 72 0
 227 0026 0A4A     		ldr	r2, .L10+36
 228 0028 5A62     		str	r2, [r3, #36]
  73:../../core/platform/octa/src/octa.c **** }
 229              		.loc 1 73 0
 230 002a 7047     		bx	lr
 231              	.L11:
 232              		.align	2
 233              	.L10:
 234 002c 00000000 		.word	P3_header
 235 0030 00000000 		.word	P3_UART
 236 0034 00000000 		.word	P3_I2C
 237 0038 00000000 		.word	P3_SPI
 238 003c 00000000 		.word	P3_DIO1
 239 0040 00000000 		.word	P3_DIO2
 240 0044 00000000 		.word	P3_DIO3
 241 0048 00000000 		.word	P3_DIO4
 242 004c 00000000 		.word	P3_DIO5
 243 0050 00000000 		.word	P3_DIO6
 244              		.cfi_endproc
 245              	.LFE132:
 247              		.section	.text.OCTA_Initialize_Platform,"ax",%progbits
 248              		.align	1
 249              		.global	OCTA_Initialize_Platform
 250              		.syntax unified
 251              		.thumb
 252              		.thumb_func
 253              		.fpu fpv4-sp-d16
 255              	OCTA_Initialize_Platform:
 256              	.LFB128:
   4:../../core/platform/octa/src/octa.c ****     OCTA_Initialize_Common_Peripherals();
 257              		.loc 1 4 0
 258              		.cfi_startproc
 259              		@ args = 0, pretend = 0, frame = 0
 260              		@ frame_needed = 0, uses_anonymous_args = 0
 261 0000 08B5     		push	{r3, lr}
 262              	.LCFI1:
 263              		.cfi_def_cfa_offset 8
 264              		.cfi_offset 3, -8
 265              		.cfi_offset 14, -4
   6:../../core/platform/octa/src/octa.c ****     //P1 UART, I2C, SPI & GPIO handles
 266              		.loc 1 6 0
 267 0002 FFF7FEFF 		bl	OCTA_Initialize_Common_Peripherals
 268              	.LVL4:
   8:../../core/platform/octa/src/octa.c ****     //P2 UART, I2C, SPI & GPIO handles
 269              		.loc 1 8 0
 270 0006 FFF7FEFF 		bl	OCTA_Initialize_P1_Peripherals
 271              	.LVL5:
  10:../../core/platform/octa/src/octa.c ****     //P3 UART, I2C, SPI & GPIO handles
 272              		.loc 1 10 0
 273 000a FFF7FEFF 		bl	OCTA_Initialize_P2_Peripherals
 274              	.LVL6:
ARM GAS  /tmp/ccTcjWSA.s 			page 7


  12:../../core/platform/octa/src/octa.c **** }
 275              		.loc 1 12 0
 276 000e FFF7FEFF 		bl	OCTA_Initialize_P3_Peripherals
 277              	.LVL7:
  13:../../core/platform/octa/src/octa.c **** 
 278              		.loc 1 13 0
 279 0012 08BD     		pop	{r3, pc}
 280              		.cfi_endproc
 281              	.LFE128:
 283              		.section	.text.get_UID,"ax",%progbits
 284              		.align	1
 285              		.global	get_UID
 286              		.syntax unified
 287              		.thumb
 288              		.thumb_func
 289              		.fpu fpv4-sp-d16
 291              	get_UID:
 292              	.LFB133:
  74:../../core/platform/octa/src/octa.c **** 
  75:../../core/platform/octa/src/octa.c **** uint64_t get_UID(void)
  76:../../core/platform/octa/src/octa.c **** {
 293              		.loc 1 76 0
 294              		.cfi_startproc
 295              		@ args = 0, pretend = 0, frame = 0
 296              		@ frame_needed = 0, uses_anonymous_args = 0
 297              		@ link register save eliminated.
 298 0000 70B4     		push	{r4, r5, r6}
 299              	.LCFI2:
 300              		.cfi_def_cfa_offset 12
 301              		.cfi_offset 4, -12
 302              		.cfi_offset 5, -8
 303              		.cfi_offset 6, -4
  77:../../core/platform/octa/src/octa.c ****     // Full 96 bits UID in an array
  78:../../core/platform/octa/src/octa.c ****     // uint32_t *uniqueID = (uint32_t*)UID_BASE;
  79:../../core/platform/octa/src/octa.c ****     // for(uint8_t i = 0; i < 12; i++){
  80:../../core/platform/octa/src/octa.c ****     //   UID[i] = (uint8_t)uniqueID[i];
  81:../../core/platform/octa/src/octa.c ****     // }
  82:../../core/platform/octa/src/octa.c ****     //return 64 bit mac address
  83:../../core/platform/octa/src/octa.c ****     return (*((uint64_t *)(UID_BASE)) << 32) + *((uint64_t *)(UID_BASE + 0x04U));
 304              		.loc 1 83 0
 305 0002 0025     		movs	r5, #0
 306 0004 044B     		ldr	r3, .L16
 307 0006 1E68     		ldr	r6, [r3]
 308 0008 044C     		ldr	r4, .L16+4
 309 000a 2268     		ldr	r2, [r4]
 310 000c 6368     		ldr	r3, [r4, #4]
  84:../../core/platform/octa/src/octa.c **** }
 311              		.loc 1 84 0
 312 000e A818     		adds	r0, r5, r2
 313 0010 46EB0301 		adc	r1, r6, r3
 314 0014 70BC     		pop	{r4, r5, r6}
 315              	.LCFI3:
 316              		.cfi_restore 6
 317              		.cfi_restore 5
 318              		.cfi_restore 4
 319              		.cfi_def_cfa_offset 0
 320 0016 7047     		bx	lr
ARM GAS  /tmp/ccTcjWSA.s 			page 8


 321              	.L17:
 322              		.align	2
 323              	.L16:
 324 0018 9075FF1F 		.word	536835472
 325 001c 9475FF1F 		.word	536835476
 326              		.cfi_endproc
 327              	.LFE133:
 329              		.section	.text.platform_initialize_UART,"ax",%progbits
 330              		.align	1
 331              		.global	platform_initialize_UART
 332              		.syntax unified
 333              		.thumb
 334              		.thumb_func
 335              		.fpu fpv4-sp-d16
 337              	platform_initialize_UART:
 338              	.LFB134:
  85:../../core/platform/octa/src/octa.c **** 
  86:../../core/platform/octa/src/octa.c **** void platform_initialize_UART(struct OCTA_header aHeader, uint32_t aBaudRate)
  87:../../core/platform/octa/src/octa.c **** {
 339              		.loc 1 87 0
 340              		.cfi_startproc
 341              		@ args = 48, pretend = 16, frame = 0
 342              		@ frame_needed = 0, uses_anonymous_args = 0
 343              	.LVL8:
 344 0000 84B0     		sub	sp, sp, #16
 345              	.LCFI4:
 346              		.cfi_def_cfa_offset 16
 347 0002 08B5     		push	{r3, lr}
 348              	.LCFI5:
 349              		.cfi_def_cfa_offset 24
 350              		.cfi_offset 3, -24
 351              		.cfi_offset 14, -20
 352 0004 0DF1080C 		add	ip, sp, #8
 353 0008 8CE80F00 		stm	ip, {r0, r1, r2, r3}
  88:../../core/platform/octa/src/octa.c ****     switch(aHeader.number)
 354              		.loc 1 88 0
 355 000c 9DF80830 		ldrb	r3, [sp, #8]	@ zero_extendqisi2
 356 0010 022B     		cmp	r3, #2
 357 0012 0BD0     		beq	.L20
 358 0014 032B     		cmp	r3, #3
 359 0016 0DD0     		beq	.L21
 360 0018 012B     		cmp	r3, #1
 361 001a 03D0     		beq	.L24
 362              	.L18:
  89:../../core/platform/octa/src/octa.c ****     {
  90:../../core/platform/octa/src/octa.c ****         case 1:
  91:../../core/platform/octa/src/octa.c ****             P1_UART_Init(aBaudRate);
  92:../../core/platform/octa/src/octa.c ****             break;
  93:../../core/platform/octa/src/octa.c ****         case 2:
  94:../../core/platform/octa/src/octa.c ****             P2_UART_Init(aBaudRate);
  95:../../core/platform/octa/src/octa.c ****             break;
  96:../../core/platform/octa/src/octa.c ****         case 3:
  97:../../core/platform/octa/src/octa.c ****             P3_UART_Init(aBaudRate);
  98:../../core/platform/octa/src/octa.c ****             break;
  99:../../core/platform/octa/src/octa.c ****         default:
 100:../../core/platform/octa/src/octa.c ****             break;
 101:../../core/platform/octa/src/octa.c ****     }
ARM GAS  /tmp/ccTcjWSA.s 			page 9


 102:../../core/platform/octa/src/octa.c **** }
 363              		.loc 1 102 0
 364 001c BDE80840 		pop	{r3, lr}
 365              	.LCFI6:
 366              		.cfi_remember_state
 367              		.cfi_restore 14
 368              		.cfi_restore 3
 369              		.cfi_def_cfa_offset 16
 370 0020 04B0     		add	sp, sp, #16
 371              	.LCFI7:
 372              		.cfi_def_cfa_offset 0
 373 0022 7047     		bx	lr
 374              	.L24:
 375              	.LCFI8:
 376              		.cfi_restore_state
  91:../../core/platform/octa/src/octa.c ****             break;
 377              		.loc 1 91 0
 378 0024 0D98     		ldr	r0, [sp, #52]
 379 0026 FFF7FEFF 		bl	P1_UART_Init
 380              	.LVL9:
  92:../../core/platform/octa/src/octa.c ****         case 2:
 381              		.loc 1 92 0
 382 002a F7E7     		b	.L18
 383              	.L20:
  94:../../core/platform/octa/src/octa.c ****             break;
 384              		.loc 1 94 0
 385 002c 0D98     		ldr	r0, [sp, #52]
 386 002e FFF7FEFF 		bl	P2_UART_Init
 387              	.LVL10:
  95:../../core/platform/octa/src/octa.c ****         case 3:
 388              		.loc 1 95 0
 389 0032 F3E7     		b	.L18
 390              	.L21:
  97:../../core/platform/octa/src/octa.c ****             break;
 391              		.loc 1 97 0
 392 0034 0D98     		ldr	r0, [sp, #52]
 393 0036 FFF7FEFF 		bl	P3_UART_Init
 394              	.LVL11:
 395              		.loc 1 102 0
 396 003a EFE7     		b	.L18
 397              		.cfi_endproc
 398              	.LFE134:
 400              		.section	.text.platform_initialize_I2C,"ax",%progbits
 401              		.align	1
 402              		.global	platform_initialize_I2C
 403              		.syntax unified
 404              		.thumb
 405              		.thumb_func
 406              		.fpu fpv4-sp-d16
 408              	platform_initialize_I2C:
 409              	.LFB135:
 103:../../core/platform/octa/src/octa.c **** 
 104:../../core/platform/octa/src/octa.c **** void platform_initialize_I2C(struct OCTA_header aHeader)
 105:../../core/platform/octa/src/octa.c **** {
 410              		.loc 1 105 0
 411              		.cfi_startproc
 412              		@ args = 44, pretend = 16, frame = 0
ARM GAS  /tmp/ccTcjWSA.s 			page 10


 413              		@ frame_needed = 0, uses_anonymous_args = 0
 414 0000 84B0     		sub	sp, sp, #16
 415              	.LCFI9:
 416              		.cfi_def_cfa_offset 16
 417 0002 08B5     		push	{r3, lr}
 418              	.LCFI10:
 419              		.cfi_def_cfa_offset 24
 420              		.cfi_offset 3, -24
 421              		.cfi_offset 14, -20
 422 0004 0DF1080C 		add	ip, sp, #8
 423 0008 8CE80F00 		stm	ip, {r0, r1, r2, r3}
 106:../../core/platform/octa/src/octa.c ****     switch(aHeader.number)
 424              		.loc 1 106 0
 425 000c 9DF80830 		ldrb	r3, [sp, #8]	@ zero_extendqisi2
 426 0010 022B     		cmp	r3, #2
 427 0012 0AD0     		beq	.L27
 428 0014 032B     		cmp	r3, #3
 429 0016 0BD0     		beq	.L28
 430 0018 012B     		cmp	r3, #1
 431 001a 03D0     		beq	.L31
 432              	.L25:
 107:../../core/platform/octa/src/octa.c ****     {
 108:../../core/platform/octa/src/octa.c ****         case 1:
 109:../../core/platform/octa/src/octa.c ****             P1_I2C_Init();
 110:../../core/platform/octa/src/octa.c ****             break;
 111:../../core/platform/octa/src/octa.c ****         case 2:
 112:../../core/platform/octa/src/octa.c ****             P2_I2C_Init();
 113:../../core/platform/octa/src/octa.c ****             break;
 114:../../core/platform/octa/src/octa.c ****         case 3:
 115:../../core/platform/octa/src/octa.c ****             P3_I2C_Init();
 116:../../core/platform/octa/src/octa.c ****             break;
 117:../../core/platform/octa/src/octa.c ****         default:
 118:../../core/platform/octa/src/octa.c ****             break;
 119:../../core/platform/octa/src/octa.c ****     }
 120:../../core/platform/octa/src/octa.c **** }
 433              		.loc 1 120 0
 434 001c BDE80840 		pop	{r3, lr}
 435              	.LCFI11:
 436              		.cfi_remember_state
 437              		.cfi_restore 14
 438              		.cfi_restore 3
 439              		.cfi_def_cfa_offset 16
 440 0020 04B0     		add	sp, sp, #16
 441              	.LCFI12:
 442              		.cfi_def_cfa_offset 0
 443 0022 7047     		bx	lr
 444              	.L31:
 445              	.LCFI13:
 446              		.cfi_restore_state
 109:../../core/platform/octa/src/octa.c ****             break;
 447              		.loc 1 109 0
 448 0024 FFF7FEFF 		bl	P1_I2C_Init
 449              	.LVL12:
 110:../../core/platform/octa/src/octa.c ****         case 2:
 450              		.loc 1 110 0
 451 0028 F8E7     		b	.L25
 452              	.L27:
ARM GAS  /tmp/ccTcjWSA.s 			page 11


 112:../../core/platform/octa/src/octa.c ****             break;
 453              		.loc 1 112 0
 454 002a FFF7FEFF 		bl	P2_I2C_Init
 455              	.LVL13:
 113:../../core/platform/octa/src/octa.c ****         case 3:
 456              		.loc 1 113 0
 457 002e F5E7     		b	.L25
 458              	.L28:
 115:../../core/platform/octa/src/octa.c ****             break;
 459              		.loc 1 115 0
 460 0030 FFF7FEFF 		bl	P3_I2C_Init
 461              	.LVL14:
 462              		.loc 1 120 0
 463 0034 F2E7     		b	.L25
 464              		.cfi_endproc
 465              	.LFE135:
 467              		.section	.text.platform_initialize_SPI,"ax",%progbits
 468              		.align	1
 469              		.global	platform_initialize_SPI
 470              		.syntax unified
 471              		.thumb
 472              		.thumb_func
 473              		.fpu fpv4-sp-d16
 475              	platform_initialize_SPI:
 476              	.LFB136:
 121:../../core/platform/octa/src/octa.c **** 
 122:../../core/platform/octa/src/octa.c **** void platform_initialize_SPI(struct OCTA_header aHeader)
 123:../../core/platform/octa/src/octa.c **** {
 477              		.loc 1 123 0
 478              		.cfi_startproc
 479              		@ args = 44, pretend = 16, frame = 0
 480              		@ frame_needed = 0, uses_anonymous_args = 0
 481 0000 84B0     		sub	sp, sp, #16
 482              	.LCFI14:
 483              		.cfi_def_cfa_offset 16
 484 0002 08B5     		push	{r3, lr}
 485              	.LCFI15:
 486              		.cfi_def_cfa_offset 24
 487              		.cfi_offset 3, -24
 488              		.cfi_offset 14, -20
 489 0004 0DF1080C 		add	ip, sp, #8
 490 0008 8CE80F00 		stm	ip, {r0, r1, r2, r3}
 124:../../core/platform/octa/src/octa.c ****     switch(aHeader.number)
 491              		.loc 1 124 0
 492 000c 9DF80830 		ldrb	r3, [sp, #8]	@ zero_extendqisi2
 493 0010 022B     		cmp	r3, #2
 494 0012 0AD0     		beq	.L34
 495 0014 032B     		cmp	r3, #3
 496 0016 0BD0     		beq	.L35
 497 0018 012B     		cmp	r3, #1
 498 001a 03D0     		beq	.L38
 499              	.L32:
 125:../../core/platform/octa/src/octa.c ****     {
 126:../../core/platform/octa/src/octa.c ****         case 1:
 127:../../core/platform/octa/src/octa.c ****             P1_SPI_Init();
 128:../../core/platform/octa/src/octa.c ****             break;
 129:../../core/platform/octa/src/octa.c ****         case 2:
ARM GAS  /tmp/ccTcjWSA.s 			page 12


 130:../../core/platform/octa/src/octa.c ****             P2_SPI_Init();
 131:../../core/platform/octa/src/octa.c ****             break;
 132:../../core/platform/octa/src/octa.c ****         case 3:
 133:../../core/platform/octa/src/octa.c ****             P3_SPI_Init();
 134:../../core/platform/octa/src/octa.c ****             break;
 135:../../core/platform/octa/src/octa.c ****         default:
 136:../../core/platform/octa/src/octa.c ****             break;
 137:../../core/platform/octa/src/octa.c ****     }
 138:../../core/platform/octa/src/octa.c **** }
 500              		.loc 1 138 0
 501 001c BDE80840 		pop	{r3, lr}
 502              	.LCFI16:
 503              		.cfi_remember_state
 504              		.cfi_restore 14
 505              		.cfi_restore 3
 506              		.cfi_def_cfa_offset 16
 507 0020 04B0     		add	sp, sp, #16
 508              	.LCFI17:
 509              		.cfi_def_cfa_offset 0
 510 0022 7047     		bx	lr
 511              	.L38:
 512              	.LCFI18:
 513              		.cfi_restore_state
 127:../../core/platform/octa/src/octa.c ****             break;
 514              		.loc 1 127 0
 515 0024 FFF7FEFF 		bl	P1_SPI_Init
 516              	.LVL15:
 128:../../core/platform/octa/src/octa.c ****         case 2:
 517              		.loc 1 128 0
 518 0028 F8E7     		b	.L32
 519              	.L34:
 130:../../core/platform/octa/src/octa.c ****             break;
 520              		.loc 1 130 0
 521 002a FFF7FEFF 		bl	P2_SPI_Init
 522              	.LVL16:
 131:../../core/platform/octa/src/octa.c ****         case 3:
 523              		.loc 1 131 0
 524 002e F5E7     		b	.L32
 525              	.L35:
 133:../../core/platform/octa/src/octa.c ****             break;
 526              		.loc 1 133 0
 527 0030 FFF7FEFF 		bl	P3_SPI_Init
 528              	.LVL17:
 529              		.loc 1 138 0
 530 0034 F2E7     		b	.L32
 531              		.cfi_endproc
 532              	.LFE136:
 534              		.section	.text.platform_getHeader,"ax",%progbits
 535              		.align	1
 536              		.global	platform_getHeader
 537              		.syntax unified
 538              		.thumb
 539              		.thumb_func
 540              		.fpu fpv4-sp-d16
 542              	platform_getHeader:
 543              	.LFB137:
 139:../../core/platform/octa/src/octa.c **** 
ARM GAS  /tmp/ccTcjWSA.s 			page 13


 140:../../core/platform/octa/src/octa.c **** struct OCTA_header platform_getHeader(uint8_t connector)
 141:../../core/platform/octa/src/octa.c **** {
 544              		.loc 1 141 0
 545              		.cfi_startproc
 546              		@ args = 0, pretend = 0, frame = 48
 547              		@ frame_needed = 0, uses_anonymous_args = 0
 548              	.LVL18:
 549 0000 70B5     		push	{r4, r5, r6, lr}
 550              	.LCFI19:
 551              		.cfi_def_cfa_offset 16
 552              		.cfi_offset 4, -16
 553              		.cfi_offset 5, -12
 554              		.cfi_offset 6, -8
 555              		.cfi_offset 14, -4
 556 0002 8CB0     		sub	sp, sp, #48
 557              	.LCFI20:
 558              		.cfi_def_cfa_offset 64
 559 0004 0546     		mov	r5, r0
 142:../../core/platform/octa/src/octa.c ****     switch (connector)
 560              		.loc 1 142 0
 561 0006 0229     		cmp	r1, #2
 562 0008 24D0     		beq	.L41
 563 000a 0329     		cmp	r1, #3
 564 000c 30D0     		beq	.L42
 565 000e 0129     		cmp	r1, #1
 566 0010 10D0     		beq	.L47
 567              	.LBB2:
 143:../../core/platform/octa/src/octa.c ****     {
 144:../../core/platform/octa/src/octa.c ****     case 1:
 145:../../core/platform/octa/src/octa.c ****         P1_header.active = 1;
 146:../../core/platform/octa/src/octa.c ****         return P1_header;
 147:../../core/platform/octa/src/octa.c ****     case 2:
 148:../../core/platform/octa/src/octa.c ****         P2_header.active = 1;
 149:../../core/platform/octa/src/octa.c ****         return P2_header;
 150:../../core/platform/octa/src/octa.c ****     case 3:
 151:../../core/platform/octa/src/octa.c ****         P3_header.active = 1;
 152:../../core/platform/octa/src/octa.c ****         return P3_header;
 153:../../core/platform/octa/src/octa.c ****     default:
 154:../../core/platform/octa/src/octa.c ****         //invalid connector
 155:../../core/platform/octa/src/octa.c ****         printf("Invalid connector\r\n");
 568              		.loc 1 155 0
 569 0012 1E48     		ldr	r0, .L48
 570              	.LVL19:
 571 0014 FFF7FEFF 		bl	puts
 572              	.LVL20:
 156:../../core/platform/octa/src/octa.c ****         struct OCTA_header invalid; 
 157:../../core/platform/octa/src/octa.c ****         invalid.active = 0;
 573              		.loc 1 157 0
 574 0018 0023     		movs	r3, #0
 575 001a 8DF82C30 		strb	r3, [sp, #44]
 158:../../core/platform/octa/src/octa.c ****         return invalid;
 576              		.loc 1 158 0
 577 001e 2C46     		mov	r4, r5
 578 0020 01AE     		add	r6, sp, #4
 579 0022 0FCE     		ldmia	r6!, {r0, r1, r2, r3}
 580 0024 0FC4     		stmia	r4!, {r0, r1, r2, r3}
 581 0026 0FCE     		ldmia	r6!, {r0, r1, r2, r3}
ARM GAS  /tmp/ccTcjWSA.s 			page 14


 582 0028 0FC4     		stmia	r4!, {r0, r1, r2, r3}
 583 002a 96E80700 		ldm	r6, {r0, r1, r2}
 584 002e 84E80700 		stm	r4, {r0, r1, r2}
 585 0032 0CE0     		b	.L39
 586              	.LVL21:
 587              	.L47:
 145:../../core/platform/octa/src/octa.c ****         return P1_header;
 588              		.loc 1 145 0
 589 0034 164C     		ldr	r4, .L48+4
 590 0036 0123     		movs	r3, #1
 591 0038 84F82830 		strb	r3, [r4, #40]
 146:../../core/platform/octa/src/octa.c ****     case 2:
 592              		.loc 1 146 0
 593 003c 0646     		mov	r6, r0
 594 003e 0FCC     		ldmia	r4!, {r0, r1, r2, r3}
 595              	.LVL22:
 596 0040 0FC6     		stmia	r6!, {r0, r1, r2, r3}
 597 0042 0FCC     		ldmia	r4!, {r0, r1, r2, r3}
 598 0044 0FC6     		stmia	r6!, {r0, r1, r2, r3}
 599 0046 94E80700 		ldm	r4, {r0, r1, r2}
 600 004a 86E80700 		stm	r6, {r0, r1, r2}
 601              	.L39:
 602              	.LBE2:
 159:../../core/platform/octa/src/octa.c ****     }
 160:../../core/platform/octa/src/octa.c **** }...
 603              		.loc 1 160 0
 604 004e 2846     		mov	r0, r5
 605 0050 0CB0     		add	sp, sp, #48
 606              	.LCFI21:
 607              		.cfi_remember_state
 608              		.cfi_def_cfa_offset 16
 609              		@ sp needed
 610 0052 70BD     		pop	{r4, r5, r6, pc}
 611              	.LVL23:
 612              	.L41:
 613              	.LCFI22:
 614              		.cfi_restore_state
 615              	.LBB3:
 148:../../core/platform/octa/src/octa.c ****         P2_header.active = 1;
 616              		.loc 1 148 0
 617 0054 0F4C     		ldr	r4, .L48+8
 618 0056 0123     		movs	r3, #1
 619 0058 84F82830 		strb	r3, [r4, #40]
 149:../../core/platform/octa/src/octa.c ****         return P2_header;
 620              		.loc 1 149 0
 621 005c 0646     		mov	r6, r0
 622 005e 0FCC     		ldmia	r4!, {r0, r1, r2, r3}
 623              	.LVL24:
 624 0060 0FC6     		stmia	r6!, {r0, r1, r2, r3}
 625 0062 0FCC     		ldmia	r4!, {r0, r1, r2, r3}
 626 0064 0FC6     		stmia	r6!, {r0, r1, r2, r3}
 627 0066 94E80700 		ldm	r4, {r0, r1, r2}
 628 006a 86E80700 		stm	r6, {r0, r1, r2}
 629 006e EEE7     		b	.L39
 630              	.LVL25:
 631              	.L42:
 151:../../core/platform/octa/src/octa.c ****         P3_header.active = 1;
ARM GAS  /tmp/ccTcjWSA.s 			page 15


 632              		.loc 1 151 0
 633 0070 094C     		ldr	r4, .L48+12
 634 0072 0123     		movs	r3, #1
 635 0074 84F82830 		strb	r3, [r4, #40]
 152:../../core/platform/octa/src/octa.c ****         return P3_header;
 636              		.loc 1 152 0
 637 0078 0646     		mov	r6, r0
 638 007a 0FCC     		ldmia	r4!, {r0, r1, r2, r3}
 639              	.LVL26:
 640 007c 0FC6     		stmia	r6!, {r0, r1, r2, r3}
 641 007e 0FCC     		ldmia	r4!, {r0, r1, r2, r3}
 642 0080 0FC6     		stmia	r6!, {r0, r1, r2, r3}
 643 0082 94E80700 		ldm	r4, {r0, r1, r2}
 644 0086 86E80700 		stm	r6, {r0, r1, r2}
 645 008a E0E7     		b	.L39
 646              	.L49:
 647              		.align	2
 648              	.L48:
 649 008c 00000000 		.word	.LC0
 650 0090 00000000 		.word	P1_header
 651 0094 00000000 		.word	P2_header
 652 0098 00000000 		.word	P3_header
 653              	.LBE3:
 654              		.cfi_endproc
 655              	.LFE137:
 657              		.comm	P3_header,44,4
 658              		.comm	P2_header,44,4
 659              		.comm	P1_header,44,4
 660              		.comm	P3_SPI,100,4
 661              		.comm	P2_SPI,100,4
 662              		.comm	P1_SPI,100,4
 663              		.comm	P3_I2C,76,4
 664              		.comm	P2_I2C,76,4
 665              		.comm	P1_I2C,76,4
 666              		.comm	common_I2C,76,4
 667              		.comm	P3_UART,120,4
 668              		.comm	P2_UART,120,4
 669              		.comm	P1_UART,120,4
 670              		.comm	BLE_UART,120,4
 671              		.comm	USB_UART,120,4
 672              		.comm	hiwdg,16,4
 673              		.comm	P3_DIO6,8,4
 674              		.comm	P3_DIO5,8,4
 675              		.comm	P3_DIO4,8,4
 676              		.comm	P3_DIO3,8,4
 677              		.comm	P3_DIO2,8,4
 678              		.comm	P3_DIO1,8,4
 679              		.comm	P2_DIO6,8,4
 680              		.comm	P2_DIO5,8,4
 681              		.comm	P2_DIO4,8,4
 682              		.comm	P2_DIO3,8,4
 683              		.comm	P2_DIO2,8,4
 684              		.comm	P2_DIO1,8,4
 685              		.comm	P1_DIO6,8,4
 686              		.comm	P1_DIO5,8,4
 687              		.comm	P1_DIO4,8,4
 688              		.comm	P1_DIO3,8,4
ARM GAS  /tmp/ccTcjWSA.s 			page 16


 689              		.comm	P1_DIO2,8,4
 690              		.comm	P1_DIO1,8,4
 691              		.section	.rodata.platform_getHeader.str1.4,"aMS",%progbits,1
 692              		.align	2
 693              	.LC0:
 694 0000 496E7661 		.ascii	"Invalid connector\015\000"
 694      6C696420 
 694      636F6E6E 
 694      6563746F 
 694      720D00
 695              		.text
 696              	.Letext0:
 697              		.file 2 "/home/mats/gcc-arm-none-eabi-7-2018-q2-update/arm-none-eabi/include/machine/_default_type
 698              		.file 3 "/home/mats/gcc-arm-none-eabi-7-2018-q2-update/arm-none-eabi/include/sys/_stdint.h"
 699              		.file 4 "../../core/ST/CMSIS/Include/core_cm4.h"
 700              		.file 5 "../../core/ST/CMSIS/Device/ST/STM32L4xx/Include/system_stm32l4xx.h"
 701              		.file 6 "../../core/ST/CMSIS/Device/ST/STM32L4xx/Include/stm32l496xx.h"
 702              		.file 7 "../../core/ST/STM32L4xx_HAL_Driver/Inc/stm32l4xx_hal_def.h"
 703              		.file 8 "../../core/ST/STM32L4xx_HAL_Driver/Inc/stm32l4xx_hal_dma.h"
 704              		.file 9 "../../core/ST/STM32L4xx_HAL_Driver/Inc/stm32l4xx_hal_i2c.h"
 705              		.file 10 "../../core/ST/STM32L4xx_HAL_Driver/Inc/stm32l4xx_hal_iwdg.h"
 706              		.file 11 "../../core/ST/STM32L4xx_HAL_Driver/Inc/stm32l4xx_hal_spi.h"
 707              		.file 12 "../../core/ST/STM32L4xx_HAL_Driver/Inc/stm32l4xx_hal_uart.h"
 708              		.file 13 "../../core/ST/STM32L4xx_HAL_Driver/Inc/stm32l4xx_hal.h"
 709              		.file 14 "../../core/platform/octa/inc/gpio.h"
 710              		.file 15 "../../core/platform/octa/inc/iwdg.h"
 711              		.file 16 "../../core/platform/octa/inc/uart.h"
 712              		.file 17 "../../core/platform/octa/inc/i2c.h"
 713              		.file 18 "../../core/platform/octa/inc/spi.h"
 714              		.file 19 "../../core/platform/octa/inc/octa.h"
 715              		.file 20 "<built-in>"
ARM GAS  /tmp/ccTcjWSA.s 			page 17

