ARM GAS  /tmp/ccxXTvFF.s 			page 1


   1              		.cpu cortex-m4
   2              		.eabi_attribute 27, 1
   3              		.eabi_attribute 28, 1
   4              		.eabi_attribute 20, 1
   5              		.eabi_attribute 21, 1
   6              		.eabi_attribute 23, 3
   7              		.eabi_attribute 24, 1
   8              		.eabi_attribute 25, 1
   9              		.eabi_attribute 26, 1
  10              		.eabi_attribute 30, 1
  11              		.eabi_attribute 34, 1
  12              		.eabi_attribute 18, 4
  13              		.file	"spi.c"
  14              		.text
  15              	.Ltext0:
  16              		.cfi_sections	.debug_frame
  17              		.section	.text.P3_SPI_Init,"ax",%progbits
  18              		.align	1
  19              		.global	P3_SPI_Init
  20              		.syntax unified
  21              		.thumb
  22              		.thumb_func
  23              		.fpu fpv4-sp-d16
  25              	P3_SPI_Init:
  26              	.LFB123:
  27              		.file 1 "../../core/platform/octa/src/spi.c"
   1:../../core/platform/octa/src/spi.c **** #include "spi.h"
   2:../../core/platform/octa/src/spi.c **** 
   3:../../core/platform/octa/src/spi.c **** /**
   4:../../core/platform/octa/src/spi.c ****   * @brief SPI1 Initialization Function
   5:../../core/platform/octa/src/spi.c ****   * @param None
   6:../../core/platform/octa/src/spi.c ****   * @retval None
   7:../../core/platform/octa/src/spi.c ****   */
   8:../../core/platform/octa/src/spi.c ****  void P3_SPI_Init(void)
   9:../../core/platform/octa/src/spi.c **** {
  28              		.loc 1 9 0
  29              		.cfi_startproc
  30              		@ args = 0, pretend = 0, frame = 0
  31              		@ frame_needed = 0, uses_anonymous_args = 0
  32 0000 08B5     		push	{r3, lr}
  33              	.LCFI0:
  34              		.cfi_def_cfa_offset 8
  35              		.cfi_offset 3, -8
  36              		.cfi_offset 14, -4
  10:../../core/platform/octa/src/spi.c **** 
  11:../../core/platform/octa/src/spi.c ****   /* USER CODE BEGIN SPI1_Init 0 */
  12:../../core/platform/octa/src/spi.c **** 
  13:../../core/platform/octa/src/spi.c ****   /* USER CODE END SPI1_Init 0 */
  14:../../core/platform/octa/src/spi.c **** 
  15:../../core/platform/octa/src/spi.c ****   /* USER CODE BEGIN SPI1_Init 1 */
  16:../../core/platform/octa/src/spi.c **** 
  17:../../core/platform/octa/src/spi.c ****   /* USER CODE END SPI1_Init 1 */
  18:../../core/platform/octa/src/spi.c ****   /* SPI1 parameter configuration*/
  19:../../core/platform/octa/src/spi.c ****   P3_SPI.Instance = SPI1;
  37              		.loc 1 19 0
  38 0002 1048     		ldr	r0, .L5
  39 0004 104B     		ldr	r3, .L5+4
ARM GAS  /tmp/ccxXTvFF.s 			page 2


  40 0006 0360     		str	r3, [r0]
  20:../../core/platform/octa/src/spi.c ****   P3_SPI.Init.Mode = SPI_MODE_MASTER;
  41              		.loc 1 20 0
  42 0008 4FF48273 		mov	r3, #260
  43 000c 4360     		str	r3, [r0, #4]
  21:../../core/platform/octa/src/spi.c ****   P3_SPI.Init.Direction = SPI_DIRECTION_2LINES;
  44              		.loc 1 21 0
  45 000e 0023     		movs	r3, #0
  46 0010 8360     		str	r3, [r0, #8]
  22:../../core/platform/octa/src/spi.c ****   P3_SPI.Init.DataSize = SPI_DATASIZE_4BIT;
  47              		.loc 1 22 0
  48 0012 4FF44072 		mov	r2, #768
  49 0016 C260     		str	r2, [r0, #12]
  23:../../core/platform/octa/src/spi.c ****   P3_SPI.Init.CLKPolarity = SPI_POLARITY_LOW;
  50              		.loc 1 23 0
  51 0018 0361     		str	r3, [r0, #16]
  24:../../core/platform/octa/src/spi.c ****   P3_SPI.Init.CLKPhase = SPI_PHASE_1EDGE;
  52              		.loc 1 24 0
  53 001a 4361     		str	r3, [r0, #20]
  25:../../core/platform/octa/src/spi.c ****   P3_SPI.Init.NSS = SPI_NSS_SOFT;
  54              		.loc 1 25 0
  55 001c 4FF40072 		mov	r2, #512
  56 0020 8261     		str	r2, [r0, #24]
  26:../../core/platform/octa/src/spi.c ****   P3_SPI.Init.BaudRatePrescaler = SPI_BAUDRATEPRESCALER_2;
  57              		.loc 1 26 0
  58 0022 C361     		str	r3, [r0, #28]
  27:../../core/platform/octa/src/spi.c ****   P3_SPI.Init.FirstBit = SPI_FIRSTBIT_MSB;
  59              		.loc 1 27 0
  60 0024 0362     		str	r3, [r0, #32]
  28:../../core/platform/octa/src/spi.c ****   P3_SPI.Init.TIMode = SPI_TIMODE_DISABLE;
  61              		.loc 1 28 0
  62 0026 4362     		str	r3, [r0, #36]
  29:../../core/platform/octa/src/spi.c ****   P3_SPI.Init.CRCCalculation = SPI_CRCCALCULATION_DISABLE;
  63              		.loc 1 29 0
  64 0028 8362     		str	r3, [r0, #40]
  30:../../core/platform/octa/src/spi.c ****   P3_SPI.Init.CRCPolynomial = 7;
  65              		.loc 1 30 0
  66 002a 0722     		movs	r2, #7
  67 002c C262     		str	r2, [r0, #44]
  31:../../core/platform/octa/src/spi.c ****   P3_SPI.Init.CRCLength = SPI_CRC_LENGTH_DATASIZE;
  68              		.loc 1 31 0
  69 002e 0363     		str	r3, [r0, #48]
  32:../../core/platform/octa/src/spi.c ****   P3_SPI.Init.NSSPMode = SPI_NSS_PULSE_ENABLE;
  70              		.loc 1 32 0
  71 0030 0823     		movs	r3, #8
  72 0032 4363     		str	r3, [r0, #52]
  33:../../core/platform/octa/src/spi.c ****   if (HAL_SPI_Init(&P3_SPI) != HAL_OK)
  73              		.loc 1 33 0
  74 0034 FFF7FEFF 		bl	HAL_SPI_Init
  75              	.LVL0:
  76 0038 00B9     		cbnz	r0, .L4
  77              	.L1:
  34:../../core/platform/octa/src/spi.c ****   {
  35:../../core/platform/octa/src/spi.c ****     Error_Handler();
  36:../../core/platform/octa/src/spi.c ****   }
  37:../../core/platform/octa/src/spi.c ****   /* USER CODE BEGIN SPI1_Init 2 */
  38:../../core/platform/octa/src/spi.c **** 
ARM GAS  /tmp/ccxXTvFF.s 			page 3


  39:../../core/platform/octa/src/spi.c ****   /* USER CODE END SPI1_Init 2 */
  40:../../core/platform/octa/src/spi.c **** 
  41:../../core/platform/octa/src/spi.c **** }
  78              		.loc 1 41 0
  79 003a 08BD     		pop	{r3, pc}
  80              	.L4:
  81              	.LBB2:
  35:../../core/platform/octa/src/spi.c ****   }
  82              		.loc 1 35 0
  83 003c FFF7FEFF 		bl	Error_Handler
  84              	.LVL1:
  85              	.LBE2:
  86              		.loc 1 41 0
  87 0040 FBE7     		b	.L1
  88              	.L6:
  89 0042 00BF     		.align	2
  90              	.L5:
  91 0044 00000000 		.word	P3_SPI
  92 0048 00300140 		.word	1073819648
  93              		.cfi_endproc
  94              	.LFE123:
  96              		.section	.text.P2_SPI_Init,"ax",%progbits
  97              		.align	1
  98              		.global	P2_SPI_Init
  99              		.syntax unified
 100              		.thumb
 101              		.thumb_func
 102              		.fpu fpv4-sp-d16
 104              	P2_SPI_Init:
 105              	.LFB124:
  42:../../core/platform/octa/src/spi.c **** 
  43:../../core/platform/octa/src/spi.c **** /**
  44:../../core/platform/octa/src/spi.c ****   * @brief SPI2 Initialization Function
  45:../../core/platform/octa/src/spi.c ****   * @param None
  46:../../core/platform/octa/src/spi.c ****   * @retval None
  47:../../core/platform/octa/src/spi.c ****   */
  48:../../core/platform/octa/src/spi.c **** void P2_SPI_Init(void)
  49:../../core/platform/octa/src/spi.c **** {
 106              		.loc 1 49 0
 107              		.cfi_startproc
 108              		@ args = 0, pretend = 0, frame = 0
 109              		@ frame_needed = 0, uses_anonymous_args = 0
 110 0000 08B5     		push	{r3, lr}
 111              	.LCFI1:
 112              		.cfi_def_cfa_offset 8
 113              		.cfi_offset 3, -8
 114              		.cfi_offset 14, -4
  50:../../core/platform/octa/src/spi.c **** 
  51:../../core/platform/octa/src/spi.c ****   /* USER CODE BEGIN SPI2_Init 0 */
  52:../../core/platform/octa/src/spi.c **** 
  53:../../core/platform/octa/src/spi.c ****   /* USER CODE END SPI2_Init 0 */
  54:../../core/platform/octa/src/spi.c **** 
  55:../../core/platform/octa/src/spi.c ****   /* USER CODE BEGIN SPI2_Init 1 */
  56:../../core/platform/octa/src/spi.c **** 
  57:../../core/platform/octa/src/spi.c ****   /* USER CODE END SPI2_Init 1 */
  58:../../core/platform/octa/src/spi.c ****   /* SPI2 parameter configuration*/
  59:../../core/platform/octa/src/spi.c ****   P2_SPI.Instance = SPI2;
ARM GAS  /tmp/ccxXTvFF.s 			page 4


 115              		.loc 1 59 0
 116 0002 1048     		ldr	r0, .L11
 117 0004 104B     		ldr	r3, .L11+4
 118 0006 0360     		str	r3, [r0]
  60:../../core/platform/octa/src/spi.c ****   P2_SPI.Init.Mode = SPI_MODE_MASTER;
 119              		.loc 1 60 0
 120 0008 4FF48273 		mov	r3, #260
 121 000c 4360     		str	r3, [r0, #4]
  61:../../core/platform/octa/src/spi.c ****   P2_SPI.Init.Direction = SPI_DIRECTION_2LINES;
 122              		.loc 1 61 0
 123 000e 0023     		movs	r3, #0
 124 0010 8360     		str	r3, [r0, #8]
  62:../../core/platform/octa/src/spi.c ****   P2_SPI.Init.DataSize = SPI_DATASIZE_4BIT;
 125              		.loc 1 62 0
 126 0012 4FF44072 		mov	r2, #768
 127 0016 C260     		str	r2, [r0, #12]
  63:../../core/platform/octa/src/spi.c ****   P2_SPI.Init.CLKPolarity = SPI_POLARITY_LOW;
 128              		.loc 1 63 0
 129 0018 0361     		str	r3, [r0, #16]
  64:../../core/platform/octa/src/spi.c ****   P2_SPI.Init.CLKPhase = SPI_PHASE_1EDGE;
 130              		.loc 1 64 0
 131 001a 4361     		str	r3, [r0, #20]
  65:../../core/platform/octa/src/spi.c ****   P2_SPI.Init.NSS = SPI_NSS_SOFT;
 132              		.loc 1 65 0
 133 001c 4FF40072 		mov	r2, #512
 134 0020 8261     		str	r2, [r0, #24]
  66:../../core/platform/octa/src/spi.c ****   P2_SPI.Init.BaudRatePrescaler = SPI_BAUDRATEPRESCALER_2;
 135              		.loc 1 66 0
 136 0022 C361     		str	r3, [r0, #28]
  67:../../core/platform/octa/src/spi.c ****   P2_SPI.Init.FirstBit = SPI_FIRSTBIT_MSB;
 137              		.loc 1 67 0
 138 0024 0362     		str	r3, [r0, #32]
  68:../../core/platform/octa/src/spi.c ****   P2_SPI.Init.TIMode = SPI_TIMODE_DISABLE;
 139              		.loc 1 68 0
 140 0026 4362     		str	r3, [r0, #36]
  69:../../core/platform/octa/src/spi.c ****   P2_SPI.Init.CRCCalculation = SPI_CRCCALCULATION_DISABLE;
 141              		.loc 1 69 0
 142 0028 8362     		str	r3, [r0, #40]
  70:../../core/platform/octa/src/spi.c ****   P2_SPI.Init.CRCPolynomial = 7;
 143              		.loc 1 70 0
 144 002a 0722     		movs	r2, #7
 145 002c C262     		str	r2, [r0, #44]
  71:../../core/platform/octa/src/spi.c ****   P2_SPI.Init.CRCLength = SPI_CRC_LENGTH_DATASIZE;
 146              		.loc 1 71 0
 147 002e 0363     		str	r3, [r0, #48]
  72:../../core/platform/octa/src/spi.c ****   P2_SPI.Init.NSSPMode = SPI_NSS_PULSE_ENABLE;
 148              		.loc 1 72 0
 149 0030 0823     		movs	r3, #8
 150 0032 4363     		str	r3, [r0, #52]
  73:../../core/platform/octa/src/spi.c ****   if (HAL_SPI_Init(&P2_SPI) != HAL_OK)
 151              		.loc 1 73 0
 152 0034 FFF7FEFF 		bl	HAL_SPI_Init
 153              	.LVL2:
 154 0038 00B9     		cbnz	r0, .L10
 155              	.L7:
  74:../../core/platform/octa/src/spi.c ****   {
  75:../../core/platform/octa/src/spi.c ****     Error_Handler();
ARM GAS  /tmp/ccxXTvFF.s 			page 5


  76:../../core/platform/octa/src/spi.c ****   }
  77:../../core/platform/octa/src/spi.c ****   /* USER CODE BEGIN SPI2_Init 2 */
  78:../../core/platform/octa/src/spi.c **** 
  79:../../core/platform/octa/src/spi.c ****   /* USER CODE END SPI2_Init 2 */
  80:../../core/platform/octa/src/spi.c **** 
  81:../../core/platform/octa/src/spi.c **** }
 156              		.loc 1 81 0
 157 003a 08BD     		pop	{r3, pc}
 158              	.L10:
 159              	.LBB3:
  75:../../core/platform/octa/src/spi.c ****   }
 160              		.loc 1 75 0
 161 003c FFF7FEFF 		bl	Error_Handler
 162              	.LVL3:
 163              	.LBE3:
 164              		.loc 1 81 0
 165 0040 FBE7     		b	.L7
 166              	.L12:
 167 0042 00BF     		.align	2
 168              	.L11:
 169 0044 00000000 		.word	P2_SPI
 170 0048 00380040 		.word	1073756160
 171              		.cfi_endproc
 172              	.LFE124:
 174              		.section	.text.P1_SPI_Init,"ax",%progbits
 175              		.align	1
 176              		.global	P1_SPI_Init
 177              		.syntax unified
 178              		.thumb
 179              		.thumb_func
 180              		.fpu fpv4-sp-d16
 182              	P1_SPI_Init:
 183              	.LFB125:
  82:../../core/platform/octa/src/spi.c **** 
  83:../../core/platform/octa/src/spi.c **** /**
  84:../../core/platform/octa/src/spi.c ****   * @brief SPI3 Initialization Function
  85:../../core/platform/octa/src/spi.c ****   * @param None
  86:../../core/platform/octa/src/spi.c ****   * @retval None
  87:../../core/platform/octa/src/spi.c ****   */
  88:../../core/platform/octa/src/spi.c **** void P1_SPI_Init(void)
  89:../../core/platform/octa/src/spi.c **** {
 184              		.loc 1 89 0
 185              		.cfi_startproc
 186              		@ args = 0, pretend = 0, frame = 0
 187              		@ frame_needed = 0, uses_anonymous_args = 0
 188 0000 08B5     		push	{r3, lr}
 189              	.LCFI2:
 190              		.cfi_def_cfa_offset 8
 191              		.cfi_offset 3, -8
 192              		.cfi_offset 14, -4
  90:../../core/platform/octa/src/spi.c **** 
  91:../../core/platform/octa/src/spi.c ****   /* USER CODE BEGIN SPI3_Init 0 */
  92:../../core/platform/octa/src/spi.c **** 
  93:../../core/platform/octa/src/spi.c ****   /* USER CODE END SPI3_Init 0 */
  94:../../core/platform/octa/src/spi.c **** 
  95:../../core/platform/octa/src/spi.c ****   /* USER CODE BEGIN SPI3_Init 1 */
  96:../../core/platform/octa/src/spi.c **** 
ARM GAS  /tmp/ccxXTvFF.s 			page 6


  97:../../core/platform/octa/src/spi.c ****   /* USER CODE END SPI3_Init 1 */
  98:../../core/platform/octa/src/spi.c ****   /* SPI3 parameter configuration*/
  99:../../core/platform/octa/src/spi.c ****   P1_SPI.Instance = SPI3;
 193              		.loc 1 99 0
 194 0002 1048     		ldr	r0, .L17
 195 0004 104B     		ldr	r3, .L17+4
 196 0006 0360     		str	r3, [r0]
 100:../../core/platform/octa/src/spi.c ****   P1_SPI.Init.Mode = SPI_MODE_MASTER;
 197              		.loc 1 100 0
 198 0008 4FF48273 		mov	r3, #260
 199 000c 4360     		str	r3, [r0, #4]
 101:../../core/platform/octa/src/spi.c ****   P1_SPI.Init.Direction = SPI_DIRECTION_2LINES;
 200              		.loc 1 101 0
 201 000e 0023     		movs	r3, #0
 202 0010 8360     		str	r3, [r0, #8]
 102:../../core/platform/octa/src/spi.c ****   P1_SPI.Init.DataSize = SPI_DATASIZE_4BIT;
 203              		.loc 1 102 0
 204 0012 4FF44072 		mov	r2, #768
 205 0016 C260     		str	r2, [r0, #12]
 103:../../core/platform/octa/src/spi.c ****   P1_SPI.Init.CLKPolarity = SPI_POLARITY_LOW;
 206              		.loc 1 103 0
 207 0018 0361     		str	r3, [r0, #16]
 104:../../core/platform/octa/src/spi.c ****   P1_SPI.Init.CLKPhase = SPI_PHASE_1EDGE;
 208              		.loc 1 104 0
 209 001a 4361     		str	r3, [r0, #20]
 105:../../core/platform/octa/src/spi.c ****   P1_SPI.Init.NSS = SPI_NSS_SOFT;
 210              		.loc 1 105 0
 211 001c 4FF40072 		mov	r2, #512
 212 0020 8261     		str	r2, [r0, #24]
 106:../../core/platform/octa/src/spi.c ****   P1_SPI.Init.BaudRatePrescaler = SPI_BAUDRATEPRESCALER_2;
 213              		.loc 1 106 0
 214 0022 C361     		str	r3, [r0, #28]
 107:../../core/platform/octa/src/spi.c ****   P1_SPI.Init.FirstBit = SPI_FIRSTBIT_MSB;
 215              		.loc 1 107 0
 216 0024 0362     		str	r3, [r0, #32]
 108:../../core/platform/octa/src/spi.c ****   P1_SPI.Init.TIMode = SPI_TIMODE_DISABLE;
 217              		.loc 1 108 0
 218 0026 4362     		str	r3, [r0, #36]
 109:../../core/platform/octa/src/spi.c ****   P1_SPI.Init.CRCCalculation = SPI_CRCCALCULATION_DISABLE;
 219              		.loc 1 109 0
 220 0028 8362     		str	r3, [r0, #40]
 110:../../core/platform/octa/src/spi.c ****   P1_SPI.Init.CRCPolynomial = 7;
 221              		.loc 1 110 0
 222 002a 0722     		movs	r2, #7
 223 002c C262     		str	r2, [r0, #44]
 111:../../core/platform/octa/src/spi.c ****   P1_SPI.Init.CRCLength = SPI_CRC_LENGTH_DATASIZE;
 224              		.loc 1 111 0
 225 002e 0363     		str	r3, [r0, #48]
 112:../../core/platform/octa/src/spi.c ****   P1_SPI.Init.NSSPMode = SPI_NSS_PULSE_ENABLE;
 226              		.loc 1 112 0
 227 0030 0823     		movs	r3, #8
 228 0032 4363     		str	r3, [r0, #52]
 113:../../core/platform/octa/src/spi.c ****   if (HAL_SPI_Init(&P1_SPI) != HAL_OK)
 229              		.loc 1 113 0
 230 0034 FFF7FEFF 		bl	HAL_SPI_Init
 231              	.LVL4:
 232 0038 00B9     		cbnz	r0, .L16
ARM GAS  /tmp/ccxXTvFF.s 			page 7


 233              	.L13:
 114:../../core/platform/octa/src/spi.c ****   {
 115:../../core/platform/octa/src/spi.c ****     Error_Handler();
 116:../../core/platform/octa/src/spi.c ****   }
 117:../../core/platform/octa/src/spi.c ****   /* USER CODE BEGIN SPI3_Init 2 */
 118:../../core/platform/octa/src/spi.c **** 
 119:../../core/platform/octa/src/spi.c ****   /* USER CODE END SPI3_Init 2 */
 120:../../core/platform/octa/src/spi.c **** 
 121:../../core/platform/octa/src/spi.c **** }...
 234              		.loc 1 121 0
 235 003a 08BD     		pop	{r3, pc}
 236              	.L16:
 237              	.LBB4:
 115:../../core/platform/octa/src/spi.c ****     Error_Handler();
 238              		.loc 1 115 0
 239 003c FFF7FEFF 		bl	Error_Handler
 240              	.LVL5:
 241              	.LBE4:
 242              		.loc 1 121 0
 243 0040 FBE7     		b	.L13
 244              	.L18:
 245 0042 00BF     		.align	2
 246              	.L17:
 247 0044 00000000 		.word	P1_SPI
 248 0048 003C0040 		.word	1073757184
 249              		.cfi_endproc
 250              	.LFE125:
 252              		.comm	P3_SPI,100,4
 253              		.comm	P2_SPI,100,4
 254              		.comm	P1_SPI,100,4
 255              		.text
 256              	.Letext0:
 257              		.file 2 "/home/mats/gcc-arm-none-eabi-7-2018-q2-update/arm-none-eabi/include/machine/_default_type
 258              		.file 3 "/home/mats/gcc-arm-none-eabi-7-2018-q2-update/arm-none-eabi/include/sys/_stdint.h"
 259              		.file 4 "../../core/ST/CMSIS/Include/core_cm4.h"
 260              		.file 5 "../../core/ST/CMSIS/Device/ST/STM32L4xx/Include/system_stm32l4xx.h"
 261              		.file 6 "../../core/ST/CMSIS/Device/ST/STM32L4xx/Include/stm32l496xx.h"
 262              		.file 7 "../../core/ST/STM32L4xx_HAL_Driver/Inc/stm32l4xx_hal_def.h"
 263              		.file 8 "../../core/ST/STM32L4xx_HAL_Driver/Inc/stm32l4xx_hal_dma.h"
 264              		.file 9 "../../core/ST/STM32L4xx_HAL_Driver/Inc/stm32l4xx_hal_spi.h"
 265              		.file 10 "../../core/ST/STM32L4xx_HAL_Driver/Inc/stm32l4xx_hal.h"
 266              		.file 11 "../../core/platform/octa/inc/spi.h"
ARM GAS  /tmp/ccxXTvFF.s 			page 8

