ARM GAS  /tmp/cc5GoEY0.s 			page 1


   1              		.cpu cortex-m4
   2              		.eabi_attribute 27, 1
   3              		.eabi_attribute 28, 1
   4              		.eabi_attribute 20, 1
   5              		.eabi_attribute 21, 1
   6              		.eabi_attribute 23, 3
   7              		.eabi_attribute 24, 1
   8              		.eabi_attribute 25, 1
   9              		.eabi_attribute 26, 1
  10              		.eabi_attribute 30, 1
  11              		.eabi_attribute 34, 1
  12              		.eabi_attribute 18, 4
  13              		.file	"stm32l4xx_hal_uart_ex.c"
  14              		.text
  15              	.Ltext0:
  16              		.cfi_sections	.debug_frame
  17              		.section	.text.UARTEx_Wakeup_AddressConfig,"ax",%progbits
  18              		.align	1
  19              		.syntax unified
  20              		.thumb
  21              		.thumb_func
  22              		.fpu fpv4-sp-d16
  24              	UARTEx_Wakeup_AddressConfig:
  25              	.LFB131:
  26              		.file 1 "../../core/ST/STM32L4xx_HAL_Driver/Src/stm32l4xx_hal_uart_ex.c"
   1:../../core/ST/STM32L4xx_HAL_Driver/Src/stm32l4xx_hal_uart_ex.c **** /**
   2:../../core/ST/STM32L4xx_HAL_Driver/Src/stm32l4xx_hal_uart_ex.c ****   ******************************************************************************
   3:../../core/ST/STM32L4xx_HAL_Driver/Src/stm32l4xx_hal_uart_ex.c ****   * @file    stm32l4xx_hal_uart_ex.c
   4:../../core/ST/STM32L4xx_HAL_Driver/Src/stm32l4xx_hal_uart_ex.c ****   * @author  MCD Application Team
   5:../../core/ST/STM32L4xx_HAL_Driver/Src/stm32l4xx_hal_uart_ex.c ****   * @brief   Extended UART HAL module driver.
   6:../../core/ST/STM32L4xx_HAL_Driver/Src/stm32l4xx_hal_uart_ex.c ****   *          This file provides firmware functions to manage the following extended
   7:../../core/ST/STM32L4xx_HAL_Driver/Src/stm32l4xx_hal_uart_ex.c ****   *          functionalities of the Universal Asynchronous Receiver Transmitter Peripheral (UART).
   8:../../core/ST/STM32L4xx_HAL_Driver/Src/stm32l4xx_hal_uart_ex.c ****   *           + Initialization and de-initialization functions
   9:../../core/ST/STM32L4xx_HAL_Driver/Src/stm32l4xx_hal_uart_ex.c ****   *           + Peripheral Control functions
  10:../../core/ST/STM32L4xx_HAL_Driver/Src/stm32l4xx_hal_uart_ex.c ****   *
  11:../../core/ST/STM32L4xx_HAL_Driver/Src/stm32l4xx_hal_uart_ex.c ****   *
  12:../../core/ST/STM32L4xx_HAL_Driver/Src/stm32l4xx_hal_uart_ex.c ****   @verbatim
  13:../../core/ST/STM32L4xx_HAL_Driver/Src/stm32l4xx_hal_uart_ex.c ****   ==============================================================================
  14:../../core/ST/STM32L4xx_HAL_Driver/Src/stm32l4xx_hal_uart_ex.c ****                ##### UART peripheral extended features  #####
  15:../../core/ST/STM32L4xx_HAL_Driver/Src/stm32l4xx_hal_uart_ex.c ****   ==============================================================================
  16:../../core/ST/STM32L4xx_HAL_Driver/Src/stm32l4xx_hal_uart_ex.c **** 
  17:../../core/ST/STM32L4xx_HAL_Driver/Src/stm32l4xx_hal_uart_ex.c ****     (#) Declare a UART_HandleTypeDef handle structure.
  18:../../core/ST/STM32L4xx_HAL_Driver/Src/stm32l4xx_hal_uart_ex.c **** 
  19:../../core/ST/STM32L4xx_HAL_Driver/Src/stm32l4xx_hal_uart_ex.c ****     (#) For the UART RS485 Driver Enable mode, initialize the UART registers
  20:../../core/ST/STM32L4xx_HAL_Driver/Src/stm32l4xx_hal_uart_ex.c ****         by calling the HAL_RS485Ex_Init() API.
  21:../../core/ST/STM32L4xx_HAL_Driver/Src/stm32l4xx_hal_uart_ex.c **** 
  22:../../core/ST/STM32L4xx_HAL_Driver/Src/stm32l4xx_hal_uart_ex.c ****     (#) FIFO mode enabling/disabling and RX/TX FIFO threshold programming.
  23:../../core/ST/STM32L4xx_HAL_Driver/Src/stm32l4xx_hal_uart_ex.c **** 
  24:../../core/ST/STM32L4xx_HAL_Driver/Src/stm32l4xx_hal_uart_ex.c ****         -@- When UART operates in FIFO mode, FIFO mode must be enabled prior
  25:../../core/ST/STM32L4xx_HAL_Driver/Src/stm32l4xx_hal_uart_ex.c ****             starting RX/TX transfers. Also RX/TX FIFO thresholds must be
  26:../../core/ST/STM32L4xx_HAL_Driver/Src/stm32l4xx_hal_uart_ex.c ****             configured prior starting RX/TX transfers.
  27:../../core/ST/STM32L4xx_HAL_Driver/Src/stm32l4xx_hal_uart_ex.c **** 
  28:../../core/ST/STM32L4xx_HAL_Driver/Src/stm32l4xx_hal_uart_ex.c ****   @endverbatim
  29:../../core/ST/STM32L4xx_HAL_Driver/Src/stm32l4xx_hal_uart_ex.c ****   ******************************************************************************
  30:../../core/ST/STM32L4xx_HAL_Driver/Src/stm32l4xx_hal_uart_ex.c ****   * @attention
  31:../../core/ST/STM32L4xx_HAL_Driver/Src/stm32l4xx_hal_uart_ex.c ****   *
  32:../../core/ST/STM32L4xx_HAL_Driver/Src/stm32l4xx_hal_uart_ex.c ****   * <h2><center>&copy; COPYRIGHT(c) 2017 STMicroelectronics</center></h2>
ARM GAS  /tmp/cc5GoEY0.s 			page 2


  33:../../core/ST/STM32L4xx_HAL_Driver/Src/stm32l4xx_hal_uart_ex.c ****   *
  34:../../core/ST/STM32L4xx_HAL_Driver/Src/stm32l4xx_hal_uart_ex.c ****   * Redistribution and use in source and binary forms, with or without modification,
  35:../../core/ST/STM32L4xx_HAL_Driver/Src/stm32l4xx_hal_uart_ex.c ****   * are permitted provided that the following conditions are met:
  36:../../core/ST/STM32L4xx_HAL_Driver/Src/stm32l4xx_hal_uart_ex.c ****   *   1. Redistributions of source code must retain the above copyright notice,
  37:../../core/ST/STM32L4xx_HAL_Driver/Src/stm32l4xx_hal_uart_ex.c ****   *      this list of conditions and the following disclaimer.
  38:../../core/ST/STM32L4xx_HAL_Driver/Src/stm32l4xx_hal_uart_ex.c ****   *   2. Redistributions in binary form must reproduce the above copyright notice,
  39:../../core/ST/STM32L4xx_HAL_Driver/Src/stm32l4xx_hal_uart_ex.c ****   *      this list of conditions and the following disclaimer in the documentation
  40:../../core/ST/STM32L4xx_HAL_Driver/Src/stm32l4xx_hal_uart_ex.c ****   *      and/or other materials provided with the distribution.
  41:../../core/ST/STM32L4xx_HAL_Driver/Src/stm32l4xx_hal_uart_ex.c ****   *   3. Neither the name of STMicroelectronics nor the names of its contributors
  42:../../core/ST/STM32L4xx_HAL_Driver/Src/stm32l4xx_hal_uart_ex.c ****   *      may be used to endorse or promote products derived from this software
  43:../../core/ST/STM32L4xx_HAL_Driver/Src/stm32l4xx_hal_uart_ex.c ****   *      without specific prior written permission.
  44:../../core/ST/STM32L4xx_HAL_Driver/Src/stm32l4xx_hal_uart_ex.c ****   *
  45:../../core/ST/STM32L4xx_HAL_Driver/Src/stm32l4xx_hal_uart_ex.c ****   * THIS SOFTWARE IS PROVIDED BY THE COPYRIGHT HOLDERS AND CONTRIBUTORS "AS IS"
  46:../../core/ST/STM32L4xx_HAL_Driver/Src/stm32l4xx_hal_uart_ex.c ****   * AND ANY EXPRESS OR IMPLIED WARRANTIES, INCLUDING, BUT NOT LIMITED TO, THE
  47:../../core/ST/STM32L4xx_HAL_Driver/Src/stm32l4xx_hal_uart_ex.c ****   * IMPLIED WARRANTIES OF MERCHANTABILITY AND FITNESS FOR A PARTICULAR PURPOSE ARE
  48:../../core/ST/STM32L4xx_HAL_Driver/Src/stm32l4xx_hal_uart_ex.c ****   * DISCLAIMED. IN NO EVENT SHALL THE COPYRIGHT HOLDER OR CONTRIBUTORS BE LIABLE
  49:../../core/ST/STM32L4xx_HAL_Driver/Src/stm32l4xx_hal_uart_ex.c ****   * FOR ANY DIRECT, INDIRECT, INCIDENTAL, SPECIAL, EXEMPLARY, OR CONSEQUENTIAL
  50:../../core/ST/STM32L4xx_HAL_Driver/Src/stm32l4xx_hal_uart_ex.c ****   * DAMAGES (INCLUDING, BUT NOT LIMITED TO, PROCUREMENT OF SUBSTITUTE GOODS OR
  51:../../core/ST/STM32L4xx_HAL_Driver/Src/stm32l4xx_hal_uart_ex.c ****   * SERVICES; LOSS OF USE, DATA, OR PROFITS; OR BUSINESS INTERRUPTION) HOWEVER
  52:../../core/ST/STM32L4xx_HAL_Driver/Src/stm32l4xx_hal_uart_ex.c ****   * CAUSED AND ON ANY THEORY OF LIABILITY, WHETHER IN CONTRACT, STRICT LIABILITY,
  53:../../core/ST/STM32L4xx_HAL_Driver/Src/stm32l4xx_hal_uart_ex.c ****   * OR TORT (INCLUDING NEGLIGENCE OR OTHERWISE) ARISING IN ANY WAY OUT OF THE USE
  54:../../core/ST/STM32L4xx_HAL_Driver/Src/stm32l4xx_hal_uart_ex.c ****   * OF THIS SOFTWARE, EVEN IF ADVISED OF THE POSSIBILITY OF SUCH DAMAGE.
  55:../../core/ST/STM32L4xx_HAL_Driver/Src/stm32l4xx_hal_uart_ex.c ****   *
  56:../../core/ST/STM32L4xx_HAL_Driver/Src/stm32l4xx_hal_uart_ex.c ****   ******************************************************************************
  57:../../core/ST/STM32L4xx_HAL_Driver/Src/stm32l4xx_hal_uart_ex.c ****   */
  58:../../core/ST/STM32L4xx_HAL_Driver/Src/stm32l4xx_hal_uart_ex.c **** 
  59:../../core/ST/STM32L4xx_HAL_Driver/Src/stm32l4xx_hal_uart_ex.c **** /* Includes ------------------------------------------------------------------*/
  60:../../core/ST/STM32L4xx_HAL_Driver/Src/stm32l4xx_hal_uart_ex.c **** #include "stm32l4xx_hal.h"
  61:../../core/ST/STM32L4xx_HAL_Driver/Src/stm32l4xx_hal_uart_ex.c **** 
  62:../../core/ST/STM32L4xx_HAL_Driver/Src/stm32l4xx_hal_uart_ex.c **** /** @addtogroup STM32L4xx_HAL_Driver
  63:../../core/ST/STM32L4xx_HAL_Driver/Src/stm32l4xx_hal_uart_ex.c ****   * @{
  64:../../core/ST/STM32L4xx_HAL_Driver/Src/stm32l4xx_hal_uart_ex.c ****   */
  65:../../core/ST/STM32L4xx_HAL_Driver/Src/stm32l4xx_hal_uart_ex.c **** 
  66:../../core/ST/STM32L4xx_HAL_Driver/Src/stm32l4xx_hal_uart_ex.c **** /** @defgroup UARTEx UARTEx
  67:../../core/ST/STM32L4xx_HAL_Driver/Src/stm32l4xx_hal_uart_ex.c ****   * @brief UART Extended HAL module driver
  68:../../core/ST/STM32L4xx_HAL_Driver/Src/stm32l4xx_hal_uart_ex.c ****   * @{
  69:../../core/ST/STM32L4xx_HAL_Driver/Src/stm32l4xx_hal_uart_ex.c ****   */
  70:../../core/ST/STM32L4xx_HAL_Driver/Src/stm32l4xx_hal_uart_ex.c **** 
  71:../../core/ST/STM32L4xx_HAL_Driver/Src/stm32l4xx_hal_uart_ex.c **** #ifdef HAL_UART_MODULE_ENABLED
  72:../../core/ST/STM32L4xx_HAL_Driver/Src/stm32l4xx_hal_uart_ex.c **** 
  73:../../core/ST/STM32L4xx_HAL_Driver/Src/stm32l4xx_hal_uart_ex.c **** /* Private typedef -----------------------------------------------------------*/
  74:../../core/ST/STM32L4xx_HAL_Driver/Src/stm32l4xx_hal_uart_ex.c **** /* Private define ------------------------------------------------------------*/
  75:../../core/ST/STM32L4xx_HAL_Driver/Src/stm32l4xx_hal_uart_ex.c **** #if defined(USART_CR1_FIFOEN)
  76:../../core/ST/STM32L4xx_HAL_Driver/Src/stm32l4xx_hal_uart_ex.c **** /* UART RX FIFO depth */
  77:../../core/ST/STM32L4xx_HAL_Driver/Src/stm32l4xx_hal_uart_ex.c **** #define RX_FIFO_DEPTH 8U
  78:../../core/ST/STM32L4xx_HAL_Driver/Src/stm32l4xx_hal_uart_ex.c **** 
  79:../../core/ST/STM32L4xx_HAL_Driver/Src/stm32l4xx_hal_uart_ex.c **** /* UART TX FIFO depth */
  80:../../core/ST/STM32L4xx_HAL_Driver/Src/stm32l4xx_hal_uart_ex.c **** #define TX_FIFO_DEPTH 8U
  81:../../core/ST/STM32L4xx_HAL_Driver/Src/stm32l4xx_hal_uart_ex.c **** #endif
  82:../../core/ST/STM32L4xx_HAL_Driver/Src/stm32l4xx_hal_uart_ex.c **** 
  83:../../core/ST/STM32L4xx_HAL_Driver/Src/stm32l4xx_hal_uart_ex.c **** /* Private macros ------------------------------------------------------------*/
  84:../../core/ST/STM32L4xx_HAL_Driver/Src/stm32l4xx_hal_uart_ex.c **** /* Private variables ---------------------------------------------------------*/
  85:../../core/ST/STM32L4xx_HAL_Driver/Src/stm32l4xx_hal_uart_ex.c **** /* Private function prototypes -----------------------------------------------*/
  86:../../core/ST/STM32L4xx_HAL_Driver/Src/stm32l4xx_hal_uart_ex.c **** /** @defgroup UARTEx_Private_Functions UARTEx Private Functions
  87:../../core/ST/STM32L4xx_HAL_Driver/Src/stm32l4xx_hal_uart_ex.c ****   * @{
  88:../../core/ST/STM32L4xx_HAL_Driver/Src/stm32l4xx_hal_uart_ex.c ****   */
  89:../../core/ST/STM32L4xx_HAL_Driver/Src/stm32l4xx_hal_uart_ex.c **** #if (USE_HAL_UART_REGISTER_CALLBACKS == 1)
ARM GAS  /tmp/cc5GoEY0.s 			page 3


  90:../../core/ST/STM32L4xx_HAL_Driver/Src/stm32l4xx_hal_uart_ex.c **** extern void UART_InitCallbacksToDefault(UART_HandleTypeDef *huart);
  91:../../core/ST/STM32L4xx_HAL_Driver/Src/stm32l4xx_hal_uart_ex.c **** #endif /* USE_HAL_UART_REGISTER_CALLBACKS */
  92:../../core/ST/STM32L4xx_HAL_Driver/Src/stm32l4xx_hal_uart_ex.c **** static void UARTEx_Wakeup_AddressConfig(UART_HandleTypeDef *huart, UART_WakeUpTypeDef WakeUpSelecti
  93:../../core/ST/STM32L4xx_HAL_Driver/Src/stm32l4xx_hal_uart_ex.c **** #if defined(USART_CR1_FIFOEN)
  94:../../core/ST/STM32L4xx_HAL_Driver/Src/stm32l4xx_hal_uart_ex.c **** static void UARTEx_SetNbDataToProcess(UART_HandleTypeDef *huart);
  95:../../core/ST/STM32L4xx_HAL_Driver/Src/stm32l4xx_hal_uart_ex.c **** #endif
  96:../../core/ST/STM32L4xx_HAL_Driver/Src/stm32l4xx_hal_uart_ex.c **** /**
  97:../../core/ST/STM32L4xx_HAL_Driver/Src/stm32l4xx_hal_uart_ex.c ****   * @}
  98:../../core/ST/STM32L4xx_HAL_Driver/Src/stm32l4xx_hal_uart_ex.c ****   */
  99:../../core/ST/STM32L4xx_HAL_Driver/Src/stm32l4xx_hal_uart_ex.c **** 
 100:../../core/ST/STM32L4xx_HAL_Driver/Src/stm32l4xx_hal_uart_ex.c **** /* Exported functions --------------------------------------------------------*/
 101:../../core/ST/STM32L4xx_HAL_Driver/Src/stm32l4xx_hal_uart_ex.c **** 
 102:../../core/ST/STM32L4xx_HAL_Driver/Src/stm32l4xx_hal_uart_ex.c **** /** @defgroup UARTEx_Exported_Functions  UARTEx Exported Functions
 103:../../core/ST/STM32L4xx_HAL_Driver/Src/stm32l4xx_hal_uart_ex.c ****   * @{
 104:../../core/ST/STM32L4xx_HAL_Driver/Src/stm32l4xx_hal_uart_ex.c ****   */
 105:../../core/ST/STM32L4xx_HAL_Driver/Src/stm32l4xx_hal_uart_ex.c **** 
 106:../../core/ST/STM32L4xx_HAL_Driver/Src/stm32l4xx_hal_uart_ex.c **** /** @defgroup UARTEx_Exported_Functions_Group1 Initialization and de-initialization functions
 107:../../core/ST/STM32L4xx_HAL_Driver/Src/stm32l4xx_hal_uart_ex.c ****   * @brief    Extended Initialization and Configuration Functions
 108:../../core/ST/STM32L4xx_HAL_Driver/Src/stm32l4xx_hal_uart_ex.c ****   *
 109:../../core/ST/STM32L4xx_HAL_Driver/Src/stm32l4xx_hal_uart_ex.c **** @verbatim
 110:../../core/ST/STM32L4xx_HAL_Driver/Src/stm32l4xx_hal_uart_ex.c **** ===============================================================================
 111:../../core/ST/STM32L4xx_HAL_Driver/Src/stm32l4xx_hal_uart_ex.c ****             ##### Initialization and Configuration functions #####
 112:../../core/ST/STM32L4xx_HAL_Driver/Src/stm32l4xx_hal_uart_ex.c ****  ===============================================================================
 113:../../core/ST/STM32L4xx_HAL_Driver/Src/stm32l4xx_hal_uart_ex.c ****     [..]
 114:../../core/ST/STM32L4xx_HAL_Driver/Src/stm32l4xx_hal_uart_ex.c ****     This subsection provides a set of functions allowing to initialize the USARTx or the UARTy
 115:../../core/ST/STM32L4xx_HAL_Driver/Src/stm32l4xx_hal_uart_ex.c ****     in asynchronous mode.
 116:../../core/ST/STM32L4xx_HAL_Driver/Src/stm32l4xx_hal_uart_ex.c ****       (+) For the asynchronous mode the parameters below can be configured:
 117:../../core/ST/STM32L4xx_HAL_Driver/Src/stm32l4xx_hal_uart_ex.c ****         (++) Baud Rate
 118:../../core/ST/STM32L4xx_HAL_Driver/Src/stm32l4xx_hal_uart_ex.c ****         (++) Word Length
 119:../../core/ST/STM32L4xx_HAL_Driver/Src/stm32l4xx_hal_uart_ex.c ****         (++) Stop Bit
 120:../../core/ST/STM32L4xx_HAL_Driver/Src/stm32l4xx_hal_uart_ex.c ****         (++) Parity: If the parity is enabled, then the MSB bit of the data written
 121:../../core/ST/STM32L4xx_HAL_Driver/Src/stm32l4xx_hal_uart_ex.c ****              in the data register is transmitted but is changed by the parity bit.
 122:../../core/ST/STM32L4xx_HAL_Driver/Src/stm32l4xx_hal_uart_ex.c ****         (++) Hardware flow control
 123:../../core/ST/STM32L4xx_HAL_Driver/Src/stm32l4xx_hal_uart_ex.c ****         (++) Receiver/transmitter modes
 124:../../core/ST/STM32L4xx_HAL_Driver/Src/stm32l4xx_hal_uart_ex.c ****         (++) Over Sampling Method
 125:../../core/ST/STM32L4xx_HAL_Driver/Src/stm32l4xx_hal_uart_ex.c ****         (++) One-Bit Sampling Method
 126:../../core/ST/STM32L4xx_HAL_Driver/Src/stm32l4xx_hal_uart_ex.c ****       (+) For the asynchronous mode, the following advanced features can be configured as well:
 127:../../core/ST/STM32L4xx_HAL_Driver/Src/stm32l4xx_hal_uart_ex.c ****         (++) TX and/or RX pin level inversion
 128:../../core/ST/STM32L4xx_HAL_Driver/Src/stm32l4xx_hal_uart_ex.c ****         (++) data logical level inversion
 129:../../core/ST/STM32L4xx_HAL_Driver/Src/stm32l4xx_hal_uart_ex.c ****         (++) RX and TX pins swap
 130:../../core/ST/STM32L4xx_HAL_Driver/Src/stm32l4xx_hal_uart_ex.c ****         (++) RX overrun detection disabling
 131:../../core/ST/STM32L4xx_HAL_Driver/Src/stm32l4xx_hal_uart_ex.c ****         (++) DMA disabling on RX error
 132:../../core/ST/STM32L4xx_HAL_Driver/Src/stm32l4xx_hal_uart_ex.c ****         (++) MSB first on communication line
 133:../../core/ST/STM32L4xx_HAL_Driver/Src/stm32l4xx_hal_uart_ex.c ****         (++) auto Baud rate detection
 134:../../core/ST/STM32L4xx_HAL_Driver/Src/stm32l4xx_hal_uart_ex.c ****     [..]
 135:../../core/ST/STM32L4xx_HAL_Driver/Src/stm32l4xx_hal_uart_ex.c ****     The HAL_RS485Ex_Init() API follows the UART RS485 mode configuration
 136:../../core/ST/STM32L4xx_HAL_Driver/Src/stm32l4xx_hal_uart_ex.c ****      procedures (details for the procedures are available in reference manual).
 137:../../core/ST/STM32L4xx_HAL_Driver/Src/stm32l4xx_hal_uart_ex.c **** 
 138:../../core/ST/STM32L4xx_HAL_Driver/Src/stm32l4xx_hal_uart_ex.c **** @endverbatim
 139:../../core/ST/STM32L4xx_HAL_Driver/Src/stm32l4xx_hal_uart_ex.c **** 
 140:../../core/ST/STM32L4xx_HAL_Driver/Src/stm32l4xx_hal_uart_ex.c ****   Depending on the frame length defined by the M1 and M0 bits (7-bit,
 141:../../core/ST/STM32L4xx_HAL_Driver/Src/stm32l4xx_hal_uart_ex.c ****   8-bit or 9-bit), the possible UART formats are listed in the
 142:../../core/ST/STM32L4xx_HAL_Driver/Src/stm32l4xx_hal_uart_ex.c ****   following table.
 143:../../core/ST/STM32L4xx_HAL_Driver/Src/stm32l4xx_hal_uart_ex.c **** 
 144:../../core/ST/STM32L4xx_HAL_Driver/Src/stm32l4xx_hal_uart_ex.c ****     Table 1. UART frame format.
 145:../../core/ST/STM32L4xx_HAL_Driver/Src/stm32l4xx_hal_uart_ex.c ****     +-----------------------------------------------------------------------+
 146:../../core/ST/STM32L4xx_HAL_Driver/Src/stm32l4xx_hal_uart_ex.c ****     |  M1 bit |  M0 bit |  PCE bit  |             UART frame                |
ARM GAS  /tmp/cc5GoEY0.s 			page 4


 147:../../core/ST/STM32L4xx_HAL_Driver/Src/stm32l4xx_hal_uart_ex.c ****     |---------|---------|-----------|---------------------------------------|
 148:../../core/ST/STM32L4xx_HAL_Driver/Src/stm32l4xx_hal_uart_ex.c ****     |    0    |    0    |    0      |    | SB |    8 bit data   | STB |     |
 149:../../core/ST/STM32L4xx_HAL_Driver/Src/stm32l4xx_hal_uart_ex.c ****     |---------|---------|-----------|---------------------------------------|
 150:../../core/ST/STM32L4xx_HAL_Driver/Src/stm32l4xx_hal_uart_ex.c ****     |    0    |    0    |    1      |    | SB | 7 bit data | PB | STB |     |
 151:../../core/ST/STM32L4xx_HAL_Driver/Src/stm32l4xx_hal_uart_ex.c ****     |---------|---------|-----------|---------------------------------------|
 152:../../core/ST/STM32L4xx_HAL_Driver/Src/stm32l4xx_hal_uart_ex.c ****     |    0    |    1    |    0      |    | SB |    9 bit data   | STB |     |
 153:../../core/ST/STM32L4xx_HAL_Driver/Src/stm32l4xx_hal_uart_ex.c ****     |---------|---------|-----------|---------------------------------------|
 154:../../core/ST/STM32L4xx_HAL_Driver/Src/stm32l4xx_hal_uart_ex.c ****     |    0    |    1    |    1      |    | SB | 8 bit data | PB | STB |     |
 155:../../core/ST/STM32L4xx_HAL_Driver/Src/stm32l4xx_hal_uart_ex.c ****     |---------|---------|-----------|---------------------------------------|
 156:../../core/ST/STM32L4xx_HAL_Driver/Src/stm32l4xx_hal_uart_ex.c ****     |    1    |    0    |    0      |    | SB |    7 bit data   | STB |     |
 157:../../core/ST/STM32L4xx_HAL_Driver/Src/stm32l4xx_hal_uart_ex.c ****     |---------|---------|-----------|---------------------------------------|
 158:../../core/ST/STM32L4xx_HAL_Driver/Src/stm32l4xx_hal_uart_ex.c ****     |    1    |    0    |    1      |    | SB | 6 bit data | PB | STB |     |
 159:../../core/ST/STM32L4xx_HAL_Driver/Src/stm32l4xx_hal_uart_ex.c ****     +-----------------------------------------------------------------------+
 160:../../core/ST/STM32L4xx_HAL_Driver/Src/stm32l4xx_hal_uart_ex.c **** 
 161:../../core/ST/STM32L4xx_HAL_Driver/Src/stm32l4xx_hal_uart_ex.c ****   * @{
 162:../../core/ST/STM32L4xx_HAL_Driver/Src/stm32l4xx_hal_uart_ex.c ****   */
 163:../../core/ST/STM32L4xx_HAL_Driver/Src/stm32l4xx_hal_uart_ex.c **** 
 164:../../core/ST/STM32L4xx_HAL_Driver/Src/stm32l4xx_hal_uart_ex.c **** /**
 165:../../core/ST/STM32L4xx_HAL_Driver/Src/stm32l4xx_hal_uart_ex.c ****   * @brief Initialize the RS485 Driver enable feature according to the specified
 166:../../core/ST/STM32L4xx_HAL_Driver/Src/stm32l4xx_hal_uart_ex.c ****   *         parameters in the UART_InitTypeDef and creates the associated handle.
 167:../../core/ST/STM32L4xx_HAL_Driver/Src/stm32l4xx_hal_uart_ex.c ****   * @param huart            UART handle.
 168:../../core/ST/STM32L4xx_HAL_Driver/Src/stm32l4xx_hal_uart_ex.c ****   * @param Polarity         Select the driver enable polarity.
 169:../../core/ST/STM32L4xx_HAL_Driver/Src/stm32l4xx_hal_uart_ex.c ****   *          This parameter can be one of the following values:
 170:../../core/ST/STM32L4xx_HAL_Driver/Src/stm32l4xx_hal_uart_ex.c ****   *          @arg @ref UART_DE_POLARITY_HIGH DE signal is active high
 171:../../core/ST/STM32L4xx_HAL_Driver/Src/stm32l4xx_hal_uart_ex.c ****   *          @arg @ref UART_DE_POLARITY_LOW  DE signal is active low
 172:../../core/ST/STM32L4xx_HAL_Driver/Src/stm32l4xx_hal_uart_ex.c ****   * @param AssertionTime    Driver Enable assertion time:
 173:../../core/ST/STM32L4xx_HAL_Driver/Src/stm32l4xx_hal_uart_ex.c ****   *       5-bit value defining the time between the activation of the DE (Driver Enable)
 174:../../core/ST/STM32L4xx_HAL_Driver/Src/stm32l4xx_hal_uart_ex.c ****   *       signal and the beginning of the start bit. It is expressed in sample time
 175:../../core/ST/STM32L4xx_HAL_Driver/Src/stm32l4xx_hal_uart_ex.c ****   *       units (1/8 or 1/16 bit time, depending on the oversampling rate)
 176:../../core/ST/STM32L4xx_HAL_Driver/Src/stm32l4xx_hal_uart_ex.c ****   * @param DeassertionTime  Driver Enable deassertion time:
 177:../../core/ST/STM32L4xx_HAL_Driver/Src/stm32l4xx_hal_uart_ex.c ****   *       5-bit value defining the time between the end of the last stop bit, in a
 178:../../core/ST/STM32L4xx_HAL_Driver/Src/stm32l4xx_hal_uart_ex.c ****   *       transmitted message, and the de-activation of the DE (Driver Enable) signal.
 179:../../core/ST/STM32L4xx_HAL_Driver/Src/stm32l4xx_hal_uart_ex.c ****   *       It is expressed in sample time units (1/8 or 1/16 bit time, depending on the
 180:../../core/ST/STM32L4xx_HAL_Driver/Src/stm32l4xx_hal_uart_ex.c ****   *       oversampling rate).
 181:../../core/ST/STM32L4xx_HAL_Driver/Src/stm32l4xx_hal_uart_ex.c ****   * @retval HAL status
 182:../../core/ST/STM32L4xx_HAL_Driver/Src/stm32l4xx_hal_uart_ex.c ****   */
 183:../../core/ST/STM32L4xx_HAL_Driver/Src/stm32l4xx_hal_uart_ex.c **** HAL_StatusTypeDef HAL_RS485Ex_Init(UART_HandleTypeDef *huart, uint32_t Polarity, uint32_t Assertion
 184:../../core/ST/STM32L4xx_HAL_Driver/Src/stm32l4xx_hal_uart_ex.c **** {
 185:../../core/ST/STM32L4xx_HAL_Driver/Src/stm32l4xx_hal_uart_ex.c ****   uint32_t temp = 0x0U;
 186:../../core/ST/STM32L4xx_HAL_Driver/Src/stm32l4xx_hal_uart_ex.c **** 
 187:../../core/ST/STM32L4xx_HAL_Driver/Src/stm32l4xx_hal_uart_ex.c ****   /* Check the UART handle allocation */
 188:../../core/ST/STM32L4xx_HAL_Driver/Src/stm32l4xx_hal_uart_ex.c ****   if (huart == NULL)
 189:../../core/ST/STM32L4xx_HAL_Driver/Src/stm32l4xx_hal_uart_ex.c ****   {
 190:../../core/ST/STM32L4xx_HAL_Driver/Src/stm32l4xx_hal_uart_ex.c ****     return HAL_ERROR;
 191:../../core/ST/STM32L4xx_HAL_Driver/Src/stm32l4xx_hal_uart_ex.c ****   }
 192:../../core/ST/STM32L4xx_HAL_Driver/Src/stm32l4xx_hal_uart_ex.c ****   /* Check the Driver Enable UART instance */
 193:../../core/ST/STM32L4xx_HAL_Driver/Src/stm32l4xx_hal_uart_ex.c ****   assert_param(IS_UART_DRIVER_ENABLE_INSTANCE(huart->Instance));
 194:../../core/ST/STM32L4xx_HAL_Driver/Src/stm32l4xx_hal_uart_ex.c **** 
 195:../../core/ST/STM32L4xx_HAL_Driver/Src/stm32l4xx_hal_uart_ex.c ****   /* Check the Driver Enable polarity */
 196:../../core/ST/STM32L4xx_HAL_Driver/Src/stm32l4xx_hal_uart_ex.c ****   assert_param(IS_UART_DE_POLARITY(Polarity));
 197:../../core/ST/STM32L4xx_HAL_Driver/Src/stm32l4xx_hal_uart_ex.c **** 
 198:../../core/ST/STM32L4xx_HAL_Driver/Src/stm32l4xx_hal_uart_ex.c ****   /* Check the Driver Enable assertion time */
 199:../../core/ST/STM32L4xx_HAL_Driver/Src/stm32l4xx_hal_uart_ex.c ****   assert_param(IS_UART_ASSERTIONTIME(AssertionTime));
 200:../../core/ST/STM32L4xx_HAL_Driver/Src/stm32l4xx_hal_uart_ex.c **** 
 201:../../core/ST/STM32L4xx_HAL_Driver/Src/stm32l4xx_hal_uart_ex.c ****   /* Check the Driver Enable deassertion time */
 202:../../core/ST/STM32L4xx_HAL_Driver/Src/stm32l4xx_hal_uart_ex.c ****   assert_param(IS_UART_DEASSERTIONTIME(DeassertionTime));
 203:../../core/ST/STM32L4xx_HAL_Driver/Src/stm32l4xx_hal_uart_ex.c **** 
ARM GAS  /tmp/cc5GoEY0.s 			page 5


 204:../../core/ST/STM32L4xx_HAL_Driver/Src/stm32l4xx_hal_uart_ex.c ****   if (huart->gState == HAL_UART_STATE_RESET)
 205:../../core/ST/STM32L4xx_HAL_Driver/Src/stm32l4xx_hal_uart_ex.c ****   {
 206:../../core/ST/STM32L4xx_HAL_Driver/Src/stm32l4xx_hal_uart_ex.c ****     /* Allocate lock resource and initialize it */
 207:../../core/ST/STM32L4xx_HAL_Driver/Src/stm32l4xx_hal_uart_ex.c ****     huart->Lock = HAL_UNLOCKED;
 208:../../core/ST/STM32L4xx_HAL_Driver/Src/stm32l4xx_hal_uart_ex.c **** 
 209:../../core/ST/STM32L4xx_HAL_Driver/Src/stm32l4xx_hal_uart_ex.c **** #if (USE_HAL_UART_REGISTER_CALLBACKS == 1)
 210:../../core/ST/STM32L4xx_HAL_Driver/Src/stm32l4xx_hal_uart_ex.c ****     UART_InitCallbacksToDefault(huart);
 211:../../core/ST/STM32L4xx_HAL_Driver/Src/stm32l4xx_hal_uart_ex.c **** 
 212:../../core/ST/STM32L4xx_HAL_Driver/Src/stm32l4xx_hal_uart_ex.c ****     if (huart->MspInitCallback == NULL)
 213:../../core/ST/STM32L4xx_HAL_Driver/Src/stm32l4xx_hal_uart_ex.c ****     {
 214:../../core/ST/STM32L4xx_HAL_Driver/Src/stm32l4xx_hal_uart_ex.c ****       huart->MspInitCallback = HAL_UART_MspInit;
 215:../../core/ST/STM32L4xx_HAL_Driver/Src/stm32l4xx_hal_uart_ex.c ****     }
 216:../../core/ST/STM32L4xx_HAL_Driver/Src/stm32l4xx_hal_uart_ex.c **** 
 217:../../core/ST/STM32L4xx_HAL_Driver/Src/stm32l4xx_hal_uart_ex.c ****     /* Init the low level hardware */
 218:../../core/ST/STM32L4xx_HAL_Driver/Src/stm32l4xx_hal_uart_ex.c ****     huart->MspInitCallback(huart);
 219:../../core/ST/STM32L4xx_HAL_Driver/Src/stm32l4xx_hal_uart_ex.c **** #else
 220:../../core/ST/STM32L4xx_HAL_Driver/Src/stm32l4xx_hal_uart_ex.c ****     /* Init the low level hardware : GPIO, CLOCK, CORTEX */
 221:../../core/ST/STM32L4xx_HAL_Driver/Src/stm32l4xx_hal_uart_ex.c ****     HAL_UART_MspInit(huart);
 222:../../core/ST/STM32L4xx_HAL_Driver/Src/stm32l4xx_hal_uart_ex.c **** #endif /* (USE_HAL_UART_REGISTER_CALLBACKS) */
 223:../../core/ST/STM32L4xx_HAL_Driver/Src/stm32l4xx_hal_uart_ex.c ****   }
 224:../../core/ST/STM32L4xx_HAL_Driver/Src/stm32l4xx_hal_uart_ex.c **** 
 225:../../core/ST/STM32L4xx_HAL_Driver/Src/stm32l4xx_hal_uart_ex.c ****   huart->gState = HAL_UART_STATE_BUSY;
 226:../../core/ST/STM32L4xx_HAL_Driver/Src/stm32l4xx_hal_uart_ex.c **** 
 227:../../core/ST/STM32L4xx_HAL_Driver/Src/stm32l4xx_hal_uart_ex.c ****   /* Disable the Peripheral */
 228:../../core/ST/STM32L4xx_HAL_Driver/Src/stm32l4xx_hal_uart_ex.c ****   __HAL_UART_DISABLE(huart);
 229:../../core/ST/STM32L4xx_HAL_Driver/Src/stm32l4xx_hal_uart_ex.c **** 
 230:../../core/ST/STM32L4xx_HAL_Driver/Src/stm32l4xx_hal_uart_ex.c ****   /* Set the UART Communication parameters */
 231:../../core/ST/STM32L4xx_HAL_Driver/Src/stm32l4xx_hal_uart_ex.c ****   if (UART_SetConfig(huart) == HAL_ERROR)
 232:../../core/ST/STM32L4xx_HAL_Driver/Src/stm32l4xx_hal_uart_ex.c ****   {
 233:../../core/ST/STM32L4xx_HAL_Driver/Src/stm32l4xx_hal_uart_ex.c ****     return HAL_ERROR;
 234:../../core/ST/STM32L4xx_HAL_Driver/Src/stm32l4xx_hal_uart_ex.c ****   }
 235:../../core/ST/STM32L4xx_HAL_Driver/Src/stm32l4xx_hal_uart_ex.c **** 
 236:../../core/ST/STM32L4xx_HAL_Driver/Src/stm32l4xx_hal_uart_ex.c ****   if (huart->AdvancedInit.AdvFeatureInit != UART_ADVFEATURE_NO_INIT)
 237:../../core/ST/STM32L4xx_HAL_Driver/Src/stm32l4xx_hal_uart_ex.c ****   {
 238:../../core/ST/STM32L4xx_HAL_Driver/Src/stm32l4xx_hal_uart_ex.c ****     UART_AdvFeatureConfig(huart);
 239:../../core/ST/STM32L4xx_HAL_Driver/Src/stm32l4xx_hal_uart_ex.c ****   }
 240:../../core/ST/STM32L4xx_HAL_Driver/Src/stm32l4xx_hal_uart_ex.c **** 
 241:../../core/ST/STM32L4xx_HAL_Driver/Src/stm32l4xx_hal_uart_ex.c ****   /* Enable the Driver Enable mode by setting the DEM bit in the CR3 register */
 242:../../core/ST/STM32L4xx_HAL_Driver/Src/stm32l4xx_hal_uart_ex.c ****   SET_BIT(huart->Instance->CR3, USART_CR3_DEM);
 243:../../core/ST/STM32L4xx_HAL_Driver/Src/stm32l4xx_hal_uart_ex.c **** 
 244:../../core/ST/STM32L4xx_HAL_Driver/Src/stm32l4xx_hal_uart_ex.c ****   /* Set the Driver Enable polarity */
 245:../../core/ST/STM32L4xx_HAL_Driver/Src/stm32l4xx_hal_uart_ex.c ****   MODIFY_REG(huart->Instance->CR3, USART_CR3_DEP, Polarity);
 246:../../core/ST/STM32L4xx_HAL_Driver/Src/stm32l4xx_hal_uart_ex.c **** 
 247:../../core/ST/STM32L4xx_HAL_Driver/Src/stm32l4xx_hal_uart_ex.c ****   /* Set the Driver Enable assertion and deassertion times */
 248:../../core/ST/STM32L4xx_HAL_Driver/Src/stm32l4xx_hal_uart_ex.c ****   temp = (AssertionTime << UART_CR1_DEAT_ADDRESS_LSB_POS);
 249:../../core/ST/STM32L4xx_HAL_Driver/Src/stm32l4xx_hal_uart_ex.c ****   temp |= (DeassertionTime << UART_CR1_DEDT_ADDRESS_LSB_POS);
 250:../../core/ST/STM32L4xx_HAL_Driver/Src/stm32l4xx_hal_uart_ex.c ****   MODIFY_REG(huart->Instance->CR1, (USART_CR1_DEDT | USART_CR1_DEAT), temp);
 251:../../core/ST/STM32L4xx_HAL_Driver/Src/stm32l4xx_hal_uart_ex.c **** 
 252:../../core/ST/STM32L4xx_HAL_Driver/Src/stm32l4xx_hal_uart_ex.c ****   /* Enable the Peripheral */
 253:../../core/ST/STM32L4xx_HAL_Driver/Src/stm32l4xx_hal_uart_ex.c ****   __HAL_UART_ENABLE(huart);
 254:../../core/ST/STM32L4xx_HAL_Driver/Src/stm32l4xx_hal_uart_ex.c **** 
 255:../../core/ST/STM32L4xx_HAL_Driver/Src/stm32l4xx_hal_uart_ex.c ****   /* TEACK and/or REACK to check before moving huart->gState and huart->RxState to Ready */
 256:../../core/ST/STM32L4xx_HAL_Driver/Src/stm32l4xx_hal_uart_ex.c ****   return (UART_CheckIdleState(huart));
 257:../../core/ST/STM32L4xx_HAL_Driver/Src/stm32l4xx_hal_uart_ex.c **** }
 258:../../core/ST/STM32L4xx_HAL_Driver/Src/stm32l4xx_hal_uart_ex.c **** 
 259:../../core/ST/STM32L4xx_HAL_Driver/Src/stm32l4xx_hal_uart_ex.c **** 
 260:../../core/ST/STM32L4xx_HAL_Driver/Src/stm32l4xx_hal_uart_ex.c **** /**
ARM GAS  /tmp/cc5GoEY0.s 			page 6


 261:../../core/ST/STM32L4xx_HAL_Driver/Src/stm32l4xx_hal_uart_ex.c ****   * @}
 262:../../core/ST/STM32L4xx_HAL_Driver/Src/stm32l4xx_hal_uart_ex.c ****   */
 263:../../core/ST/STM32L4xx_HAL_Driver/Src/stm32l4xx_hal_uart_ex.c **** 
 264:../../core/ST/STM32L4xx_HAL_Driver/Src/stm32l4xx_hal_uart_ex.c **** /** @defgroup UARTEx_Exported_Functions_Group2 IO operation functions
 265:../../core/ST/STM32L4xx_HAL_Driver/Src/stm32l4xx_hal_uart_ex.c ****   *  @brief Extended functions
 266:../../core/ST/STM32L4xx_HAL_Driver/Src/stm32l4xx_hal_uart_ex.c ****   *
 267:../../core/ST/STM32L4xx_HAL_Driver/Src/stm32l4xx_hal_uart_ex.c **** @verbatim
 268:../../core/ST/STM32L4xx_HAL_Driver/Src/stm32l4xx_hal_uart_ex.c ****  ===============================================================================
 269:../../core/ST/STM32L4xx_HAL_Driver/Src/stm32l4xx_hal_uart_ex.c ****                       ##### IO operation functions #####
 270:../../core/ST/STM32L4xx_HAL_Driver/Src/stm32l4xx_hal_uart_ex.c ****  ===============================================================================
 271:../../core/ST/STM32L4xx_HAL_Driver/Src/stm32l4xx_hal_uart_ex.c ****     This subsection provides a set of Wakeup and FIFO mode related callback functions.
 272:../../core/ST/STM32L4xx_HAL_Driver/Src/stm32l4xx_hal_uart_ex.c **** 
 273:../../core/ST/STM32L4xx_HAL_Driver/Src/stm32l4xx_hal_uart_ex.c ****     (#) Wakeup from Stop mode Callback:
 274:../../core/ST/STM32L4xx_HAL_Driver/Src/stm32l4xx_hal_uart_ex.c ****         (+) HAL_UARTEx_WakeupCallback()
 275:../../core/ST/STM32L4xx_HAL_Driver/Src/stm32l4xx_hal_uart_ex.c **** 
 276:../../core/ST/STM32L4xx_HAL_Driver/Src/stm32l4xx_hal_uart_ex.c ****     (#) TX/RX Fifos Callbacks:
 277:../../core/ST/STM32L4xx_HAL_Driver/Src/stm32l4xx_hal_uart_ex.c ****         (+) HAL_UARTEx_RxFifoFullCallback()
 278:../../core/ST/STM32L4xx_HAL_Driver/Src/stm32l4xx_hal_uart_ex.c ****         (+) HAL_UARTEx_TxFifoEmptyCallback()
 279:../../core/ST/STM32L4xx_HAL_Driver/Src/stm32l4xx_hal_uart_ex.c **** 
 280:../../core/ST/STM32L4xx_HAL_Driver/Src/stm32l4xx_hal_uart_ex.c **** @endverbatim
 281:../../core/ST/STM32L4xx_HAL_Driver/Src/stm32l4xx_hal_uart_ex.c ****   * @{
 282:../../core/ST/STM32L4xx_HAL_Driver/Src/stm32l4xx_hal_uart_ex.c ****   */
 283:../../core/ST/STM32L4xx_HAL_Driver/Src/stm32l4xx_hal_uart_ex.c **** 
 284:../../core/ST/STM32L4xx_HAL_Driver/Src/stm32l4xx_hal_uart_ex.c **** /**
 285:../../core/ST/STM32L4xx_HAL_Driver/Src/stm32l4xx_hal_uart_ex.c ****   * @brief UART wakeup from Stop mode callback.
 286:../../core/ST/STM32L4xx_HAL_Driver/Src/stm32l4xx_hal_uart_ex.c ****   * @param huart UART handle.
 287:../../core/ST/STM32L4xx_HAL_Driver/Src/stm32l4xx_hal_uart_ex.c ****   * @retval None
 288:../../core/ST/STM32L4xx_HAL_Driver/Src/stm32l4xx_hal_uart_ex.c ****   */
 289:../../core/ST/STM32L4xx_HAL_Driver/Src/stm32l4xx_hal_uart_ex.c **** __weak void HAL_UARTEx_WakeupCallback(UART_HandleTypeDef *huart)
 290:../../core/ST/STM32L4xx_HAL_Driver/Src/stm32l4xx_hal_uart_ex.c **** {
 291:../../core/ST/STM32L4xx_HAL_Driver/Src/stm32l4xx_hal_uart_ex.c ****   /* Prevent unused argument(s) compilation warning */
 292:../../core/ST/STM32L4xx_HAL_Driver/Src/stm32l4xx_hal_uart_ex.c ****   UNUSED(huart);
 293:../../core/ST/STM32L4xx_HAL_Driver/Src/stm32l4xx_hal_uart_ex.c **** 
 294:../../core/ST/STM32L4xx_HAL_Driver/Src/stm32l4xx_hal_uart_ex.c ****   /* NOTE : This function should not be modified, when the callback is needed,
 295:../../core/ST/STM32L4xx_HAL_Driver/Src/stm32l4xx_hal_uart_ex.c ****             the HAL_UARTEx_WakeupCallback can be implemented in the user file.
 296:../../core/ST/STM32L4xx_HAL_Driver/Src/stm32l4xx_hal_uart_ex.c ****    */
 297:../../core/ST/STM32L4xx_HAL_Driver/Src/stm32l4xx_hal_uart_ex.c **** }
 298:../../core/ST/STM32L4xx_HAL_Driver/Src/stm32l4xx_hal_uart_ex.c **** 
 299:../../core/ST/STM32L4xx_HAL_Driver/Src/stm32l4xx_hal_uart_ex.c **** #if defined(USART_CR1_FIFOEN)
 300:../../core/ST/STM32L4xx_HAL_Driver/Src/stm32l4xx_hal_uart_ex.c **** /**
 301:../../core/ST/STM32L4xx_HAL_Driver/Src/stm32l4xx_hal_uart_ex.c ****   * @brief  UART RX Fifo full callback.
 302:../../core/ST/STM32L4xx_HAL_Driver/Src/stm32l4xx_hal_uart_ex.c ****   * @param  huart UART handle.
 303:../../core/ST/STM32L4xx_HAL_Driver/Src/stm32l4xx_hal_uart_ex.c ****   * @retval None
 304:../../core/ST/STM32L4xx_HAL_Driver/Src/stm32l4xx_hal_uart_ex.c ****   */
 305:../../core/ST/STM32L4xx_HAL_Driver/Src/stm32l4xx_hal_uart_ex.c **** __weak void HAL_UARTEx_RxFifoFullCallback(UART_HandleTypeDef *huart)
 306:../../core/ST/STM32L4xx_HAL_Driver/Src/stm32l4xx_hal_uart_ex.c **** {
 307:../../core/ST/STM32L4xx_HAL_Driver/Src/stm32l4xx_hal_uart_ex.c ****   /* Prevent unused argument(s) compilation warning */
 308:../../core/ST/STM32L4xx_HAL_Driver/Src/stm32l4xx_hal_uart_ex.c ****   UNUSED(huart);
 309:../../core/ST/STM32L4xx_HAL_Driver/Src/stm32l4xx_hal_uart_ex.c **** 
 310:../../core/ST/STM32L4xx_HAL_Driver/Src/stm32l4xx_hal_uart_ex.c ****   /* NOTE : This function should not be modified, when the callback is needed,
 311:../../core/ST/STM32L4xx_HAL_Driver/Src/stm32l4xx_hal_uart_ex.c ****             the HAL_UARTEx_RxFifoFullCallback can be implemented in the user file.
 312:../../core/ST/STM32L4xx_HAL_Driver/Src/stm32l4xx_hal_uart_ex.c ****    */
 313:../../core/ST/STM32L4xx_HAL_Driver/Src/stm32l4xx_hal_uart_ex.c **** }
 314:../../core/ST/STM32L4xx_HAL_Driver/Src/stm32l4xx_hal_uart_ex.c **** 
 315:../../core/ST/STM32L4xx_HAL_Driver/Src/stm32l4xx_hal_uart_ex.c **** /**
 316:../../core/ST/STM32L4xx_HAL_Driver/Src/stm32l4xx_hal_uart_ex.c ****   * @brief  UART TX Fifo empty callback.
 317:../../core/ST/STM32L4xx_HAL_Driver/Src/stm32l4xx_hal_uart_ex.c ****   * @param  huart UART handle.
ARM GAS  /tmp/cc5GoEY0.s 			page 7


 318:../../core/ST/STM32L4xx_HAL_Driver/Src/stm32l4xx_hal_uart_ex.c ****   * @retval None
 319:../../core/ST/STM32L4xx_HAL_Driver/Src/stm32l4xx_hal_uart_ex.c ****   */
 320:../../core/ST/STM32L4xx_HAL_Driver/Src/stm32l4xx_hal_uart_ex.c **** __weak void HAL_UARTEx_TxFifoEmptyCallback(UART_HandleTypeDef *huart)
 321:../../core/ST/STM32L4xx_HAL_Driver/Src/stm32l4xx_hal_uart_ex.c **** {
 322:../../core/ST/STM32L4xx_HAL_Driver/Src/stm32l4xx_hal_uart_ex.c ****   /* Prevent unused argument(s) compilation warning */
 323:../../core/ST/STM32L4xx_HAL_Driver/Src/stm32l4xx_hal_uart_ex.c ****   UNUSED(huart);
 324:../../core/ST/STM32L4xx_HAL_Driver/Src/stm32l4xx_hal_uart_ex.c **** 
 325:../../core/ST/STM32L4xx_HAL_Driver/Src/stm32l4xx_hal_uart_ex.c ****   /* NOTE : This function should not be modified, when the callback is needed,
 326:../../core/ST/STM32L4xx_HAL_Driver/Src/stm32l4xx_hal_uart_ex.c ****             the HAL_UARTEx_TxFifoEmptyCallback can be implemented in the user file.
 327:../../core/ST/STM32L4xx_HAL_Driver/Src/stm32l4xx_hal_uart_ex.c ****    */
 328:../../core/ST/STM32L4xx_HAL_Driver/Src/stm32l4xx_hal_uart_ex.c **** }
 329:../../core/ST/STM32L4xx_HAL_Driver/Src/stm32l4xx_hal_uart_ex.c **** #endif
 330:../../core/ST/STM32L4xx_HAL_Driver/Src/stm32l4xx_hal_uart_ex.c **** 
 331:../../core/ST/STM32L4xx_HAL_Driver/Src/stm32l4xx_hal_uart_ex.c **** /**
 332:../../core/ST/STM32L4xx_HAL_Driver/Src/stm32l4xx_hal_uart_ex.c ****   * @}
 333:../../core/ST/STM32L4xx_HAL_Driver/Src/stm32l4xx_hal_uart_ex.c ****   */
 334:../../core/ST/STM32L4xx_HAL_Driver/Src/stm32l4xx_hal_uart_ex.c **** 
 335:../../core/ST/STM32L4xx_HAL_Driver/Src/stm32l4xx_hal_uart_ex.c **** /** @defgroup UARTEx_Exported_Functions_Group3 Peripheral Control functions
 336:../../core/ST/STM32L4xx_HAL_Driver/Src/stm32l4xx_hal_uart_ex.c ****   * @brief    Extended Peripheral Control functions
 337:../../core/ST/STM32L4xx_HAL_Driver/Src/stm32l4xx_hal_uart_ex.c ****  *
 338:../../core/ST/STM32L4xx_HAL_Driver/Src/stm32l4xx_hal_uart_ex.c **** @verbatim
 339:../../core/ST/STM32L4xx_HAL_Driver/Src/stm32l4xx_hal_uart_ex.c ****  ===============================================================================
 340:../../core/ST/STM32L4xx_HAL_Driver/Src/stm32l4xx_hal_uart_ex.c ****                       ##### Peripheral Control functions #####
 341:../../core/ST/STM32L4xx_HAL_Driver/Src/stm32l4xx_hal_uart_ex.c ****  ===============================================================================
 342:../../core/ST/STM32L4xx_HAL_Driver/Src/stm32l4xx_hal_uart_ex.c ****     [..] This section provides the following functions:
 343:../../core/ST/STM32L4xx_HAL_Driver/Src/stm32l4xx_hal_uart_ex.c ****      (+) HAL_UARTEx_EnableClockStopMode() API enables the UART clock (HSI or LSE only) during stop 
 344:../../core/ST/STM32L4xx_HAL_Driver/Src/stm32l4xx_hal_uart_ex.c ****      (+) HAL_UARTEx_DisableClockStopMode() API disables the above functionality
 345:../../core/ST/STM32L4xx_HAL_Driver/Src/stm32l4xx_hal_uart_ex.c ****      (+) HAL_MultiProcessorEx_AddressLength_Set() API optionally sets the UART node address
 346:../../core/ST/STM32L4xx_HAL_Driver/Src/stm32l4xx_hal_uart_ex.c ****          detection length to more than 4 bits for multiprocessor address mark wake up.
 347:../../core/ST/STM32L4xx_HAL_Driver/Src/stm32l4xx_hal_uart_ex.c ****      (+) HAL_UARTEx_StopModeWakeUpSourceConfig() API defines the wake-up from stop mode
 348:../../core/ST/STM32L4xx_HAL_Driver/Src/stm32l4xx_hal_uart_ex.c ****          trigger: address match, Start Bit detection or RXNE bit status.
 349:../../core/ST/STM32L4xx_HAL_Driver/Src/stm32l4xx_hal_uart_ex.c ****      (+) HAL_UARTEx_EnableStopMode() API enables the UART to wake up the MCU from stop mode
 350:../../core/ST/STM32L4xx_HAL_Driver/Src/stm32l4xx_hal_uart_ex.c ****      (+) HAL_UARTEx_DisableStopMode() API disables the above functionality
 351:../../core/ST/STM32L4xx_HAL_Driver/Src/stm32l4xx_hal_uart_ex.c ****      (+) HAL_UARTEx_WakeupCallback() called upon UART wakeup interrupt
 352:../../core/ST/STM32L4xx_HAL_Driver/Src/stm32l4xx_hal_uart_ex.c ****      (+) HAL_UARTEx_EnableFifoMode() API enables the FIFO mode
 353:../../core/ST/STM32L4xx_HAL_Driver/Src/stm32l4xx_hal_uart_ex.c ****      (+) HAL_UARTEx_DisableFifoMode() API disables the FIFO mode
 354:../../core/ST/STM32L4xx_HAL_Driver/Src/stm32l4xx_hal_uart_ex.c ****      (+) HAL_UARTEx_SetTxFifoThreshold() API sets the TX FIFO threshold
 355:../../core/ST/STM32L4xx_HAL_Driver/Src/stm32l4xx_hal_uart_ex.c ****      (+) HAL_UARTEx_SetRxFifoThreshold() API sets the RX FIFO threshold
 356:../../core/ST/STM32L4xx_HAL_Driver/Src/stm32l4xx_hal_uart_ex.c **** 
 357:../../core/ST/STM32L4xx_HAL_Driver/Src/stm32l4xx_hal_uart_ex.c **** @endverbatim
 358:../../core/ST/STM32L4xx_HAL_Driver/Src/stm32l4xx_hal_uart_ex.c ****   * @{
 359:../../core/ST/STM32L4xx_HAL_Driver/Src/stm32l4xx_hal_uart_ex.c ****   */
 360:../../core/ST/STM32L4xx_HAL_Driver/Src/stm32l4xx_hal_uart_ex.c **** 
 361:../../core/ST/STM32L4xx_HAL_Driver/Src/stm32l4xx_hal_uart_ex.c **** 
 362:../../core/ST/STM32L4xx_HAL_Driver/Src/stm32l4xx_hal_uart_ex.c **** 
 363:../../core/ST/STM32L4xx_HAL_Driver/Src/stm32l4xx_hal_uart_ex.c **** #if defined(USART_CR3_UCESM)
 364:../../core/ST/STM32L4xx_HAL_Driver/Src/stm32l4xx_hal_uart_ex.c **** /**
 365:../../core/ST/STM32L4xx_HAL_Driver/Src/stm32l4xx_hal_uart_ex.c ****   * @brief  Keep UART Clock enabled when in Stop Mode.
 366:../../core/ST/STM32L4xx_HAL_Driver/Src/stm32l4xx_hal_uart_ex.c ****   * @note   When the USART clock source is configured to be LSE or HSI, it is possible to keep enab
 367:../../core/ST/STM32L4xx_HAL_Driver/Src/stm32l4xx_hal_uart_ex.c ****   *         this clock during STOP mode by setting the UCESM bit in USART_CR3 control register.
 368:../../core/ST/STM32L4xx_HAL_Driver/Src/stm32l4xx_hal_uart_ex.c ****   * @note   When LPUART is used to wakeup from stop with LSE is selected as LPUART clock source, 
 369:../../core/ST/STM32L4xx_HAL_Driver/Src/stm32l4xx_hal_uart_ex.c ****   *         and desired baud rate is 9600 baud, the bit UCESM bit in LPUART_CR3 control register mu
 370:../../core/ST/STM32L4xx_HAL_Driver/Src/stm32l4xx_hal_uart_ex.c ****   * @param  huart UART handle.
 371:../../core/ST/STM32L4xx_HAL_Driver/Src/stm32l4xx_hal_uart_ex.c ****   * @retval HAL status
 372:../../core/ST/STM32L4xx_HAL_Driver/Src/stm32l4xx_hal_uart_ex.c ****   */
 373:../../core/ST/STM32L4xx_HAL_Driver/Src/stm32l4xx_hal_uart_ex.c **** HAL_StatusTypeDef HAL_UARTEx_EnableClockStopMode(UART_HandleTypeDef *huart)
 374:../../core/ST/STM32L4xx_HAL_Driver/Src/stm32l4xx_hal_uart_ex.c **** {
ARM GAS  /tmp/cc5GoEY0.s 			page 8


 375:../../core/ST/STM32L4xx_HAL_Driver/Src/stm32l4xx_hal_uart_ex.c ****   /* Process Locked */
 376:../../core/ST/STM32L4xx_HAL_Driver/Src/stm32l4xx_hal_uart_ex.c ****   __HAL_LOCK(huart);
 377:../../core/ST/STM32L4xx_HAL_Driver/Src/stm32l4xx_hal_uart_ex.c **** 
 378:../../core/ST/STM32L4xx_HAL_Driver/Src/stm32l4xx_hal_uart_ex.c ****   /* Set UCESM bit */
 379:../../core/ST/STM32L4xx_HAL_Driver/Src/stm32l4xx_hal_uart_ex.c ****   SET_BIT(huart->Instance->CR3, USART_CR3_UCESM);
 380:../../core/ST/STM32L4xx_HAL_Driver/Src/stm32l4xx_hal_uart_ex.c **** 
 381:../../core/ST/STM32L4xx_HAL_Driver/Src/stm32l4xx_hal_uart_ex.c ****   /* Process Unlocked */
 382:../../core/ST/STM32L4xx_HAL_Driver/Src/stm32l4xx_hal_uart_ex.c ****   __HAL_UNLOCK(huart);
 383:../../core/ST/STM32L4xx_HAL_Driver/Src/stm32l4xx_hal_uart_ex.c **** 
 384:../../core/ST/STM32L4xx_HAL_Driver/Src/stm32l4xx_hal_uart_ex.c ****   return HAL_OK;
 385:../../core/ST/STM32L4xx_HAL_Driver/Src/stm32l4xx_hal_uart_ex.c **** }
 386:../../core/ST/STM32L4xx_HAL_Driver/Src/stm32l4xx_hal_uart_ex.c **** 
 387:../../core/ST/STM32L4xx_HAL_Driver/Src/stm32l4xx_hal_uart_ex.c **** /**
 388:../../core/ST/STM32L4xx_HAL_Driver/Src/stm32l4xx_hal_uart_ex.c ****   * @brief  Disable UART Clock when in Stop Mode.
 389:../../core/ST/STM32L4xx_HAL_Driver/Src/stm32l4xx_hal_uart_ex.c ****   * @param  huart UART handle.
 390:../../core/ST/STM32L4xx_HAL_Driver/Src/stm32l4xx_hal_uart_ex.c ****   * @retval HAL status
 391:../../core/ST/STM32L4xx_HAL_Driver/Src/stm32l4xx_hal_uart_ex.c ****   */
 392:../../core/ST/STM32L4xx_HAL_Driver/Src/stm32l4xx_hal_uart_ex.c **** HAL_StatusTypeDef HAL_UARTEx_DisableClockStopMode(UART_HandleTypeDef *huart)
 393:../../core/ST/STM32L4xx_HAL_Driver/Src/stm32l4xx_hal_uart_ex.c **** {
 394:../../core/ST/STM32L4xx_HAL_Driver/Src/stm32l4xx_hal_uart_ex.c ****   /* Process Locked */
 395:../../core/ST/STM32L4xx_HAL_Driver/Src/stm32l4xx_hal_uart_ex.c ****   __HAL_LOCK(huart);
 396:../../core/ST/STM32L4xx_HAL_Driver/Src/stm32l4xx_hal_uart_ex.c **** 
 397:../../core/ST/STM32L4xx_HAL_Driver/Src/stm32l4xx_hal_uart_ex.c ****   /* Clear UCESM bit */
 398:../../core/ST/STM32L4xx_HAL_Driver/Src/stm32l4xx_hal_uart_ex.c ****   CLEAR_BIT(huart->Instance->CR3, USART_CR3_UCESM);
 399:../../core/ST/STM32L4xx_HAL_Driver/Src/stm32l4xx_hal_uart_ex.c **** 
 400:../../core/ST/STM32L4xx_HAL_Driver/Src/stm32l4xx_hal_uart_ex.c ****   /* Process Unlocked */
 401:../../core/ST/STM32L4xx_HAL_Driver/Src/stm32l4xx_hal_uart_ex.c ****   __HAL_UNLOCK(huart);
 402:../../core/ST/STM32L4xx_HAL_Driver/Src/stm32l4xx_hal_uart_ex.c **** 
 403:../../core/ST/STM32L4xx_HAL_Driver/Src/stm32l4xx_hal_uart_ex.c ****   return HAL_OK;
 404:../../core/ST/STM32L4xx_HAL_Driver/Src/stm32l4xx_hal_uart_ex.c **** }
 405:../../core/ST/STM32L4xx_HAL_Driver/Src/stm32l4xx_hal_uart_ex.c **** #endif /* USART_CR3_UCESM */
 406:../../core/ST/STM32L4xx_HAL_Driver/Src/stm32l4xx_hal_uart_ex.c **** 
 407:../../core/ST/STM32L4xx_HAL_Driver/Src/stm32l4xx_hal_uart_ex.c **** /**
 408:../../core/ST/STM32L4xx_HAL_Driver/Src/stm32l4xx_hal_uart_ex.c ****   * @brief By default in multiprocessor mode, when the wake up method is set
 409:../../core/ST/STM32L4xx_HAL_Driver/Src/stm32l4xx_hal_uart_ex.c ****   *        to address mark, the UART handles only 4-bit long addresses detection;
 410:../../core/ST/STM32L4xx_HAL_Driver/Src/stm32l4xx_hal_uart_ex.c ****   *        this API allows to enable longer addresses detection (6-, 7- or 8-bit
 411:../../core/ST/STM32L4xx_HAL_Driver/Src/stm32l4xx_hal_uart_ex.c ****   *        long).
 412:../../core/ST/STM32L4xx_HAL_Driver/Src/stm32l4xx_hal_uart_ex.c ****   * @note  Addresses detection lengths are: 6-bit address detection in 7-bit data mode,
 413:../../core/ST/STM32L4xx_HAL_Driver/Src/stm32l4xx_hal_uart_ex.c ****   *        7-bit address detection in 8-bit data mode, 8-bit address detection in 9-bit data mode.
 414:../../core/ST/STM32L4xx_HAL_Driver/Src/stm32l4xx_hal_uart_ex.c ****   * @param huart         UART handle.
 415:../../core/ST/STM32L4xx_HAL_Driver/Src/stm32l4xx_hal_uart_ex.c ****   * @param AddressLength This parameter can be one of the following values:
 416:../../core/ST/STM32L4xx_HAL_Driver/Src/stm32l4xx_hal_uart_ex.c ****   *          @arg @ref UART_ADDRESS_DETECT_4B 4-bit long address
 417:../../core/ST/STM32L4xx_HAL_Driver/Src/stm32l4xx_hal_uart_ex.c ****   *          @arg @ref UART_ADDRESS_DETECT_7B 6-, 7- or 8-bit long address
 418:../../core/ST/STM32L4xx_HAL_Driver/Src/stm32l4xx_hal_uart_ex.c ****   * @retval HAL status
 419:../../core/ST/STM32L4xx_HAL_Driver/Src/stm32l4xx_hal_uart_ex.c ****   */
 420:../../core/ST/STM32L4xx_HAL_Driver/Src/stm32l4xx_hal_uart_ex.c **** HAL_StatusTypeDef HAL_MultiProcessorEx_AddressLength_Set(UART_HandleTypeDef *huart, uint32_t Addres
 421:../../core/ST/STM32L4xx_HAL_Driver/Src/stm32l4xx_hal_uart_ex.c **** {
 422:../../core/ST/STM32L4xx_HAL_Driver/Src/stm32l4xx_hal_uart_ex.c ****   /* Check the UART handle allocation */
 423:../../core/ST/STM32L4xx_HAL_Driver/Src/stm32l4xx_hal_uart_ex.c ****   if (huart == NULL)
 424:../../core/ST/STM32L4xx_HAL_Driver/Src/stm32l4xx_hal_uart_ex.c ****   {
 425:../../core/ST/STM32L4xx_HAL_Driver/Src/stm32l4xx_hal_uart_ex.c ****     return HAL_ERROR;
 426:../../core/ST/STM32L4xx_HAL_Driver/Src/stm32l4xx_hal_uart_ex.c ****   }
 427:../../core/ST/STM32L4xx_HAL_Driver/Src/stm32l4xx_hal_uart_ex.c **** 
 428:../../core/ST/STM32L4xx_HAL_Driver/Src/stm32l4xx_hal_uart_ex.c ****   /* Check the address length parameter */
 429:../../core/ST/STM32L4xx_HAL_Driver/Src/stm32l4xx_hal_uart_ex.c ****   assert_param(IS_UART_ADDRESSLENGTH_DETECT(AddressLength));
 430:../../core/ST/STM32L4xx_HAL_Driver/Src/stm32l4xx_hal_uart_ex.c **** 
 431:../../core/ST/STM32L4xx_HAL_Driver/Src/stm32l4xx_hal_uart_ex.c ****   huart->gState = HAL_UART_STATE_BUSY;
ARM GAS  /tmp/cc5GoEY0.s 			page 9


 432:../../core/ST/STM32L4xx_HAL_Driver/Src/stm32l4xx_hal_uart_ex.c **** 
 433:../../core/ST/STM32L4xx_HAL_Driver/Src/stm32l4xx_hal_uart_ex.c ****   /* Disable the Peripheral */
 434:../../core/ST/STM32L4xx_HAL_Driver/Src/stm32l4xx_hal_uart_ex.c ****   __HAL_UART_DISABLE(huart);
 435:../../core/ST/STM32L4xx_HAL_Driver/Src/stm32l4xx_hal_uart_ex.c **** 
 436:../../core/ST/STM32L4xx_HAL_Driver/Src/stm32l4xx_hal_uart_ex.c ****   /* Set the address length */
 437:../../core/ST/STM32L4xx_HAL_Driver/Src/stm32l4xx_hal_uart_ex.c ****   MODIFY_REG(huart->Instance->CR2, USART_CR2_ADDM7, AddressLength);
 438:../../core/ST/STM32L4xx_HAL_Driver/Src/stm32l4xx_hal_uart_ex.c **** 
 439:../../core/ST/STM32L4xx_HAL_Driver/Src/stm32l4xx_hal_uart_ex.c ****   /* Enable the Peripheral */
 440:../../core/ST/STM32L4xx_HAL_Driver/Src/stm32l4xx_hal_uart_ex.c ****   __HAL_UART_ENABLE(huart);
 441:../../core/ST/STM32L4xx_HAL_Driver/Src/stm32l4xx_hal_uart_ex.c **** 
 442:../../core/ST/STM32L4xx_HAL_Driver/Src/stm32l4xx_hal_uart_ex.c ****   /* TEACK and/or REACK to check before moving huart->gState to Ready */
 443:../../core/ST/STM32L4xx_HAL_Driver/Src/stm32l4xx_hal_uart_ex.c ****   return (UART_CheckIdleState(huart));
 444:../../core/ST/STM32L4xx_HAL_Driver/Src/stm32l4xx_hal_uart_ex.c **** }
 445:../../core/ST/STM32L4xx_HAL_Driver/Src/stm32l4xx_hal_uart_ex.c **** 
 446:../../core/ST/STM32L4xx_HAL_Driver/Src/stm32l4xx_hal_uart_ex.c **** 
 447:../../core/ST/STM32L4xx_HAL_Driver/Src/stm32l4xx_hal_uart_ex.c **** /**
 448:../../core/ST/STM32L4xx_HAL_Driver/Src/stm32l4xx_hal_uart_ex.c ****   * @brief Set Wakeup from Stop mode interrupt flag selection.
 449:../../core/ST/STM32L4xx_HAL_Driver/Src/stm32l4xx_hal_uart_ex.c ****   * @note It is the application responsibility to enable the interrupt used as
 450:../../core/ST/STM32L4xx_HAL_Driver/Src/stm32l4xx_hal_uart_ex.c ****   *       usart_wkup interrupt source before entering low-power mode.
 451:../../core/ST/STM32L4xx_HAL_Driver/Src/stm32l4xx_hal_uart_ex.c ****   * @param huart           UART handle.
 452:../../core/ST/STM32L4xx_HAL_Driver/Src/stm32l4xx_hal_uart_ex.c ****   * @param WakeUpSelection Address match, Start Bit detection or RXNE/RXFNE bit status.
 453:../../core/ST/STM32L4xx_HAL_Driver/Src/stm32l4xx_hal_uart_ex.c ****   *          This parameter can be one of the following values:
 454:../../core/ST/STM32L4xx_HAL_Driver/Src/stm32l4xx_hal_uart_ex.c ****   *          @arg @ref UART_WAKEUP_ON_ADDRESS
 455:../../core/ST/STM32L4xx_HAL_Driver/Src/stm32l4xx_hal_uart_ex.c ****   *          @arg @ref UART_WAKEUP_ON_STARTBIT
 456:../../core/ST/STM32L4xx_HAL_Driver/Src/stm32l4xx_hal_uart_ex.c ****   *          @arg @ref UART_WAKEUP_ON_READDATA_NONEMPTY
 457:../../core/ST/STM32L4xx_HAL_Driver/Src/stm32l4xx_hal_uart_ex.c ****   * @retval HAL status
 458:../../core/ST/STM32L4xx_HAL_Driver/Src/stm32l4xx_hal_uart_ex.c ****   */
 459:../../core/ST/STM32L4xx_HAL_Driver/Src/stm32l4xx_hal_uart_ex.c **** HAL_StatusTypeDef HAL_UARTEx_StopModeWakeUpSourceConfig(UART_HandleTypeDef *huart, UART_WakeUpTypeD
 460:../../core/ST/STM32L4xx_HAL_Driver/Src/stm32l4xx_hal_uart_ex.c **** {
 461:../../core/ST/STM32L4xx_HAL_Driver/Src/stm32l4xx_hal_uart_ex.c ****   HAL_StatusTypeDef status = HAL_OK;
 462:../../core/ST/STM32L4xx_HAL_Driver/Src/stm32l4xx_hal_uart_ex.c ****   uint32_t tickstart = 0U;
 463:../../core/ST/STM32L4xx_HAL_Driver/Src/stm32l4xx_hal_uart_ex.c **** 
 464:../../core/ST/STM32L4xx_HAL_Driver/Src/stm32l4xx_hal_uart_ex.c ****   /* check the wake-up from stop mode UART instance */
 465:../../core/ST/STM32L4xx_HAL_Driver/Src/stm32l4xx_hal_uart_ex.c ****   assert_param(IS_UART_WAKEUP_FROMSTOP_INSTANCE(huart->Instance));
 466:../../core/ST/STM32L4xx_HAL_Driver/Src/stm32l4xx_hal_uart_ex.c ****   /* check the wake-up selection parameter */
 467:../../core/ST/STM32L4xx_HAL_Driver/Src/stm32l4xx_hal_uart_ex.c ****   assert_param(IS_UART_WAKEUP_SELECTION(WakeUpSelection.WakeUpEvent));
 468:../../core/ST/STM32L4xx_HAL_Driver/Src/stm32l4xx_hal_uart_ex.c **** 
 469:../../core/ST/STM32L4xx_HAL_Driver/Src/stm32l4xx_hal_uart_ex.c ****   /* Process Locked */
 470:../../core/ST/STM32L4xx_HAL_Driver/Src/stm32l4xx_hal_uart_ex.c ****   __HAL_LOCK(huart);
 471:../../core/ST/STM32L4xx_HAL_Driver/Src/stm32l4xx_hal_uart_ex.c **** 
 472:../../core/ST/STM32L4xx_HAL_Driver/Src/stm32l4xx_hal_uart_ex.c ****   huart->gState = HAL_UART_STATE_BUSY;
 473:../../core/ST/STM32L4xx_HAL_Driver/Src/stm32l4xx_hal_uart_ex.c **** 
 474:../../core/ST/STM32L4xx_HAL_Driver/Src/stm32l4xx_hal_uart_ex.c ****   /* Disable the Peripheral */
 475:../../core/ST/STM32L4xx_HAL_Driver/Src/stm32l4xx_hal_uart_ex.c ****   __HAL_UART_DISABLE(huart);
 476:../../core/ST/STM32L4xx_HAL_Driver/Src/stm32l4xx_hal_uart_ex.c **** 
 477:../../core/ST/STM32L4xx_HAL_Driver/Src/stm32l4xx_hal_uart_ex.c ****   /* Set the wake-up selection scheme */
 478:../../core/ST/STM32L4xx_HAL_Driver/Src/stm32l4xx_hal_uart_ex.c ****   MODIFY_REG(huart->Instance->CR3, USART_CR3_WUS, WakeUpSelection.WakeUpEvent);
 479:../../core/ST/STM32L4xx_HAL_Driver/Src/stm32l4xx_hal_uart_ex.c **** 
 480:../../core/ST/STM32L4xx_HAL_Driver/Src/stm32l4xx_hal_uart_ex.c ****   if (WakeUpSelection.WakeUpEvent == UART_WAKEUP_ON_ADDRESS)
 481:../../core/ST/STM32L4xx_HAL_Driver/Src/stm32l4xx_hal_uart_ex.c ****   {
 482:../../core/ST/STM32L4xx_HAL_Driver/Src/stm32l4xx_hal_uart_ex.c ****     UARTEx_Wakeup_AddressConfig(huart, WakeUpSelection);
 483:../../core/ST/STM32L4xx_HAL_Driver/Src/stm32l4xx_hal_uart_ex.c ****   }
 484:../../core/ST/STM32L4xx_HAL_Driver/Src/stm32l4xx_hal_uart_ex.c **** 
 485:../../core/ST/STM32L4xx_HAL_Driver/Src/stm32l4xx_hal_uart_ex.c ****   /* Enable the Peripheral */
 486:../../core/ST/STM32L4xx_HAL_Driver/Src/stm32l4xx_hal_uart_ex.c ****   __HAL_UART_ENABLE(huart);
 487:../../core/ST/STM32L4xx_HAL_Driver/Src/stm32l4xx_hal_uart_ex.c **** 
 488:../../core/ST/STM32L4xx_HAL_Driver/Src/stm32l4xx_hal_uart_ex.c ****   /* Init tickstart for timeout managment*/
ARM GAS  /tmp/cc5GoEY0.s 			page 10


 489:../../core/ST/STM32L4xx_HAL_Driver/Src/stm32l4xx_hal_uart_ex.c ****   tickstart = HAL_GetTick();
 490:../../core/ST/STM32L4xx_HAL_Driver/Src/stm32l4xx_hal_uart_ex.c **** 
 491:../../core/ST/STM32L4xx_HAL_Driver/Src/stm32l4xx_hal_uart_ex.c ****   /* Wait until REACK flag is set */
 492:../../core/ST/STM32L4xx_HAL_Driver/Src/stm32l4xx_hal_uart_ex.c ****   if (UART_WaitOnFlagUntilTimeout(huart, USART_ISR_REACK, RESET, tickstart, HAL_UART_TIMEOUT_VALUE)
 493:../../core/ST/STM32L4xx_HAL_Driver/Src/stm32l4xx_hal_uart_ex.c ****   {
 494:../../core/ST/STM32L4xx_HAL_Driver/Src/stm32l4xx_hal_uart_ex.c ****     status = HAL_TIMEOUT;
 495:../../core/ST/STM32L4xx_HAL_Driver/Src/stm32l4xx_hal_uart_ex.c ****   }
 496:../../core/ST/STM32L4xx_HAL_Driver/Src/stm32l4xx_hal_uart_ex.c ****   else
 497:../../core/ST/STM32L4xx_HAL_Driver/Src/stm32l4xx_hal_uart_ex.c ****   {
 498:../../core/ST/STM32L4xx_HAL_Driver/Src/stm32l4xx_hal_uart_ex.c ****     /* Initialize the UART State */
 499:../../core/ST/STM32L4xx_HAL_Driver/Src/stm32l4xx_hal_uart_ex.c ****     huart->gState = HAL_UART_STATE_READY;
 500:../../core/ST/STM32L4xx_HAL_Driver/Src/stm32l4xx_hal_uart_ex.c ****   }
 501:../../core/ST/STM32L4xx_HAL_Driver/Src/stm32l4xx_hal_uart_ex.c **** 
 502:../../core/ST/STM32L4xx_HAL_Driver/Src/stm32l4xx_hal_uart_ex.c ****   /* Process Unlocked */
 503:../../core/ST/STM32L4xx_HAL_Driver/Src/stm32l4xx_hal_uart_ex.c ****   __HAL_UNLOCK(huart);
 504:../../core/ST/STM32L4xx_HAL_Driver/Src/stm32l4xx_hal_uart_ex.c **** 
 505:../../core/ST/STM32L4xx_HAL_Driver/Src/stm32l4xx_hal_uart_ex.c ****   return status;
 506:../../core/ST/STM32L4xx_HAL_Driver/Src/stm32l4xx_hal_uart_ex.c **** }
 507:../../core/ST/STM32L4xx_HAL_Driver/Src/stm32l4xx_hal_uart_ex.c **** 
 508:../../core/ST/STM32L4xx_HAL_Driver/Src/stm32l4xx_hal_uart_ex.c **** 
 509:../../core/ST/STM32L4xx_HAL_Driver/Src/stm32l4xx_hal_uart_ex.c **** /**
 510:../../core/ST/STM32L4xx_HAL_Driver/Src/stm32l4xx_hal_uart_ex.c ****   * @brief Enable UART Stop Mode.
 511:../../core/ST/STM32L4xx_HAL_Driver/Src/stm32l4xx_hal_uart_ex.c ****   * @note The UART is able to wake up the MCU from Stop 1 mode as long as UART clock is HSI or LSE.
 512:../../core/ST/STM32L4xx_HAL_Driver/Src/stm32l4xx_hal_uart_ex.c ****   * @param huart UART handle.
 513:../../core/ST/STM32L4xx_HAL_Driver/Src/stm32l4xx_hal_uart_ex.c ****   * @retval HAL status
 514:../../core/ST/STM32L4xx_HAL_Driver/Src/stm32l4xx_hal_uart_ex.c ****   */
 515:../../core/ST/STM32L4xx_HAL_Driver/Src/stm32l4xx_hal_uart_ex.c **** HAL_StatusTypeDef HAL_UARTEx_EnableStopMode(UART_HandleTypeDef *huart)
 516:../../core/ST/STM32L4xx_HAL_Driver/Src/stm32l4xx_hal_uart_ex.c **** {
 517:../../core/ST/STM32L4xx_HAL_Driver/Src/stm32l4xx_hal_uart_ex.c ****   /* Process Locked */
 518:../../core/ST/STM32L4xx_HAL_Driver/Src/stm32l4xx_hal_uart_ex.c ****   __HAL_LOCK(huart);
 519:../../core/ST/STM32L4xx_HAL_Driver/Src/stm32l4xx_hal_uart_ex.c **** 
 520:../../core/ST/STM32L4xx_HAL_Driver/Src/stm32l4xx_hal_uart_ex.c ****   /* Set UESM bit */
 521:../../core/ST/STM32L4xx_HAL_Driver/Src/stm32l4xx_hal_uart_ex.c ****   SET_BIT(huart->Instance->CR1, USART_CR1_UESM);
 522:../../core/ST/STM32L4xx_HAL_Driver/Src/stm32l4xx_hal_uart_ex.c **** 
 523:../../core/ST/STM32L4xx_HAL_Driver/Src/stm32l4xx_hal_uart_ex.c ****   /* Process Unlocked */
 524:../../core/ST/STM32L4xx_HAL_Driver/Src/stm32l4xx_hal_uart_ex.c ****   __HAL_UNLOCK(huart);
 525:../../core/ST/STM32L4xx_HAL_Driver/Src/stm32l4xx_hal_uart_ex.c **** 
 526:../../core/ST/STM32L4xx_HAL_Driver/Src/stm32l4xx_hal_uart_ex.c ****   return HAL_OK;
 527:../../core/ST/STM32L4xx_HAL_Driver/Src/stm32l4xx_hal_uart_ex.c **** }
 528:../../core/ST/STM32L4xx_HAL_Driver/Src/stm32l4xx_hal_uart_ex.c **** 
 529:../../core/ST/STM32L4xx_HAL_Driver/Src/stm32l4xx_hal_uart_ex.c **** /**
 530:../../core/ST/STM32L4xx_HAL_Driver/Src/stm32l4xx_hal_uart_ex.c ****   * @brief Disable UART Stop Mode.
 531:../../core/ST/STM32L4xx_HAL_Driver/Src/stm32l4xx_hal_uart_ex.c ****   * @param huart UART handle.
 532:../../core/ST/STM32L4xx_HAL_Driver/Src/stm32l4xx_hal_uart_ex.c ****   * @retval HAL status
 533:../../core/ST/STM32L4xx_HAL_Driver/Src/stm32l4xx_hal_uart_ex.c ****   */
 534:../../core/ST/STM32L4xx_HAL_Driver/Src/stm32l4xx_hal_uart_ex.c **** HAL_StatusTypeDef HAL_UARTEx_DisableStopMode(UART_HandleTypeDef *huart)
 535:../../core/ST/STM32L4xx_HAL_Driver/Src/stm32l4xx_hal_uart_ex.c **** {
 536:../../core/ST/STM32L4xx_HAL_Driver/Src/stm32l4xx_hal_uart_ex.c ****   /* Process Locked */
 537:../../core/ST/STM32L4xx_HAL_Driver/Src/stm32l4xx_hal_uart_ex.c ****   __HAL_LOCK(huart);
 538:../../core/ST/STM32L4xx_HAL_Driver/Src/stm32l4xx_hal_uart_ex.c **** 
 539:../../core/ST/STM32L4xx_HAL_Driver/Src/stm32l4xx_hal_uart_ex.c ****   /* Clear UESM bit */
 540:../../core/ST/STM32L4xx_HAL_Driver/Src/stm32l4xx_hal_uart_ex.c ****   CLEAR_BIT(huart->Instance->CR1, USART_CR1_UESM);
 541:../../core/ST/STM32L4xx_HAL_Driver/Src/stm32l4xx_hal_uart_ex.c **** 
 542:../../core/ST/STM32L4xx_HAL_Driver/Src/stm32l4xx_hal_uart_ex.c ****   /* Process Unlocked */
 543:../../core/ST/STM32L4xx_HAL_Driver/Src/stm32l4xx_hal_uart_ex.c ****   __HAL_UNLOCK(huart);
 544:../../core/ST/STM32L4xx_HAL_Driver/Src/stm32l4xx_hal_uart_ex.c **** 
 545:../../core/ST/STM32L4xx_HAL_Driver/Src/stm32l4xx_hal_uart_ex.c ****   return HAL_OK;
ARM GAS  /tmp/cc5GoEY0.s 			page 11


 546:../../core/ST/STM32L4xx_HAL_Driver/Src/stm32l4xx_hal_uart_ex.c **** }
 547:../../core/ST/STM32L4xx_HAL_Driver/Src/stm32l4xx_hal_uart_ex.c **** 
 548:../../core/ST/STM32L4xx_HAL_Driver/Src/stm32l4xx_hal_uart_ex.c **** #if defined(USART_CR1_FIFOEN)
 549:../../core/ST/STM32L4xx_HAL_Driver/Src/stm32l4xx_hal_uart_ex.c **** /**
 550:../../core/ST/STM32L4xx_HAL_Driver/Src/stm32l4xx_hal_uart_ex.c ****   * @brief  Enable the FIFO mode.
 551:../../core/ST/STM32L4xx_HAL_Driver/Src/stm32l4xx_hal_uart_ex.c ****   * @param huart      UART handle.
 552:../../core/ST/STM32L4xx_HAL_Driver/Src/stm32l4xx_hal_uart_ex.c ****   * @retval HAL status
 553:../../core/ST/STM32L4xx_HAL_Driver/Src/stm32l4xx_hal_uart_ex.c ****   */
 554:../../core/ST/STM32L4xx_HAL_Driver/Src/stm32l4xx_hal_uart_ex.c **** HAL_StatusTypeDef HAL_UARTEx_EnableFifoMode(UART_HandleTypeDef *huart)
 555:../../core/ST/STM32L4xx_HAL_Driver/Src/stm32l4xx_hal_uart_ex.c **** {
 556:../../core/ST/STM32L4xx_HAL_Driver/Src/stm32l4xx_hal_uart_ex.c ****   uint32_t tmpcr1 = 0U;
 557:../../core/ST/STM32L4xx_HAL_Driver/Src/stm32l4xx_hal_uart_ex.c **** 
 558:../../core/ST/STM32L4xx_HAL_Driver/Src/stm32l4xx_hal_uart_ex.c ****   /* Check parameters */
 559:../../core/ST/STM32L4xx_HAL_Driver/Src/stm32l4xx_hal_uart_ex.c ****   assert_param(IS_UART_FIFO_INSTANCE(huart->Instance));
 560:../../core/ST/STM32L4xx_HAL_Driver/Src/stm32l4xx_hal_uart_ex.c **** 
 561:../../core/ST/STM32L4xx_HAL_Driver/Src/stm32l4xx_hal_uart_ex.c ****   /* Process Locked */
 562:../../core/ST/STM32L4xx_HAL_Driver/Src/stm32l4xx_hal_uart_ex.c ****   __HAL_LOCK(huart);
 563:../../core/ST/STM32L4xx_HAL_Driver/Src/stm32l4xx_hal_uart_ex.c **** 
 564:../../core/ST/STM32L4xx_HAL_Driver/Src/stm32l4xx_hal_uart_ex.c ****   huart->gState = HAL_UART_STATE_BUSY;
 565:../../core/ST/STM32L4xx_HAL_Driver/Src/stm32l4xx_hal_uart_ex.c **** 
 566:../../core/ST/STM32L4xx_HAL_Driver/Src/stm32l4xx_hal_uart_ex.c ****   /* Save actual UART configuration */
 567:../../core/ST/STM32L4xx_HAL_Driver/Src/stm32l4xx_hal_uart_ex.c ****   tmpcr1 = READ_REG(huart->Instance->CR1);
 568:../../core/ST/STM32L4xx_HAL_Driver/Src/stm32l4xx_hal_uart_ex.c **** 
 569:../../core/ST/STM32L4xx_HAL_Driver/Src/stm32l4xx_hal_uart_ex.c ****   /* Disable UART */
 570:../../core/ST/STM32L4xx_HAL_Driver/Src/stm32l4xx_hal_uart_ex.c ****   __HAL_UART_DISABLE(huart);
 571:../../core/ST/STM32L4xx_HAL_Driver/Src/stm32l4xx_hal_uart_ex.c **** 
 572:../../core/ST/STM32L4xx_HAL_Driver/Src/stm32l4xx_hal_uart_ex.c ****   /* Enable FIFO mode */
 573:../../core/ST/STM32L4xx_HAL_Driver/Src/stm32l4xx_hal_uart_ex.c ****   SET_BIT(tmpcr1, USART_CR1_FIFOEN);
 574:../../core/ST/STM32L4xx_HAL_Driver/Src/stm32l4xx_hal_uart_ex.c ****   huart->FifoMode = UART_FIFOMODE_ENABLE;
 575:../../core/ST/STM32L4xx_HAL_Driver/Src/stm32l4xx_hal_uart_ex.c **** 
 576:../../core/ST/STM32L4xx_HAL_Driver/Src/stm32l4xx_hal_uart_ex.c ****   /* Restore UART configuration */
 577:../../core/ST/STM32L4xx_HAL_Driver/Src/stm32l4xx_hal_uart_ex.c ****   WRITE_REG(huart->Instance->CR1, tmpcr1);
 578:../../core/ST/STM32L4xx_HAL_Driver/Src/stm32l4xx_hal_uart_ex.c **** 
 579:../../core/ST/STM32L4xx_HAL_Driver/Src/stm32l4xx_hal_uart_ex.c ****   /* Determine the number of data to process during RX/TX ISR execution */
 580:../../core/ST/STM32L4xx_HAL_Driver/Src/stm32l4xx_hal_uart_ex.c ****   UARTEx_SetNbDataToProcess(huart);
 581:../../core/ST/STM32L4xx_HAL_Driver/Src/stm32l4xx_hal_uart_ex.c **** 
 582:../../core/ST/STM32L4xx_HAL_Driver/Src/stm32l4xx_hal_uart_ex.c ****   huart->gState = HAL_UART_STATE_READY;
 583:../../core/ST/STM32L4xx_HAL_Driver/Src/stm32l4xx_hal_uart_ex.c **** 
 584:../../core/ST/STM32L4xx_HAL_Driver/Src/stm32l4xx_hal_uart_ex.c ****   /* Process Unlocked */
 585:../../core/ST/STM32L4xx_HAL_Driver/Src/stm32l4xx_hal_uart_ex.c ****   __HAL_UNLOCK(huart);
 586:../../core/ST/STM32L4xx_HAL_Driver/Src/stm32l4xx_hal_uart_ex.c **** 
 587:../../core/ST/STM32L4xx_HAL_Driver/Src/stm32l4xx_hal_uart_ex.c ****   return HAL_OK;
 588:../../core/ST/STM32L4xx_HAL_Driver/Src/stm32l4xx_hal_uart_ex.c **** }
 589:../../core/ST/STM32L4xx_HAL_Driver/Src/stm32l4xx_hal_uart_ex.c **** 
 590:../../core/ST/STM32L4xx_HAL_Driver/Src/stm32l4xx_hal_uart_ex.c **** /**
 591:../../core/ST/STM32L4xx_HAL_Driver/Src/stm32l4xx_hal_uart_ex.c ****   * @brief  Disable the FIFO mode.
 592:../../core/ST/STM32L4xx_HAL_Driver/Src/stm32l4xx_hal_uart_ex.c ****   * @param huart      UART handle.
 593:../../core/ST/STM32L4xx_HAL_Driver/Src/stm32l4xx_hal_uart_ex.c ****   * @retval HAL status
 594:../../core/ST/STM32L4xx_HAL_Driver/Src/stm32l4xx_hal_uart_ex.c ****   */
 595:../../core/ST/STM32L4xx_HAL_Driver/Src/stm32l4xx_hal_uart_ex.c **** HAL_StatusTypeDef HAL_UARTEx_DisableFifoMode(UART_HandleTypeDef *huart)
 596:../../core/ST/STM32L4xx_HAL_Driver/Src/stm32l4xx_hal_uart_ex.c **** {
 597:../../core/ST/STM32L4xx_HAL_Driver/Src/stm32l4xx_hal_uart_ex.c ****   uint32_t tmpcr1 = 0U;
 598:../../core/ST/STM32L4xx_HAL_Driver/Src/stm32l4xx_hal_uart_ex.c **** 
 599:../../core/ST/STM32L4xx_HAL_Driver/Src/stm32l4xx_hal_uart_ex.c ****   /* Check parameters */
 600:../../core/ST/STM32L4xx_HAL_Driver/Src/stm32l4xx_hal_uart_ex.c ****   assert_param(IS_UART_FIFO_INSTANCE(huart->Instance));
 601:../../core/ST/STM32L4xx_HAL_Driver/Src/stm32l4xx_hal_uart_ex.c **** 
 602:../../core/ST/STM32L4xx_HAL_Driver/Src/stm32l4xx_hal_uart_ex.c ****   /* Process Locked */
ARM GAS  /tmp/cc5GoEY0.s 			page 12


 603:../../core/ST/STM32L4xx_HAL_Driver/Src/stm32l4xx_hal_uart_ex.c ****   __HAL_LOCK(huart);
 604:../../core/ST/STM32L4xx_HAL_Driver/Src/stm32l4xx_hal_uart_ex.c **** 
 605:../../core/ST/STM32L4xx_HAL_Driver/Src/stm32l4xx_hal_uart_ex.c ****   huart->gState = HAL_UART_STATE_BUSY;
 606:../../core/ST/STM32L4xx_HAL_Driver/Src/stm32l4xx_hal_uart_ex.c **** 
 607:../../core/ST/STM32L4xx_HAL_Driver/Src/stm32l4xx_hal_uart_ex.c ****   /* Save actual UART configuration */
 608:../../core/ST/STM32L4xx_HAL_Driver/Src/stm32l4xx_hal_uart_ex.c ****   tmpcr1 = READ_REG(huart->Instance->CR1);
 609:../../core/ST/STM32L4xx_HAL_Driver/Src/stm32l4xx_hal_uart_ex.c **** 
 610:../../core/ST/STM32L4xx_HAL_Driver/Src/stm32l4xx_hal_uart_ex.c ****   /* Disable UART */
 611:../../core/ST/STM32L4xx_HAL_Driver/Src/stm32l4xx_hal_uart_ex.c ****   __HAL_UART_DISABLE(huart);
 612:../../core/ST/STM32L4xx_HAL_Driver/Src/stm32l4xx_hal_uart_ex.c **** 
 613:../../core/ST/STM32L4xx_HAL_Driver/Src/stm32l4xx_hal_uart_ex.c ****   /* Enable FIFO mode */
 614:../../core/ST/STM32L4xx_HAL_Driver/Src/stm32l4xx_hal_uart_ex.c ****   CLEAR_BIT(tmpcr1, USART_CR1_FIFOEN);
 615:../../core/ST/STM32L4xx_HAL_Driver/Src/stm32l4xx_hal_uart_ex.c ****   huart->FifoMode = UART_FIFOMODE_DISABLE;
 616:../../core/ST/STM32L4xx_HAL_Driver/Src/stm32l4xx_hal_uart_ex.c **** 
 617:../../core/ST/STM32L4xx_HAL_Driver/Src/stm32l4xx_hal_uart_ex.c ****   /* Restore UART configuration */
 618:../../core/ST/STM32L4xx_HAL_Driver/Src/stm32l4xx_hal_uart_ex.c ****   WRITE_REG(huart->Instance->CR1, tmpcr1);
 619:../../core/ST/STM32L4xx_HAL_Driver/Src/stm32l4xx_hal_uart_ex.c **** 
 620:../../core/ST/STM32L4xx_HAL_Driver/Src/stm32l4xx_hal_uart_ex.c ****   huart->gState = HAL_UART_STATE_READY;
 621:../../core/ST/STM32L4xx_HAL_Driver/Src/stm32l4xx_hal_uart_ex.c **** 
 622:../../core/ST/STM32L4xx_HAL_Driver/Src/stm32l4xx_hal_uart_ex.c ****   /* Process Unlocked */
 623:../../core/ST/STM32L4xx_HAL_Driver/Src/stm32l4xx_hal_uart_ex.c ****   __HAL_UNLOCK(huart);
 624:../../core/ST/STM32L4xx_HAL_Driver/Src/stm32l4xx_hal_uart_ex.c **** 
 625:../../core/ST/STM32L4xx_HAL_Driver/Src/stm32l4xx_hal_uart_ex.c ****   return HAL_OK;
 626:../../core/ST/STM32L4xx_HAL_Driver/Src/stm32l4xx_hal_uart_ex.c **** }
 627:../../core/ST/STM32L4xx_HAL_Driver/Src/stm32l4xx_hal_uart_ex.c **** 
 628:../../core/ST/STM32L4xx_HAL_Driver/Src/stm32l4xx_hal_uart_ex.c **** /**
 629:../../core/ST/STM32L4xx_HAL_Driver/Src/stm32l4xx_hal_uart_ex.c ****   * @brief  Set the TXFIFO threshold.
 630:../../core/ST/STM32L4xx_HAL_Driver/Src/stm32l4xx_hal_uart_ex.c ****   * @param huart      UART handle.
 631:../../core/ST/STM32L4xx_HAL_Driver/Src/stm32l4xx_hal_uart_ex.c ****   * @param Threshold  TX FIFO threshold value
 632:../../core/ST/STM32L4xx_HAL_Driver/Src/stm32l4xx_hal_uart_ex.c ****   *          This parameter can be one of the following values:
 633:../../core/ST/STM32L4xx_HAL_Driver/Src/stm32l4xx_hal_uart_ex.c ****   *            @arg @ref UART_TXFIFO_THRESHOLD_1_8
 634:../../core/ST/STM32L4xx_HAL_Driver/Src/stm32l4xx_hal_uart_ex.c ****   *            @arg @ref UART_TXFIFO_THRESHOLD_1_4
 635:../../core/ST/STM32L4xx_HAL_Driver/Src/stm32l4xx_hal_uart_ex.c ****   *            @arg @ref UART_TXFIFO_THRESHOLD_1_2
 636:../../core/ST/STM32L4xx_HAL_Driver/Src/stm32l4xx_hal_uart_ex.c ****   *            @arg @ref UART_TXFIFO_THRESHOLD_3_4
 637:../../core/ST/STM32L4xx_HAL_Driver/Src/stm32l4xx_hal_uart_ex.c ****   *            @arg @ref UART_TXFIFO_THRESHOLD_7_8
 638:../../core/ST/STM32L4xx_HAL_Driver/Src/stm32l4xx_hal_uart_ex.c ****   *            @arg @ref UART_TXFIFO_THRESHOLD_8_8
 639:../../core/ST/STM32L4xx_HAL_Driver/Src/stm32l4xx_hal_uart_ex.c ****   * @retval HAL status
 640:../../core/ST/STM32L4xx_HAL_Driver/Src/stm32l4xx_hal_uart_ex.c ****   */
 641:../../core/ST/STM32L4xx_HAL_Driver/Src/stm32l4xx_hal_uart_ex.c **** HAL_StatusTypeDef HAL_UARTEx_SetTxFifoThreshold(UART_HandleTypeDef *huart, uint32_t Threshold)
 642:../../core/ST/STM32L4xx_HAL_Driver/Src/stm32l4xx_hal_uart_ex.c **** {
 643:../../core/ST/STM32L4xx_HAL_Driver/Src/stm32l4xx_hal_uart_ex.c ****   uint32_t tmpcr1 = 0U;
 644:../../core/ST/STM32L4xx_HAL_Driver/Src/stm32l4xx_hal_uart_ex.c **** 
 645:../../core/ST/STM32L4xx_HAL_Driver/Src/stm32l4xx_hal_uart_ex.c ****   /* Check parameters */
 646:../../core/ST/STM32L4xx_HAL_Driver/Src/stm32l4xx_hal_uart_ex.c ****   assert_param(IS_UART_FIFO_INSTANCE(huart->Instance));
 647:../../core/ST/STM32L4xx_HAL_Driver/Src/stm32l4xx_hal_uart_ex.c ****   assert_param(IS_UART_TXFIFO_THRESHOLD(Threshold));
 648:../../core/ST/STM32L4xx_HAL_Driver/Src/stm32l4xx_hal_uart_ex.c **** 
 649:../../core/ST/STM32L4xx_HAL_Driver/Src/stm32l4xx_hal_uart_ex.c ****   /* Process Locked */
 650:../../core/ST/STM32L4xx_HAL_Driver/Src/stm32l4xx_hal_uart_ex.c ****   __HAL_LOCK(huart);
 651:../../core/ST/STM32L4xx_HAL_Driver/Src/stm32l4xx_hal_uart_ex.c **** 
 652:../../core/ST/STM32L4xx_HAL_Driver/Src/stm32l4xx_hal_uart_ex.c ****   huart->gState = HAL_UART_STATE_BUSY;
 653:../../core/ST/STM32L4xx_HAL_Driver/Src/stm32l4xx_hal_uart_ex.c **** 
 654:../../core/ST/STM32L4xx_HAL_Driver/Src/stm32l4xx_hal_uart_ex.c ****   /* Save actual UART configuration */
 655:../../core/ST/STM32L4xx_HAL_Driver/Src/stm32l4xx_hal_uart_ex.c ****   tmpcr1 = READ_REG(huart->Instance->CR1);
 656:../../core/ST/STM32L4xx_HAL_Driver/Src/stm32l4xx_hal_uart_ex.c **** 
 657:../../core/ST/STM32L4xx_HAL_Driver/Src/stm32l4xx_hal_uart_ex.c ****   /* Disable UART */
 658:../../core/ST/STM32L4xx_HAL_Driver/Src/stm32l4xx_hal_uart_ex.c ****   __HAL_UART_DISABLE(huart);
 659:../../core/ST/STM32L4xx_HAL_Driver/Src/stm32l4xx_hal_uart_ex.c **** 
ARM GAS  /tmp/cc5GoEY0.s 			page 13


 660:../../core/ST/STM32L4xx_HAL_Driver/Src/stm32l4xx_hal_uart_ex.c ****   /* Update TX threshold configuration */
 661:../../core/ST/STM32L4xx_HAL_Driver/Src/stm32l4xx_hal_uart_ex.c ****   MODIFY_REG(huart->Instance->CR3, USART_CR3_TXFTCFG, Threshold);
 662:../../core/ST/STM32L4xx_HAL_Driver/Src/stm32l4xx_hal_uart_ex.c **** 
 663:../../core/ST/STM32L4xx_HAL_Driver/Src/stm32l4xx_hal_uart_ex.c ****   /* Determine the number of data to process during RX/TX ISR execution */
 664:../../core/ST/STM32L4xx_HAL_Driver/Src/stm32l4xx_hal_uart_ex.c ****   UARTEx_SetNbDataToProcess(huart);
 665:../../core/ST/STM32L4xx_HAL_Driver/Src/stm32l4xx_hal_uart_ex.c **** 
 666:../../core/ST/STM32L4xx_HAL_Driver/Src/stm32l4xx_hal_uart_ex.c ****   /* Restore UART configuration */
 667:../../core/ST/STM32L4xx_HAL_Driver/Src/stm32l4xx_hal_uart_ex.c ****   WRITE_REG(huart->Instance->CR1, tmpcr1);
 668:../../core/ST/STM32L4xx_HAL_Driver/Src/stm32l4xx_hal_uart_ex.c **** 
 669:../../core/ST/STM32L4xx_HAL_Driver/Src/stm32l4xx_hal_uart_ex.c ****   huart->gState = HAL_UART_STATE_READY;
 670:../../core/ST/STM32L4xx_HAL_Driver/Src/stm32l4xx_hal_uart_ex.c **** 
 671:../../core/ST/STM32L4xx_HAL_Driver/Src/stm32l4xx_hal_uart_ex.c ****   /* Process Unlocked */
 672:../../core/ST/STM32L4xx_HAL_Driver/Src/stm32l4xx_hal_uart_ex.c ****   __HAL_UNLOCK(huart);
 673:../../core/ST/STM32L4xx_HAL_Driver/Src/stm32l4xx_hal_uart_ex.c **** 
 674:../../core/ST/STM32L4xx_HAL_Driver/Src/stm32l4xx_hal_uart_ex.c ****   return HAL_OK;
 675:../../core/ST/STM32L4xx_HAL_Driver/Src/stm32l4xx_hal_uart_ex.c **** }
 676:../../core/ST/STM32L4xx_HAL_Driver/Src/stm32l4xx_hal_uart_ex.c **** 
 677:../../core/ST/STM32L4xx_HAL_Driver/Src/stm32l4xx_hal_uart_ex.c **** /**
 678:../../core/ST/STM32L4xx_HAL_Driver/Src/stm32l4xx_hal_uart_ex.c ****   * @brief  Set the RXFIFO threshold.
 679:../../core/ST/STM32L4xx_HAL_Driver/Src/stm32l4xx_hal_uart_ex.c ****   * @param huart      UART handle.
 680:../../core/ST/STM32L4xx_HAL_Driver/Src/stm32l4xx_hal_uart_ex.c ****   * @param Threshold  RX FIFO threshold value
 681:../../core/ST/STM32L4xx_HAL_Driver/Src/stm32l4xx_hal_uart_ex.c ****   *          This parameter can be one of the following values:
 682:../../core/ST/STM32L4xx_HAL_Driver/Src/stm32l4xx_hal_uart_ex.c ****   *            @arg @ref UART_RXFIFO_THRESHOLD_1_8
 683:../../core/ST/STM32L4xx_HAL_Driver/Src/stm32l4xx_hal_uart_ex.c ****   *            @arg @ref UART_RXFIFO_THRESHOLD_1_4
 684:../../core/ST/STM32L4xx_HAL_Driver/Src/stm32l4xx_hal_uart_ex.c ****   *            @arg @ref UART_RXFIFO_THRESHOLD_1_2
 685:../../core/ST/STM32L4xx_HAL_Driver/Src/stm32l4xx_hal_uart_ex.c ****   *            @arg @ref UART_RXFIFO_THRESHOLD_3_4
 686:../../core/ST/STM32L4xx_HAL_Driver/Src/stm32l4xx_hal_uart_ex.c ****   *            @arg @ref UART_RXFIFO_THRESHOLD_7_8
 687:../../core/ST/STM32L4xx_HAL_Driver/Src/stm32l4xx_hal_uart_ex.c ****   *            @arg @ref UART_RXFIFO_THRESHOLD_8_8
 688:../../core/ST/STM32L4xx_HAL_Driver/Src/stm32l4xx_hal_uart_ex.c ****   * @retval HAL status
 689:../../core/ST/STM32L4xx_HAL_Driver/Src/stm32l4xx_hal_uart_ex.c ****   */
 690:../../core/ST/STM32L4xx_HAL_Driver/Src/stm32l4xx_hal_uart_ex.c **** HAL_StatusTypeDef HAL_UARTEx_SetRxFifoThreshold(UART_HandleTypeDef *huart, uint32_t Threshold)
 691:../../core/ST/STM32L4xx_HAL_Driver/Src/stm32l4xx_hal_uart_ex.c **** {
 692:../../core/ST/STM32L4xx_HAL_Driver/Src/stm32l4xx_hal_uart_ex.c ****   uint32_t tmpcr1 = 0U;
 693:../../core/ST/STM32L4xx_HAL_Driver/Src/stm32l4xx_hal_uart_ex.c **** 
 694:../../core/ST/STM32L4xx_HAL_Driver/Src/stm32l4xx_hal_uart_ex.c ****   /* Check the parameters */
 695:../../core/ST/STM32L4xx_HAL_Driver/Src/stm32l4xx_hal_uart_ex.c ****   assert_param(IS_UART_FIFO_INSTANCE(huart->Instance));
 696:../../core/ST/STM32L4xx_HAL_Driver/Src/stm32l4xx_hal_uart_ex.c ****   assert_param(IS_UART_RXFIFO_THRESHOLD(Threshold));
 697:../../core/ST/STM32L4xx_HAL_Driver/Src/stm32l4xx_hal_uart_ex.c **** 
 698:../../core/ST/STM32L4xx_HAL_Driver/Src/stm32l4xx_hal_uart_ex.c ****   /* Process Locked */
 699:../../core/ST/STM32L4xx_HAL_Driver/Src/stm32l4xx_hal_uart_ex.c ****   __HAL_LOCK(huart);
 700:../../core/ST/STM32L4xx_HAL_Driver/Src/stm32l4xx_hal_uart_ex.c **** 
 701:../../core/ST/STM32L4xx_HAL_Driver/Src/stm32l4xx_hal_uart_ex.c ****   huart->gState = HAL_UART_STATE_BUSY;
 702:../../core/ST/STM32L4xx_HAL_Driver/Src/stm32l4xx_hal_uart_ex.c **** 
 703:../../core/ST/STM32L4xx_HAL_Driver/Src/stm32l4xx_hal_uart_ex.c ****   /* Save actual UART configuration */
 704:../../core/ST/STM32L4xx_HAL_Driver/Src/stm32l4xx_hal_uart_ex.c ****   tmpcr1 = READ_REG(huart->Instance->CR1);
 705:../../core/ST/STM32L4xx_HAL_Driver/Src/stm32l4xx_hal_uart_ex.c **** 
 706:../../core/ST/STM32L4xx_HAL_Driver/Src/stm32l4xx_hal_uart_ex.c ****   /* Disable UART */
 707:../../core/ST/STM32L4xx_HAL_Driver/Src/stm32l4xx_hal_uart_ex.c ****   __HAL_UART_DISABLE(huart);
 708:../../core/ST/STM32L4xx_HAL_Driver/Src/stm32l4xx_hal_uart_ex.c **** 
 709:../../core/ST/STM32L4xx_HAL_Driver/Src/stm32l4xx_hal_uart_ex.c ****   /* Update RX threshold configuration */
 710:../../core/ST/STM32L4xx_HAL_Driver/Src/stm32l4xx_hal_uart_ex.c ****   MODIFY_REG(huart->Instance->CR3, USART_CR3_RXFTCFG, Threshold);
 711:../../core/ST/STM32L4xx_HAL_Driver/Src/stm32l4xx_hal_uart_ex.c **** 
 712:../../core/ST/STM32L4xx_HAL_Driver/Src/stm32l4xx_hal_uart_ex.c ****   /* Determine the number of data to process during RX/TX ISR execution */
 713:../../core/ST/STM32L4xx_HAL_Driver/Src/stm32l4xx_hal_uart_ex.c ****   UARTEx_SetNbDataToProcess(huart);
 714:../../core/ST/STM32L4xx_HAL_Driver/Src/stm32l4xx_hal_uart_ex.c **** 
 715:../../core/ST/STM32L4xx_HAL_Driver/Src/stm32l4xx_hal_uart_ex.c ****   /* Restore UART configuration */
 716:../../core/ST/STM32L4xx_HAL_Driver/Src/stm32l4xx_hal_uart_ex.c ****   WRITE_REG(huart->Instance->CR1, tmpcr1);
ARM GAS  /tmp/cc5GoEY0.s 			page 14


 717:../../core/ST/STM32L4xx_HAL_Driver/Src/stm32l4xx_hal_uart_ex.c **** 
 718:../../core/ST/STM32L4xx_HAL_Driver/Src/stm32l4xx_hal_uart_ex.c ****   huart->gState = HAL_UART_STATE_READY;
 719:../../core/ST/STM32L4xx_HAL_Driver/Src/stm32l4xx_hal_uart_ex.c **** 
 720:../../core/ST/STM32L4xx_HAL_Driver/Src/stm32l4xx_hal_uart_ex.c ****   /* Process Unlocked */
 721:../../core/ST/STM32L4xx_HAL_Driver/Src/stm32l4xx_hal_uart_ex.c ****   __HAL_UNLOCK(huart);
 722:../../core/ST/STM32L4xx_HAL_Driver/Src/stm32l4xx_hal_uart_ex.c **** 
 723:../../core/ST/STM32L4xx_HAL_Driver/Src/stm32l4xx_hal_uart_ex.c ****   return HAL_OK;
 724:../../core/ST/STM32L4xx_HAL_Driver/Src/stm32l4xx_hal_uart_ex.c **** }
 725:../../core/ST/STM32L4xx_HAL_Driver/Src/stm32l4xx_hal_uart_ex.c **** #endif
 726:../../core/ST/STM32L4xx_HAL_Driver/Src/stm32l4xx_hal_uart_ex.c **** 
 727:../../core/ST/STM32L4xx_HAL_Driver/Src/stm32l4xx_hal_uart_ex.c **** /**
 728:../../core/ST/STM32L4xx_HAL_Driver/Src/stm32l4xx_hal_uart_ex.c ****   * @}
 729:../../core/ST/STM32L4xx_HAL_Driver/Src/stm32l4xx_hal_uart_ex.c ****   */
 730:../../core/ST/STM32L4xx_HAL_Driver/Src/stm32l4xx_hal_uart_ex.c **** 
 731:../../core/ST/STM32L4xx_HAL_Driver/Src/stm32l4xx_hal_uart_ex.c **** /**
 732:../../core/ST/STM32L4xx_HAL_Driver/Src/stm32l4xx_hal_uart_ex.c ****   * @}
 733:../../core/ST/STM32L4xx_HAL_Driver/Src/stm32l4xx_hal_uart_ex.c ****   */
 734:../../core/ST/STM32L4xx_HAL_Driver/Src/stm32l4xx_hal_uart_ex.c **** 
 735:../../core/ST/STM32L4xx_HAL_Driver/Src/stm32l4xx_hal_uart_ex.c **** /** @addtogroup UARTEx_Private_Functions
 736:../../core/ST/STM32L4xx_HAL_Driver/Src/stm32l4xx_hal_uart_ex.c ****   * @{
 737:../../core/ST/STM32L4xx_HAL_Driver/Src/stm32l4xx_hal_uart_ex.c ****   */
 738:../../core/ST/STM32L4xx_HAL_Driver/Src/stm32l4xx_hal_uart_ex.c **** 
 739:../../core/ST/STM32L4xx_HAL_Driver/Src/stm32l4xx_hal_uart_ex.c **** /**
 740:../../core/ST/STM32L4xx_HAL_Driver/Src/stm32l4xx_hal_uart_ex.c ****   * @brief Initialize the UART wake-up from stop mode parameters when triggered by address detectio
 741:../../core/ST/STM32L4xx_HAL_Driver/Src/stm32l4xx_hal_uart_ex.c ****   * @param huart           UART handle.
 742:../../core/ST/STM32L4xx_HAL_Driver/Src/stm32l4xx_hal_uart_ex.c ****   * @param WakeUpSelection UART wake up from stop mode parameters.
 743:../../core/ST/STM32L4xx_HAL_Driver/Src/stm32l4xx_hal_uart_ex.c ****   * @retval None
 744:../../core/ST/STM32L4xx_HAL_Driver/Src/stm32l4xx_hal_uart_ex.c ****   */
 745:../../core/ST/STM32L4xx_HAL_Driver/Src/stm32l4xx_hal_uart_ex.c **** static void UARTEx_Wakeup_AddressConfig(UART_HandleTypeDef *huart, UART_WakeUpTypeDef WakeUpSelecti
 746:../../core/ST/STM32L4xx_HAL_Driver/Src/stm32l4xx_hal_uart_ex.c **** {
  27              		.loc 1 746 0
  28              		.cfi_startproc
  29              		@ args = 0, pretend = 0, frame = 8
  30              		@ frame_needed = 0, uses_anonymous_args = 0
  31              		@ link register save eliminated.
  32              	.LVL0:
  33 0000 82B0     		sub	sp, sp, #8
  34              	.LCFI0:
  35              		.cfi_def_cfa_offset 8
  36 0002 02AB     		add	r3, sp, #8
  37 0004 03E90600 		stmdb	r3, {r1, r2}
 747:../../core/ST/STM32L4xx_HAL_Driver/Src/stm32l4xx_hal_uart_ex.c ****   assert_param(IS_UART_ADDRESSLENGTH_DETECT(WakeUpSelection.AddressLength));
 748:../../core/ST/STM32L4xx_HAL_Driver/Src/stm32l4xx_hal_uart_ex.c **** 
 749:../../core/ST/STM32L4xx_HAL_Driver/Src/stm32l4xx_hal_uart_ex.c ****   /* Set the USART address length */
 750:../../core/ST/STM32L4xx_HAL_Driver/Src/stm32l4xx_hal_uart_ex.c ****   MODIFY_REG(huart->Instance->CR2, USART_CR2_ADDM7, WakeUpSelection.AddressLength);
  38              		.loc 1 750 0
  39 0008 0268     		ldr	r2, [r0]
  40 000a 5368     		ldr	r3, [r2, #4]
  41 000c 23F01003 		bic	r3, r3, #16
  42 0010 BDF80410 		ldrh	r1, [sp, #4]
  43 0014 0B43     		orrs	r3, r3, r1
  44 0016 5360     		str	r3, [r2, #4]
 751:../../core/ST/STM32L4xx_HAL_Driver/Src/stm32l4xx_hal_uart_ex.c **** 
 752:../../core/ST/STM32L4xx_HAL_Driver/Src/stm32l4xx_hal_uart_ex.c ****   /* Set the USART address node */
 753:../../core/ST/STM32L4xx_HAL_Driver/Src/stm32l4xx_hal_uart_ex.c ****   MODIFY_REG(huart->Instance->CR2, USART_CR2_ADD, ((uint32_t)WakeUpSelection.Address << UART_CR2_AD
  45              		.loc 1 753 0
  46 0018 0268     		ldr	r2, [r0]
ARM GAS  /tmp/cc5GoEY0.s 			page 15


  47 001a 5368     		ldr	r3, [r2, #4]
  48 001c 23F07F43 		bic	r3, r3, #-16777216
  49 0020 9DF80610 		ldrb	r1, [sp, #6]	@ zero_extendqisi2
  50 0024 43EA0163 		orr	r3, r3, r1, lsl #24
  51 0028 5360     		str	r3, [r2, #4]
 754:../../core/ST/STM32L4xx_HAL_Driver/Src/stm32l4xx_hal_uart_ex.c **** }
  52              		.loc 1 754 0
  53 002a 02B0     		add	sp, sp, #8
  54              	.LCFI1:
  55              		.cfi_def_cfa_offset 0
  56              		@ sp needed
  57 002c 7047     		bx	lr
  58              		.cfi_endproc
  59              	.LFE131:
  61              		.section	.text.HAL_RS485Ex_Init,"ax",%progbits
  62              		.align	1
  63              		.global	HAL_RS485Ex_Init
  64              		.syntax unified
  65              		.thumb
  66              		.thumb_func
  67              		.fpu fpv4-sp-d16
  69              	HAL_RS485Ex_Init:
  70              	.LFB123:
 184:../../core/ST/STM32L4xx_HAL_Driver/Src/stm32l4xx_hal_uart_ex.c ****   uint32_t temp = 0x0U;
  71              		.loc 1 184 0
  72              		.cfi_startproc
  73              		@ args = 0, pretend = 0, frame = 0
  74              		@ frame_needed = 0, uses_anonymous_args = 0
  75              	.LVL1:
 188:../../core/ST/STM32L4xx_HAL_Driver/Src/stm32l4xx_hal_uart_ex.c ****   {
  76              		.loc 1 188 0
  77 0000 0028     		cmp	r0, #0
  78 0002 3ED0     		beq	.L7
 184:../../core/ST/STM32L4xx_HAL_Driver/Src/stm32l4xx_hal_uart_ex.c ****   uint32_t temp = 0x0U;
  79              		.loc 1 184 0
  80 0004 F8B5     		push	{r3, r4, r5, r6, r7, lr}
  81              	.LCFI2:
  82              		.cfi_def_cfa_offset 24
  83              		.cfi_offset 3, -24
  84              		.cfi_offset 4, -20
  85              		.cfi_offset 5, -16
  86              		.cfi_offset 6, -12
  87              		.cfi_offset 7, -8
  88              		.cfi_offset 14, -4
  89 0006 0446     		mov	r4, r0
  90 0008 1D46     		mov	r5, r3
  91 000a 1646     		mov	r6, r2
  92 000c 0F46     		mov	r7, r1
 204:../../core/ST/STM32L4xx_HAL_Driver/Src/stm32l4xx_hal_uart_ex.c ****   {
  93              		.loc 1 204 0
  94 000e 90F87130 		ldrb	r3, [r0, #113]	@ zero_extendqisi2
  95              	.LVL2:
  96 0012 6BB3     		cbz	r3, .L12
  97              	.LVL3:
  98              	.L5:
 225:../../core/ST/STM32L4xx_HAL_Driver/Src/stm32l4xx_hal_uart_ex.c **** 
  99              		.loc 1 225 0
ARM GAS  /tmp/cc5GoEY0.s 			page 16


 100 0014 2423     		movs	r3, #36
 101 0016 84F87130 		strb	r3, [r4, #113]
 228:../../core/ST/STM32L4xx_HAL_Driver/Src/stm32l4xx_hal_uart_ex.c **** 
 102              		.loc 1 228 0
 103 001a 2268     		ldr	r2, [r4]
 104 001c 1368     		ldr	r3, [r2]
 105 001e 23F00103 		bic	r3, r3, #1
 106 0022 1360     		str	r3, [r2]
 231:../../core/ST/STM32L4xx_HAL_Driver/Src/stm32l4xx_hal_uart_ex.c ****   {
 107              		.loc 1 231 0
 108 0024 2046     		mov	r0, r4
 109 0026 FFF7FEFF 		bl	UART_SetConfig
 110              	.LVL4:
 111 002a 0128     		cmp	r0, #1
 112 002c 1FD0     		beq	.L4
 236:../../core/ST/STM32L4xx_HAL_Driver/Src/stm32l4xx_hal_uart_ex.c ****   {
 113              		.loc 1 236 0
 114 002e 636A     		ldr	r3, [r4, #36]
 115 0030 1BBB     		cbnz	r3, .L13
 116              	.L6:
 242:../../core/ST/STM32L4xx_HAL_Driver/Src/stm32l4xx_hal_uart_ex.c **** 
 117              		.loc 1 242 0
 118 0032 2268     		ldr	r2, [r4]
 119 0034 9368     		ldr	r3, [r2, #8]
 120 0036 43F48043 		orr	r3, r3, #16384
 121 003a 9360     		str	r3, [r2, #8]
 245:../../core/ST/STM32L4xx_HAL_Driver/Src/stm32l4xx_hal_uart_ex.c **** 
 122              		.loc 1 245 0
 123 003c 2268     		ldr	r2, [r4]
 124 003e 9368     		ldr	r3, [r2, #8]
 125 0040 23F40043 		bic	r3, r3, #32768
 126 0044 3B43     		orrs	r3, r3, r7
 127 0046 9360     		str	r3, [r2, #8]
 128              	.LVL5:
 249:../../core/ST/STM32L4xx_HAL_Driver/Src/stm32l4xx_hal_uart_ex.c ****   MODIFY_REG(huart->Instance->CR1, (USART_CR1_DEDT | USART_CR1_DEAT), temp);
 129              		.loc 1 249 0
 130 0048 2904     		lsls	r1, r5, #16
 131 004a 41EA4652 		orr	r2, r1, r6, lsl #21
 132              	.LVL6:
 250:../../core/ST/STM32L4xx_HAL_Driver/Src/stm32l4xx_hal_uart_ex.c **** 
 133              		.loc 1 250 0
 134 004e 2368     		ldr	r3, [r4]
 135 0050 1968     		ldr	r1, [r3]
 136 0052 21F07F71 		bic	r1, r1, #66846720
 137 0056 21F44031 		bic	r1, r1, #196608
 138 005a 1143     		orrs	r1, r1, r2
 139 005c 1960     		str	r1, [r3]
 253:../../core/ST/STM32L4xx_HAL_Driver/Src/stm32l4xx_hal_uart_ex.c **** 
 140              		.loc 1 253 0
 141 005e 2268     		ldr	r2, [r4]
 142              	.LVL7:
 143 0060 1368     		ldr	r3, [r2]
 144 0062 43F00103 		orr	r3, r3, #1
 145 0066 1360     		str	r3, [r2]
 256:../../core/ST/STM32L4xx_HAL_Driver/Src/stm32l4xx_hal_uart_ex.c **** }
 146              		.loc 1 256 0
 147 0068 2046     		mov	r0, r4
ARM GAS  /tmp/cc5GoEY0.s 			page 17


 148 006a FFF7FEFF 		bl	UART_CheckIdleState
 149              	.LVL8:
 150              	.L4:
 257:../../core/ST/STM32L4xx_HAL_Driver/Src/stm32l4xx_hal_uart_ex.c **** 
 151              		.loc 1 257 0
 152 006e F8BD     		pop	{r3, r4, r5, r6, r7, pc}
 153              	.LVL9:
 154              	.L12:
 207:../../core/ST/STM32L4xx_HAL_Driver/Src/stm32l4xx_hal_uart_ex.c **** 
 155              		.loc 1 207 0
 156 0070 80F87030 		strb	r3, [r0, #112]
 221:../../core/ST/STM32L4xx_HAL_Driver/Src/stm32l4xx_hal_uart_ex.c **** #endif /* (USE_HAL_UART_REGISTER_CALLBACKS) */
 157              		.loc 1 221 0
 158 0074 FFF7FEFF 		bl	HAL_UART_MspInit
 159              	.LVL10:
 160 0078 CCE7     		b	.L5
 161              	.L13:
 238:../../core/ST/STM32L4xx_HAL_Driver/Src/stm32l4xx_hal_uart_ex.c ****   }
 162              		.loc 1 238 0
 163 007a 2046     		mov	r0, r4
 164 007c FFF7FEFF 		bl	UART_AdvFeatureConfig
 165              	.LVL11:
 166 0080 D7E7     		b	.L6
 167              	.LVL12:
 168              	.L7:
 169              	.LCFI3:
 170              		.cfi_def_cfa_offset 0
 171              		.cfi_restore 3
 172              		.cfi_restore 4
 173              		.cfi_restore 5
 174              		.cfi_restore 6
 175              		.cfi_restore 7
 176              		.cfi_restore 14
 190:../../core/ST/STM32L4xx_HAL_Driver/Src/stm32l4xx_hal_uart_ex.c ****   }
 177              		.loc 1 190 0
 178 0082 0120     		movs	r0, #1
 179              	.LVL13:
 257:../../core/ST/STM32L4xx_HAL_Driver/Src/stm32l4xx_hal_uart_ex.c **** 
 180              		.loc 1 257 0
 181 0084 7047     		bx	lr
 182              		.cfi_endproc
 183              	.LFE123:
 185              		.section	.text.HAL_UARTEx_WakeupCallback,"ax",%progbits
 186              		.align	1
 187              		.weak	HAL_UARTEx_WakeupCallback
 188              		.syntax unified
 189              		.thumb
 190              		.thumb_func
 191              		.fpu fpv4-sp-d16
 193              	HAL_UARTEx_WakeupCallback:
 194              	.LFB124:
 290:../../core/ST/STM32L4xx_HAL_Driver/Src/stm32l4xx_hal_uart_ex.c ****   /* Prevent unused argument(s) compilation warning */
 195              		.loc 1 290 0
 196              		.cfi_startproc
 197              		@ args = 0, pretend = 0, frame = 0
 198              		@ frame_needed = 0, uses_anonymous_args = 0
 199              		@ link register save eliminated.
ARM GAS  /tmp/cc5GoEY0.s 			page 18


 200              	.LVL14:
 297:../../core/ST/STM32L4xx_HAL_Driver/Src/stm32l4xx_hal_uart_ex.c **** 
 201              		.loc 1 297 0
 202 0000 7047     		bx	lr
 203              		.cfi_endproc
 204              	.LFE124:
 206              		.section	.text.HAL_UARTEx_EnableClockStopMode,"ax",%progbits
 207              		.align	1
 208              		.global	HAL_UARTEx_EnableClockStopMode
 209              		.syntax unified
 210              		.thumb
 211              		.thumb_func
 212              		.fpu fpv4-sp-d16
 214              	HAL_UARTEx_EnableClockStopMode:
 215              	.LFB125:
 374:../../core/ST/STM32L4xx_HAL_Driver/Src/stm32l4xx_hal_uart_ex.c ****   /* Process Locked */
 216              		.loc 1 374 0
 217              		.cfi_startproc
 218              		@ args = 0, pretend = 0, frame = 0
 219              		@ frame_needed = 0, uses_anonymous_args = 0
 220              		@ link register save eliminated.
 221              	.LVL15:
 376:../../core/ST/STM32L4xx_HAL_Driver/Src/stm32l4xx_hal_uart_ex.c **** 
 222              		.loc 1 376 0
 223 0000 90F87030 		ldrb	r3, [r0, #112]	@ zero_extendqisi2
 224 0004 012B     		cmp	r3, #1
 225 0006 0CD0     		beq	.L17
 376:../../core/ST/STM32L4xx_HAL_Driver/Src/stm32l4xx_hal_uart_ex.c **** 
 226              		.loc 1 376 0 is_stmt 0 discriminator 2
 227 0008 0123     		movs	r3, #1
 228 000a 80F87030 		strb	r3, [r0, #112]
 379:../../core/ST/STM32L4xx_HAL_Driver/Src/stm32l4xx_hal_uart_ex.c **** 
 229              		.loc 1 379 0 is_stmt 1 discriminator 2
 230 000e 0268     		ldr	r2, [r0]
 231 0010 9368     		ldr	r3, [r2, #8]
 232 0012 43F40003 		orr	r3, r3, #8388608
 233 0016 9360     		str	r3, [r2, #8]
 382:../../core/ST/STM32L4xx_HAL_Driver/Src/stm32l4xx_hal_uart_ex.c **** 
 234              		.loc 1 382 0 discriminator 2
 235 0018 0023     		movs	r3, #0
 236 001a 80F87030 		strb	r3, [r0, #112]
 384:../../core/ST/STM32L4xx_HAL_Driver/Src/stm32l4xx_hal_uart_ex.c **** }
 237              		.loc 1 384 0 discriminator 2
 238 001e 1846     		mov	r0, r3
 239              	.LVL16:
 240 0020 7047     		bx	lr
 241              	.LVL17:
 242              	.L17:
 376:../../core/ST/STM32L4xx_HAL_Driver/Src/stm32l4xx_hal_uart_ex.c **** 
 243              		.loc 1 376 0
 244 0022 0220     		movs	r0, #2
 245              	.LVL18:
 385:../../core/ST/STM32L4xx_HAL_Driver/Src/stm32l4xx_hal_uart_ex.c **** 
 246              		.loc 1 385 0
 247 0024 7047     		bx	lr
 248              		.cfi_endproc
 249              	.LFE125:
ARM GAS  /tmp/cc5GoEY0.s 			page 19


 251              		.section	.text.HAL_UARTEx_DisableClockStopMode,"ax",%progbits
 252              		.align	1
 253              		.global	HAL_UARTEx_DisableClockStopMode
 254              		.syntax unified
 255              		.thumb
 256              		.thumb_func
 257              		.fpu fpv4-sp-d16
 259              	HAL_UARTEx_DisableClockStopMode:
 260              	.LFB126:
 393:../../core/ST/STM32L4xx_HAL_Driver/Src/stm32l4xx_hal_uart_ex.c ****   /* Process Locked */
 261              		.loc 1 393 0
 262              		.cfi_startproc
 263              		@ args = 0, pretend = 0, frame = 0
 264              		@ frame_needed = 0, uses_anonymous_args = 0
 265              		@ link register save eliminated.
 266              	.LVL19:
 395:../../core/ST/STM32L4xx_HAL_Driver/Src/stm32l4xx_hal_uart_ex.c **** 
 267              		.loc 1 395 0
 268 0000 90F87030 		ldrb	r3, [r0, #112]	@ zero_extendqisi2
 269 0004 012B     		cmp	r3, #1
 270 0006 0CD0     		beq	.L20
 395:../../core/ST/STM32L4xx_HAL_Driver/Src/stm32l4xx_hal_uart_ex.c **** 
 271              		.loc 1 395 0 is_stmt 0 discriminator 2
 272 0008 0123     		movs	r3, #1
 273 000a 80F87030 		strb	r3, [r0, #112]
 398:../../core/ST/STM32L4xx_HAL_Driver/Src/stm32l4xx_hal_uart_ex.c **** 
 274              		.loc 1 398 0 is_stmt 1 discriminator 2
 275 000e 0268     		ldr	r2, [r0]
 276 0010 9368     		ldr	r3, [r2, #8]
 277 0012 23F40003 		bic	r3, r3, #8388608
 278 0016 9360     		str	r3, [r2, #8]
 401:../../core/ST/STM32L4xx_HAL_Driver/Src/stm32l4xx_hal_uart_ex.c **** 
 279              		.loc 1 401 0 discriminator 2
 280 0018 0023     		movs	r3, #0
 281 001a 80F87030 		strb	r3, [r0, #112]
 403:../../core/ST/STM32L4xx_HAL_Driver/Src/stm32l4xx_hal_uart_ex.c **** }
 282              		.loc 1 403 0 discriminator 2
 283 001e 1846     		mov	r0, r3
 284              	.LVL20:
 285 0020 7047     		bx	lr
 286              	.LVL21:
 287              	.L20:
 395:../../core/ST/STM32L4xx_HAL_Driver/Src/stm32l4xx_hal_uart_ex.c **** 
 288              		.loc 1 395 0
 289 0022 0220     		movs	r0, #2
 290              	.LVL22:
 404:../../core/ST/STM32L4xx_HAL_Driver/Src/stm32l4xx_hal_uart_ex.c **** #endif /* USART_CR3_UCESM */
 291              		.loc 1 404 0
 292 0024 7047     		bx	lr
 293              		.cfi_endproc
 294              	.LFE126:
 296              		.section	.text.HAL_MultiProcessorEx_AddressLength_Set,"ax",%progbits
 297              		.align	1
 298              		.global	HAL_MultiProcessorEx_AddressLength_Set
 299              		.syntax unified
 300              		.thumb
 301              		.thumb_func
ARM GAS  /tmp/cc5GoEY0.s 			page 20


 302              		.fpu fpv4-sp-d16
 304              	HAL_MultiProcessorEx_AddressLength_Set:
 305              	.LFB127:
 421:../../core/ST/STM32L4xx_HAL_Driver/Src/stm32l4xx_hal_uart_ex.c ****   /* Check the UART handle allocation */
 306              		.loc 1 421 0
 307              		.cfi_startproc
 308              		@ args = 0, pretend = 0, frame = 0
 309              		@ frame_needed = 0, uses_anonymous_args = 0
 310              	.LVL23:
 423:../../core/ST/STM32L4xx_HAL_Driver/Src/stm32l4xx_hal_uart_ex.c ****   {
 311              		.loc 1 423 0
 312 0000 B0B1     		cbz	r0, .L23
 421:../../core/ST/STM32L4xx_HAL_Driver/Src/stm32l4xx_hal_uart_ex.c ****   /* Check the UART handle allocation */
 313              		.loc 1 421 0
 314 0002 08B5     		push	{r3, lr}
 315              	.LCFI4:
 316              		.cfi_def_cfa_offset 8
 317              		.cfi_offset 3, -8
 318              		.cfi_offset 14, -4
 431:../../core/ST/STM32L4xx_HAL_Driver/Src/stm32l4xx_hal_uart_ex.c **** 
 319              		.loc 1 431 0
 320 0004 2423     		movs	r3, #36
 321 0006 80F87130 		strb	r3, [r0, #113]
 434:../../core/ST/STM32L4xx_HAL_Driver/Src/stm32l4xx_hal_uart_ex.c **** 
 322              		.loc 1 434 0
 323 000a 0268     		ldr	r2, [r0]
 324 000c 1368     		ldr	r3, [r2]
 325 000e 23F00103 		bic	r3, r3, #1
 326 0012 1360     		str	r3, [r2]
 437:../../core/ST/STM32L4xx_HAL_Driver/Src/stm32l4xx_hal_uart_ex.c **** 
 327              		.loc 1 437 0
 328 0014 0268     		ldr	r2, [r0]
 329 0016 5368     		ldr	r3, [r2, #4]
 330 0018 23F01003 		bic	r3, r3, #16
 331 001c 1943     		orrs	r1, r1, r3
 332              	.LVL24:
 333 001e 5160     		str	r1, [r2, #4]
 440:../../core/ST/STM32L4xx_HAL_Driver/Src/stm32l4xx_hal_uart_ex.c **** 
 334              		.loc 1 440 0
 335 0020 0268     		ldr	r2, [r0]
 336 0022 1368     		ldr	r3, [r2]
 337 0024 43F00103 		orr	r3, r3, #1
 338 0028 1360     		str	r3, [r2]
 443:../../core/ST/STM32L4xx_HAL_Driver/Src/stm32l4xx_hal_uart_ex.c **** }
 339              		.loc 1 443 0
 340 002a FFF7FEFF 		bl	UART_CheckIdleState
 341              	.LVL25:
 444:../../core/ST/STM32L4xx_HAL_Driver/Src/stm32l4xx_hal_uart_ex.c **** 
 342              		.loc 1 444 0
 343 002e 08BD     		pop	{r3, pc}
 344              	.LVL26:
 345              	.L23:
 346              	.LCFI5:
 347              		.cfi_def_cfa_offset 0
 348              		.cfi_restore 3
 349              		.cfi_restore 14
 425:../../core/ST/STM32L4xx_HAL_Driver/Src/stm32l4xx_hal_uart_ex.c ****   }
ARM GAS  /tmp/cc5GoEY0.s 			page 21


 350              		.loc 1 425 0
 351 0030 0120     		movs	r0, #1
 352              	.LVL27:
 444:../../core/ST/STM32L4xx_HAL_Driver/Src/stm32l4xx_hal_uart_ex.c **** 
 353              		.loc 1 444 0
 354 0032 7047     		bx	lr
 355              		.cfi_endproc
 356              	.LFE127:
 358              		.section	.text.HAL_UARTEx_StopModeWakeUpSourceConfig,"ax",%progbits
 359              		.align	1
 360              		.global	HAL_UARTEx_StopModeWakeUpSourceConfig
 361              		.syntax unified
 362              		.thumb
 363              		.thumb_func
 364              		.fpu fpv4-sp-d16
 366              	HAL_UARTEx_StopModeWakeUpSourceConfig:
 367              	.LFB128:
 460:../../core/ST/STM32L4xx_HAL_Driver/Src/stm32l4xx_hal_uart_ex.c ****   HAL_StatusTypeDef status = HAL_OK;
 368              		.loc 1 460 0
 369              		.cfi_startproc
 370              		@ args = 0, pretend = 0, frame = 8
 371              		@ frame_needed = 0, uses_anonymous_args = 0
 372              	.LVL28:
 373 0000 10B5     		push	{r4, lr}
 374              	.LCFI6:
 375              		.cfi_def_cfa_offset 8
 376              		.cfi_offset 4, -8
 377              		.cfi_offset 14, -4
 378 0002 84B0     		sub	sp, sp, #16
 379              	.LCFI7:
 380              		.cfi_def_cfa_offset 24
 381 0004 04AB     		add	r3, sp, #16
 382 0006 03E90600 		stmdb	r3, {r1, r2}
 383              	.LVL29:
 470:../../core/ST/STM32L4xx_HAL_Driver/Src/stm32l4xx_hal_uart_ex.c **** 
 384              		.loc 1 470 0
 385 000a 90F87030 		ldrb	r3, [r0, #112]	@ zero_extendqisi2
 386 000e 012B     		cmp	r3, #1
 387 0010 37D0     		beq	.L32
 388 0012 0446     		mov	r4, r0
 470:../../core/ST/STM32L4xx_HAL_Driver/Src/stm32l4xx_hal_uart_ex.c **** 
 389              		.loc 1 470 0 is_stmt 0 discriminator 2
 390 0014 0123     		movs	r3, #1
 391 0016 80F87030 		strb	r3, [r0, #112]
 472:../../core/ST/STM32L4xx_HAL_Driver/Src/stm32l4xx_hal_uart_ex.c **** 
 392              		.loc 1 472 0 is_stmt 1 discriminator 2
 393 001a 2423     		movs	r3, #36
 394 001c 80F87130 		strb	r3, [r0, #113]
 475:../../core/ST/STM32L4xx_HAL_Driver/Src/stm32l4xx_hal_uart_ex.c **** 
 395              		.loc 1 475 0 discriminator 2
 396 0020 0268     		ldr	r2, [r0]
 397 0022 1368     		ldr	r3, [r2]
 398 0024 23F00103 		bic	r3, r3, #1
 399 0028 1360     		str	r3, [r2]
 478:../../core/ST/STM32L4xx_HAL_Driver/Src/stm32l4xx_hal_uart_ex.c **** 
 400              		.loc 1 478 0 discriminator 2
 401 002a 0168     		ldr	r1, [r0]
ARM GAS  /tmp/cc5GoEY0.s 			page 22


 402 002c 8B68     		ldr	r3, [r1, #8]
 403 002e 23F44013 		bic	r3, r3, #3145728
 404 0032 029A     		ldr	r2, [sp, #8]
 405 0034 1343     		orrs	r3, r3, r2
 406 0036 8B60     		str	r3, [r1, #8]
 480:../../core/ST/STM32L4xx_HAL_Driver/Src/stm32l4xx_hal_uart_ex.c ****   {
 407              		.loc 1 480 0 discriminator 2
 408 0038 B2B1     		cbz	r2, .L35
 409              	.LVL30:
 410              	.L30:
 486:../../core/ST/STM32L4xx_HAL_Driver/Src/stm32l4xx_hal_uart_ex.c **** 
 411              		.loc 1 486 0
 412 003a 2268     		ldr	r2, [r4]
 413 003c 1368     		ldr	r3, [r2]
 414 003e 43F00103 		orr	r3, r3, #1
 415 0042 1360     		str	r3, [r2]
 489:../../core/ST/STM32L4xx_HAL_Driver/Src/stm32l4xx_hal_uart_ex.c **** 
 416              		.loc 1 489 0
 417 0044 FFF7FEFF 		bl	HAL_GetTick
 418              	.LVL31:
 492:../../core/ST/STM32L4xx_HAL_Driver/Src/stm32l4xx_hal_uart_ex.c ****   {
 419              		.loc 1 492 0
 420 0048 6FF07E43 		mvn	r3, #-33554432
 421 004c 0093     		str	r3, [sp]
 422 004e 0346     		mov	r3, r0
 423 0050 0022     		movs	r2, #0
 424 0052 4FF48001 		mov	r1, #4194304
 425 0056 2046     		mov	r0, r4
 426              	.LVL32:
 427 0058 FFF7FEFF 		bl	UART_WaitOnFlagUntilTimeout
 428              	.LVL33:
 429 005c 0346     		mov	r3, r0
 430 005e 48B9     		cbnz	r0, .L33
 499:../../core/ST/STM32L4xx_HAL_Driver/Src/stm32l4xx_hal_uart_ex.c ****   }
 431              		.loc 1 499 0
 432 0060 2022     		movs	r2, #32
 433 0062 84F87120 		strb	r2, [r4, #113]
 434 0066 06E0     		b	.L31
 435              	.LVL34:
 436              	.L35:
 482:../../core/ST/STM32L4xx_HAL_Driver/Src/stm32l4xx_hal_uart_ex.c ****   }
 437              		.loc 1 482 0
 438 0068 04AB     		add	r3, sp, #16
 439 006a 13E90600 		ldmdb	r3, {r1, r2}
 440 006e FFF7FEFF 		bl	UARTEx_Wakeup_AddressConfig
 441              	.LVL35:
 442 0072 E2E7     		b	.L30
 443              	.LVL36:
 444              	.L33:
 494:../../core/ST/STM32L4xx_HAL_Driver/Src/stm32l4xx_hal_uart_ex.c ****   }
 445              		.loc 1 494 0
 446 0074 0323     		movs	r3, #3
 447              	.L31:
 448              	.LVL37:
 503:../../core/ST/STM32L4xx_HAL_Driver/Src/stm32l4xx_hal_uart_ex.c **** 
 449              		.loc 1 503 0
 450 0076 0022     		movs	r2, #0
ARM GAS  /tmp/cc5GoEY0.s 			page 23


 451 0078 84F87020 		strb	r2, [r4, #112]
 452              	.LVL38:
 453              	.L29:
 506:../../core/ST/STM32L4xx_HAL_Driver/Src/stm32l4xx_hal_uart_ex.c **** 
 454              		.loc 1 506 0
 455 007c 1846     		mov	r0, r3
 456 007e 04B0     		add	sp, sp, #16
 457              	.LCFI8:
 458              		.cfi_remember_state
 459              		.cfi_def_cfa_offset 8
 460              		@ sp needed
 461 0080 10BD     		pop	{r4, pc}
 462              	.LVL39:
 463              	.L32:
 464              	.LCFI9:
 465              		.cfi_restore_state
 470:../../core/ST/STM32L4xx_HAL_Driver/Src/stm32l4xx_hal_uart_ex.c **** 
 466              		.loc 1 470 0
 467 0082 0223     		movs	r3, #2
 468 0084 FAE7     		b	.L29
 469              		.cfi_endproc
 470              	.LFE128:
 472              		.section	.text.HAL_UARTEx_EnableStopMode,"ax",%progbits
 473              		.align	1
 474              		.global	HAL_UARTEx_EnableStopMode
 475              		.syntax unified
 476              		.thumb
 477              		.thumb_func
 478              		.fpu fpv4-sp-d16
 480              	HAL_UARTEx_EnableStopMode:
 481              	.LFB129:
 516:../../core/ST/STM32L4xx_HAL_Driver/Src/stm32l4xx_hal_uart_ex.c ****   /* Process Locked */
 482              		.loc 1 516 0
 483              		.cfi_startproc
 484              		@ args = 0, pretend = 0, frame = 0
 485              		@ frame_needed = 0, uses_anonymous_args = 0
 486              		@ link register save eliminated.
 487              	.LVL40:
 518:../../core/ST/STM32L4xx_HAL_Driver/Src/stm32l4xx_hal_uart_ex.c **** 
 488              		.loc 1 518 0
 489 0000 90F87030 		ldrb	r3, [r0, #112]	@ zero_extendqisi2
 490 0004 012B     		cmp	r3, #1
 491 0006 0CD0     		beq	.L38
 518:../../core/ST/STM32L4xx_HAL_Driver/Src/stm32l4xx_hal_uart_ex.c **** 
 492              		.loc 1 518 0 is_stmt 0 discriminator 2
 493 0008 0123     		movs	r3, #1
 494 000a 80F87030 		strb	r3, [r0, #112]
 521:../../core/ST/STM32L4xx_HAL_Driver/Src/stm32l4xx_hal_uart_ex.c **** 
 495              		.loc 1 521 0 is_stmt 1 discriminator 2
 496 000e 0268     		ldr	r2, [r0]
 497 0010 1368     		ldr	r3, [r2]
 498 0012 43F00203 		orr	r3, r3, #2
 499 0016 1360     		str	r3, [r2]
 524:../../core/ST/STM32L4xx_HAL_Driver/Src/stm32l4xx_hal_uart_ex.c **** 
 500              		.loc 1 524 0 discriminator 2
 501 0018 0023     		movs	r3, #0
 502 001a 80F87030 		strb	r3, [r0, #112]
ARM GAS  /tmp/cc5GoEY0.s 			page 24


 526:../../core/ST/STM32L4xx_HAL_Driver/Src/stm32l4xx_hal_uart_ex.c **** }
 503              		.loc 1 526 0 discriminator 2
 504 001e 1846     		mov	r0, r3
 505              	.LVL41:
 506 0020 7047     		bx	lr
 507              	.LVL42:
 508              	.L38:
 518:../../core/ST/STM32L4xx_HAL_Driver/Src/stm32l4xx_hal_uart_ex.c **** 
 509              		.loc 1 518 0
 510 0022 0220     		movs	r0, #2
 511              	.LVL43:
 527:../../core/ST/STM32L4xx_HAL_Driver/Src/stm32l4xx_hal_uart_ex.c **** 
 512              		.loc 1 527 0
 513 0024 7047     		bx	lr
 514              		.cfi_endproc
 515              	.LFE129:
 517              		.section	.text.HAL_UARTEx_DisableStopMode,"ax",%progbits
 518              		.align	1
 519              		.global	HAL_UARTEx_DisableStopMode
 520              		.syntax unified
 521              		.thumb
 522              		.thumb_func
 523              		.fpu fpv4-sp-d16
 525              	HAL_UARTEx_DisableStopMode:
 526              	.LFB130:
 535:../../core/ST/STM32L4xx_HAL_Driver/Src/stm32l4xx_hal_uart_ex.c ****   /* Process Locked */
 527              		.loc 1 535 0
 528              		.cfi_startproc
 529              		@ args = 0, pretend = 0, frame = 0
 530              		@ frame_needed = 0, uses_anonymous_args = 0
 531              		@ link register save eliminated.
 532              	.LVL44:
 537:../../core/ST/STM32L4xx_HAL_Driver/Src/stm32l4xx_hal_uart_ex.c **** 
 533              		.loc 1 537 0
 534 0000 90F87030 		ldrb	r3, [r0, #112]	@ zero_extendqisi2
 535 0004 012B     		cmp	r3, #1
 536 0006 0CD0     		beq	.L41
 537:../../core/ST/STM32L4xx_HAL_Driver/Src/stm32l4xx_hal_uart_ex.c **** 
 537              		.loc 1 537 0 is_stmt 0 discriminator 2
 538 0008 0123     		movs	r3, #1
 539 000a 80F87030 		strb	r3, [r0, #112]
 540:../../core/ST/STM32L4xx_HAL_Driver/Src/stm32l4xx_hal_uart_ex.c **** 
 540              		.loc 1 540 0 is_stmt 1 discriminator 2
 541 000e 0268     		ldr	r2, [r0]
 542 0010 1368     		ldr	r3, [r2]
 543 0012 23F00203 		bic	r3, r3, #2
 544 0016 1360     		str	r3, [r2]
 543:../../core/ST/STM32L4xx_HAL_Driver/Src/stm32l4xx_hal_uart_ex.c **** 
 545              		.loc 1 543 0 discriminator 2
 546 0018 0023     		movs	r3, #0
 547 001a 80F87030 		strb	r3, [r0, #112]
 545:../../core/ST/STM32L4xx_HAL_Driver/Src/stm32l4xx_hal_uart_ex.c **** }
 548              		.loc 1 545 0 discriminator 2
 549 001e 1846     		mov	r0, r3
 550              	.LVL45:
 551 0020 7047     		bx	lr
 552              	.LVL46:
ARM GAS  /tmp/cc5GoEY0.s 			page 25


 553              	.L41:
 537:../../core/ST/STM32L4xx_HAL_Driver/Src/stm32l4xx_hal_uart_ex.c **** 
 554              		.loc 1 537 0
 555 0022 0220     		movs	r0, #2
 556              	.LVL47:
 546:../../core/ST/STM32L4xx_HAL_Driver/Src/stm32l4xx_hal_uart_ex.c **** 
 557              		.loc 1 546 0
 558 0024 7047     		bx	lr
 559              		.cfi_endproc
 560              	.LFE130:
 562              		.text
 563              	.Letext0:
 564              		.file 2 "/home/mats/gcc-arm-none-eabi-7-2018-q2-update/arm-none-eabi/include/machine/_default_type
 565              		.file 3 "/home/mats/gcc-arm-none-eabi-7-2018-q2-update/arm-none-eabi/include/sys/_stdint.h"
 566              		.file 4 "../../core/ST/CMSIS/Include/core_cm4.h"
 567              		.file 5 "../../core/ST/CMSIS/Device/ST/STM32L4xx/Include/system_stm32l4xx.h"
 568              		.file 6 "../../core/ST/CMSIS/Device/ST/STM32L4xx/Include/stm32l496xx.h"
 569              		.file 7 "../../core/ST/CMSIS/Device/ST/STM32L4xx/Include/stm32l4xx.h"
 570              		.file 8 "../../core/ST/STM32L4xx_HAL_Driver/Inc/stm32l4xx_hal_def.h"
 571              		.file 9 "../../core/ST/STM32L4xx_HAL_Driver/Inc/stm32l4xx_hal_dma.h"
 572              		.file 10 "../../core/ST/STM32L4xx_HAL_Driver/Inc/stm32l4xx_hal_uart.h"
 573              		.file 11 "../../core/ST/STM32L4xx_HAL_Driver/Inc/stm32l4xx_hal_uart_ex.h"
 574              		.file 12 "../../core/ST/STM32L4xx_HAL_Driver/Inc/stm32l4xx_hal.h"
ARM GAS  /tmp/cc5GoEY0.s 			page 26

