ARM GAS  /tmp/ccZGydLR.s 			page 1


   1              		.cpu cortex-m4
   2              		.eabi_attribute 27, 1
   3              		.eabi_attribute 28, 1
   4              		.eabi_attribute 20, 1
   5              		.eabi_attribute 21, 1
   6              		.eabi_attribute 23, 3
   7              		.eabi_attribute 24, 1
   8              		.eabi_attribute 25, 1
   9              		.eabi_attribute 26, 1
  10              		.eabi_attribute 30, 1
  11              		.eabi_attribute 34, 1
  12              		.eabi_attribute 18, 4
  13              		.file	"stm32l4xx_hal_gpio.c"
  14              		.text
  15              	.Ltext0:
  16              		.cfi_sections	.debug_frame
  17              		.section	.text.HAL_GPIO_Init,"ax",%progbits
  18              		.align	1
  19              		.global	HAL_GPIO_Init
  20              		.syntax unified
  21              		.thumb
  22              		.thumb_func
  23              		.fpu fpv4-sp-d16
  25              	HAL_GPIO_Init:
  26              	.LFB123:
  27              		.file 1 "../../core/ST/STM32L4xx_HAL_Driver/Src/stm32l4xx_hal_gpio.c"
   1:../../core/ST/STM32L4xx_HAL_Driver/Src/stm32l4xx_hal_gpio.c **** /**
   2:../../core/ST/STM32L4xx_HAL_Driver/Src/stm32l4xx_hal_gpio.c ****   ******************************************************************************
   3:../../core/ST/STM32L4xx_HAL_Driver/Src/stm32l4xx_hal_gpio.c ****   * @file    stm32l4xx_hal_gpio.c
   4:../../core/ST/STM32L4xx_HAL_Driver/Src/stm32l4xx_hal_gpio.c ****   * @author  MCD Application Team
   5:../../core/ST/STM32L4xx_HAL_Driver/Src/stm32l4xx_hal_gpio.c ****   * @brief   GPIO HAL module driver.
   6:../../core/ST/STM32L4xx_HAL_Driver/Src/stm32l4xx_hal_gpio.c ****   *          This file provides firmware functions to manage the following
   7:../../core/ST/STM32L4xx_HAL_Driver/Src/stm32l4xx_hal_gpio.c ****   *          functionalities of the General Purpose Input/Output (GPIO) peripheral:
   8:../../core/ST/STM32L4xx_HAL_Driver/Src/stm32l4xx_hal_gpio.c ****   *           + Initialization and de-initialization functions
   9:../../core/ST/STM32L4xx_HAL_Driver/Src/stm32l4xx_hal_gpio.c ****   *           + IO operation functions
  10:../../core/ST/STM32L4xx_HAL_Driver/Src/stm32l4xx_hal_gpio.c ****   *
  11:../../core/ST/STM32L4xx_HAL_Driver/Src/stm32l4xx_hal_gpio.c ****   @verbatim
  12:../../core/ST/STM32L4xx_HAL_Driver/Src/stm32l4xx_hal_gpio.c ****   ==============================================================================
  13:../../core/ST/STM32L4xx_HAL_Driver/Src/stm32l4xx_hal_gpio.c ****                     ##### GPIO Peripheral features #####
  14:../../core/ST/STM32L4xx_HAL_Driver/Src/stm32l4xx_hal_gpio.c ****   ==============================================================================
  15:../../core/ST/STM32L4xx_HAL_Driver/Src/stm32l4xx_hal_gpio.c ****   [..]
  16:../../core/ST/STM32L4xx_HAL_Driver/Src/stm32l4xx_hal_gpio.c ****     (+) Each port bit of the general-purpose I/O (GPIO) ports can be individually
  17:../../core/ST/STM32L4xx_HAL_Driver/Src/stm32l4xx_hal_gpio.c ****         configured by software in several modes:
  18:../../core/ST/STM32L4xx_HAL_Driver/Src/stm32l4xx_hal_gpio.c ****         (++) Input mode
  19:../../core/ST/STM32L4xx_HAL_Driver/Src/stm32l4xx_hal_gpio.c ****         (++) Analog mode
  20:../../core/ST/STM32L4xx_HAL_Driver/Src/stm32l4xx_hal_gpio.c ****         (++) Output mode
  21:../../core/ST/STM32L4xx_HAL_Driver/Src/stm32l4xx_hal_gpio.c ****         (++) Alternate function mode
  22:../../core/ST/STM32L4xx_HAL_Driver/Src/stm32l4xx_hal_gpio.c ****         (++) External interrupt/event lines
  23:../../core/ST/STM32L4xx_HAL_Driver/Src/stm32l4xx_hal_gpio.c **** 
  24:../../core/ST/STM32L4xx_HAL_Driver/Src/stm32l4xx_hal_gpio.c ****     (+) During and just after reset, the alternate functions and external interrupt
  25:../../core/ST/STM32L4xx_HAL_Driver/Src/stm32l4xx_hal_gpio.c ****         lines are not active and the I/O ports are configured in input floating mode.
  26:../../core/ST/STM32L4xx_HAL_Driver/Src/stm32l4xx_hal_gpio.c **** 
  27:../../core/ST/STM32L4xx_HAL_Driver/Src/stm32l4xx_hal_gpio.c ****     (+) All GPIO pins have weak internal pull-up and pull-down resistors, which can be
  28:../../core/ST/STM32L4xx_HAL_Driver/Src/stm32l4xx_hal_gpio.c ****         activated or not.
  29:../../core/ST/STM32L4xx_HAL_Driver/Src/stm32l4xx_hal_gpio.c **** 
  30:../../core/ST/STM32L4xx_HAL_Driver/Src/stm32l4xx_hal_gpio.c ****     (+) In Output or Alternate mode, each IO can be configured on open-drain or push-pull
  31:../../core/ST/STM32L4xx_HAL_Driver/Src/stm32l4xx_hal_gpio.c ****         type and the IO speed can be selected depending on the VDD value.
ARM GAS  /tmp/ccZGydLR.s 			page 2


  32:../../core/ST/STM32L4xx_HAL_Driver/Src/stm32l4xx_hal_gpio.c **** 
  33:../../core/ST/STM32L4xx_HAL_Driver/Src/stm32l4xx_hal_gpio.c ****     (+) The microcontroller IO pins are connected to onboard peripherals/modules through a
  34:../../core/ST/STM32L4xx_HAL_Driver/Src/stm32l4xx_hal_gpio.c ****         multiplexer that allows only one peripheral alternate function (AF) connected
  35:../../core/ST/STM32L4xx_HAL_Driver/Src/stm32l4xx_hal_gpio.c ****        to an IO pin at a time. In this way, there can be no conflict between peripherals
  36:../../core/ST/STM32L4xx_HAL_Driver/Src/stm32l4xx_hal_gpio.c ****        sharing the same IO pin.
  37:../../core/ST/STM32L4xx_HAL_Driver/Src/stm32l4xx_hal_gpio.c **** 
  38:../../core/ST/STM32L4xx_HAL_Driver/Src/stm32l4xx_hal_gpio.c ****     (+) All ports have external interrupt/event capability. To use external interrupt
  39:../../core/ST/STM32L4xx_HAL_Driver/Src/stm32l4xx_hal_gpio.c ****         lines, the port must be configured in input mode. All available GPIO pins are
  40:../../core/ST/STM32L4xx_HAL_Driver/Src/stm32l4xx_hal_gpio.c ****         connected to the 16 external interrupt/event lines from EXTI0 to EXTI15.
  41:../../core/ST/STM32L4xx_HAL_Driver/Src/stm32l4xx_hal_gpio.c **** 
  42:../../core/ST/STM32L4xx_HAL_Driver/Src/stm32l4xx_hal_gpio.c ****     (+) The external interrupt/event controller consists of up to 39 edge detectors
  43:../../core/ST/STM32L4xx_HAL_Driver/Src/stm32l4xx_hal_gpio.c ****         (16 lines are connected to GPIO) for generating event/interrupt requests (each
  44:../../core/ST/STM32L4xx_HAL_Driver/Src/stm32l4xx_hal_gpio.c ****         input line can be independently configured to select the type (interrupt or event)
  45:../../core/ST/STM32L4xx_HAL_Driver/Src/stm32l4xx_hal_gpio.c ****         and the corresponding trigger event (rising or falling or both). Each line can
  46:../../core/ST/STM32L4xx_HAL_Driver/Src/stm32l4xx_hal_gpio.c ****         also be masked independently.
  47:../../core/ST/STM32L4xx_HAL_Driver/Src/stm32l4xx_hal_gpio.c **** 
  48:../../core/ST/STM32L4xx_HAL_Driver/Src/stm32l4xx_hal_gpio.c ****                      ##### How to use this driver #####
  49:../../core/ST/STM32L4xx_HAL_Driver/Src/stm32l4xx_hal_gpio.c ****   ==============================================================================
  50:../../core/ST/STM32L4xx_HAL_Driver/Src/stm32l4xx_hal_gpio.c ****   [..]
  51:../../core/ST/STM32L4xx_HAL_Driver/Src/stm32l4xx_hal_gpio.c ****     (#) Enable the GPIO AHB clock using the following function: __HAL_RCC_GPIOx_CLK_ENABLE().
  52:../../core/ST/STM32L4xx_HAL_Driver/Src/stm32l4xx_hal_gpio.c **** 
  53:../../core/ST/STM32L4xx_HAL_Driver/Src/stm32l4xx_hal_gpio.c ****     (#) Configure the GPIO pin(s) using HAL_GPIO_Init().
  54:../../core/ST/STM32L4xx_HAL_Driver/Src/stm32l4xx_hal_gpio.c ****         (++) Configure the IO mode using "Mode" member from GPIO_InitTypeDef structure
  55:../../core/ST/STM32L4xx_HAL_Driver/Src/stm32l4xx_hal_gpio.c ****         (++) Activate Pull-up, Pull-down resistor using "Pull" member from GPIO_InitTypeDef
  56:../../core/ST/STM32L4xx_HAL_Driver/Src/stm32l4xx_hal_gpio.c ****              structure.
  57:../../core/ST/STM32L4xx_HAL_Driver/Src/stm32l4xx_hal_gpio.c ****         (++) In case of Output or alternate function mode selection: the speed is
  58:../../core/ST/STM32L4xx_HAL_Driver/Src/stm32l4xx_hal_gpio.c ****              configured through "Speed" member from GPIO_InitTypeDef structure.
  59:../../core/ST/STM32L4xx_HAL_Driver/Src/stm32l4xx_hal_gpio.c ****         (++) In alternate mode is selection, the alternate function connected to the IO
  60:../../core/ST/STM32L4xx_HAL_Driver/Src/stm32l4xx_hal_gpio.c ****              is configured through "Alternate" member from GPIO_InitTypeDef structure.
  61:../../core/ST/STM32L4xx_HAL_Driver/Src/stm32l4xx_hal_gpio.c ****         (++) Analog mode is required when a pin is to be used as ADC channel
  62:../../core/ST/STM32L4xx_HAL_Driver/Src/stm32l4xx_hal_gpio.c ****              or DAC output.
  63:../../core/ST/STM32L4xx_HAL_Driver/Src/stm32l4xx_hal_gpio.c ****         (++) In case of external interrupt/event selection the "Mode" member from
  64:../../core/ST/STM32L4xx_HAL_Driver/Src/stm32l4xx_hal_gpio.c ****              GPIO_InitTypeDef structure select the type (interrupt or event) and
  65:../../core/ST/STM32L4xx_HAL_Driver/Src/stm32l4xx_hal_gpio.c ****              the corresponding trigger event (rising or falling or both).
  66:../../core/ST/STM32L4xx_HAL_Driver/Src/stm32l4xx_hal_gpio.c **** 
  67:../../core/ST/STM32L4xx_HAL_Driver/Src/stm32l4xx_hal_gpio.c ****     (#) In case of external interrupt/event mode selection, configure NVIC IRQ priority
  68:../../core/ST/STM32L4xx_HAL_Driver/Src/stm32l4xx_hal_gpio.c ****         mapped to the EXTI line using HAL_NVIC_SetPriority() and enable it using
  69:../../core/ST/STM32L4xx_HAL_Driver/Src/stm32l4xx_hal_gpio.c ****         HAL_NVIC_EnableIRQ().
  70:../../core/ST/STM32L4xx_HAL_Driver/Src/stm32l4xx_hal_gpio.c **** 
  71:../../core/ST/STM32L4xx_HAL_Driver/Src/stm32l4xx_hal_gpio.c ****     (#) To get the level of a pin configured in input mode use HAL_GPIO_ReadPin().
  72:../../core/ST/STM32L4xx_HAL_Driver/Src/stm32l4xx_hal_gpio.c **** 
  73:../../core/ST/STM32L4xx_HAL_Driver/Src/stm32l4xx_hal_gpio.c ****     (#) To set/reset the level of a pin configured in output mode use
  74:../../core/ST/STM32L4xx_HAL_Driver/Src/stm32l4xx_hal_gpio.c ****         HAL_GPIO_WritePin()/HAL_GPIO_TogglePin().
  75:../../core/ST/STM32L4xx_HAL_Driver/Src/stm32l4xx_hal_gpio.c **** 
  76:../../core/ST/STM32L4xx_HAL_Driver/Src/stm32l4xx_hal_gpio.c ****    (#) To lock pin configuration until next reset use HAL_GPIO_LockPin().
  77:../../core/ST/STM32L4xx_HAL_Driver/Src/stm32l4xx_hal_gpio.c **** 
  78:../../core/ST/STM32L4xx_HAL_Driver/Src/stm32l4xx_hal_gpio.c ****     (#) During and just after reset, the alternate functions are not
  79:../../core/ST/STM32L4xx_HAL_Driver/Src/stm32l4xx_hal_gpio.c ****         active and the GPIO pins are configured in input floating mode (except JTAG
  80:../../core/ST/STM32L4xx_HAL_Driver/Src/stm32l4xx_hal_gpio.c ****         pins).
  81:../../core/ST/STM32L4xx_HAL_Driver/Src/stm32l4xx_hal_gpio.c **** 
  82:../../core/ST/STM32L4xx_HAL_Driver/Src/stm32l4xx_hal_gpio.c ****     (#) The LSE oscillator pins OSC32_IN and OSC32_OUT can be used as general purpose
  83:../../core/ST/STM32L4xx_HAL_Driver/Src/stm32l4xx_hal_gpio.c ****         (PC14 and PC15, respectively) when the LSE oscillator is off. The LSE has
  84:../../core/ST/STM32L4xx_HAL_Driver/Src/stm32l4xx_hal_gpio.c ****         priority over the GPIO function.
  85:../../core/ST/STM32L4xx_HAL_Driver/Src/stm32l4xx_hal_gpio.c **** 
  86:../../core/ST/STM32L4xx_HAL_Driver/Src/stm32l4xx_hal_gpio.c ****     (#) The HSE oscillator pins OSC_IN/OSC_OUT can be used as
  87:../../core/ST/STM32L4xx_HAL_Driver/Src/stm32l4xx_hal_gpio.c ****         general purpose PH0 and PH1, respectively, when the HSE oscillator is off.
  88:../../core/ST/STM32L4xx_HAL_Driver/Src/stm32l4xx_hal_gpio.c ****         The HSE has priority over the GPIO function.
ARM GAS  /tmp/ccZGydLR.s 			page 3


  89:../../core/ST/STM32L4xx_HAL_Driver/Src/stm32l4xx_hal_gpio.c **** 
  90:../../core/ST/STM32L4xx_HAL_Driver/Src/stm32l4xx_hal_gpio.c ****   @endverbatim
  91:../../core/ST/STM32L4xx_HAL_Driver/Src/stm32l4xx_hal_gpio.c ****   ******************************************************************************
  92:../../core/ST/STM32L4xx_HAL_Driver/Src/stm32l4xx_hal_gpio.c ****   * @attention
  93:../../core/ST/STM32L4xx_HAL_Driver/Src/stm32l4xx_hal_gpio.c ****   *
  94:../../core/ST/STM32L4xx_HAL_Driver/Src/stm32l4xx_hal_gpio.c ****   * <h2><center>&copy; COPYRIGHT(c) 2017 STMicroelectronics</center></h2>
  95:../../core/ST/STM32L4xx_HAL_Driver/Src/stm32l4xx_hal_gpio.c ****   *
  96:../../core/ST/STM32L4xx_HAL_Driver/Src/stm32l4xx_hal_gpio.c ****   * Redistribution and use in source and binary forms, with or without modification,
  97:../../core/ST/STM32L4xx_HAL_Driver/Src/stm32l4xx_hal_gpio.c ****   * are permitted provided that the following conditions are met:
  98:../../core/ST/STM32L4xx_HAL_Driver/Src/stm32l4xx_hal_gpio.c ****   *   1. Redistributions of source code must retain the above copyright notice,
  99:../../core/ST/STM32L4xx_HAL_Driver/Src/stm32l4xx_hal_gpio.c ****   *      this list of conditions and the following disclaimer.
 100:../../core/ST/STM32L4xx_HAL_Driver/Src/stm32l4xx_hal_gpio.c ****   *   2. Redistributions in binary form must reproduce the above copyright notice,
 101:../../core/ST/STM32L4xx_HAL_Driver/Src/stm32l4xx_hal_gpio.c ****   *      this list of conditions and the following disclaimer in the documentation
 102:../../core/ST/STM32L4xx_HAL_Driver/Src/stm32l4xx_hal_gpio.c ****   *      and/or other materials provided with the distribution.
 103:../../core/ST/STM32L4xx_HAL_Driver/Src/stm32l4xx_hal_gpio.c ****   *   3. Neither the name of STMicroelectronics nor the names of its contributors
 104:../../core/ST/STM32L4xx_HAL_Driver/Src/stm32l4xx_hal_gpio.c ****   *      may be used to endorse or promote products derived from this software
 105:../../core/ST/STM32L4xx_HAL_Driver/Src/stm32l4xx_hal_gpio.c ****   *      without specific prior written permission.
 106:../../core/ST/STM32L4xx_HAL_Driver/Src/stm32l4xx_hal_gpio.c ****   *
 107:../../core/ST/STM32L4xx_HAL_Driver/Src/stm32l4xx_hal_gpio.c ****   * THIS SOFTWARE IS PROVIDED BY THE COPYRIGHT HOLDERS AND CONTRIBUTORS "AS IS"
 108:../../core/ST/STM32L4xx_HAL_Driver/Src/stm32l4xx_hal_gpio.c ****   * AND ANY EXPRESS OR IMPLIED WARRANTIES, INCLUDING, BUT NOT LIMITED TO, THE
 109:../../core/ST/STM32L4xx_HAL_Driver/Src/stm32l4xx_hal_gpio.c ****   * IMPLIED WARRANTIES OF MERCHANTABILITY AND FITNESS FOR A PARTICULAR PURPOSE ARE
 110:../../core/ST/STM32L4xx_HAL_Driver/Src/stm32l4xx_hal_gpio.c ****   * DISCLAIMED. IN NO EVENT SHALL THE COPYRIGHT HOLDER OR CONTRIBUTORS BE LIABLE
 111:../../core/ST/STM32L4xx_HAL_Driver/Src/stm32l4xx_hal_gpio.c ****   * FOR ANY DIRECT, INDIRECT, INCIDENTAL, SPECIAL, EXEMPLARY, OR CONSEQUENTIAL
 112:../../core/ST/STM32L4xx_HAL_Driver/Src/stm32l4xx_hal_gpio.c ****   * DAMAGES (INCLUDING, BUT NOT LIMITED TO, PROCUREMENT OF SUBSTITUTE GOODS OR
 113:../../core/ST/STM32L4xx_HAL_Driver/Src/stm32l4xx_hal_gpio.c ****   * SERVICES; LOSS OF USE, DATA, OR PROFITS; OR BUSINESS INTERRUPTION) HOWEVER
 114:../../core/ST/STM32L4xx_HAL_Driver/Src/stm32l4xx_hal_gpio.c ****   * CAUSED AND ON ANY THEORY OF LIABILITY, WHETHER IN CONTRACT, STRICT LIABILITY,
 115:../../core/ST/STM32L4xx_HAL_Driver/Src/stm32l4xx_hal_gpio.c ****   * OR TORT (INCLUDING NEGLIGENCE OR OTHERWISE) ARISING IN ANY WAY OUT OF THE USE
 116:../../core/ST/STM32L4xx_HAL_Driver/Src/stm32l4xx_hal_gpio.c ****   * OF THIS SOFTWARE, EVEN IF ADVISED OF THE POSSIBILITY OF SUCH DAMAGE.
 117:../../core/ST/STM32L4xx_HAL_Driver/Src/stm32l4xx_hal_gpio.c ****   *
 118:../../core/ST/STM32L4xx_HAL_Driver/Src/stm32l4xx_hal_gpio.c ****   ******************************************************************************
 119:../../core/ST/STM32L4xx_HAL_Driver/Src/stm32l4xx_hal_gpio.c ****   */
 120:../../core/ST/STM32L4xx_HAL_Driver/Src/stm32l4xx_hal_gpio.c **** 
 121:../../core/ST/STM32L4xx_HAL_Driver/Src/stm32l4xx_hal_gpio.c **** /* Includes ------------------------------------------------------------------*/
 122:../../core/ST/STM32L4xx_HAL_Driver/Src/stm32l4xx_hal_gpio.c **** #include "stm32l4xx_hal.h"
 123:../../core/ST/STM32L4xx_HAL_Driver/Src/stm32l4xx_hal_gpio.c **** 
 124:../../core/ST/STM32L4xx_HAL_Driver/Src/stm32l4xx_hal_gpio.c **** /** @addtogroup STM32L4xx_HAL_Driver
 125:../../core/ST/STM32L4xx_HAL_Driver/Src/stm32l4xx_hal_gpio.c ****   * @{
 126:../../core/ST/STM32L4xx_HAL_Driver/Src/stm32l4xx_hal_gpio.c ****   */
 127:../../core/ST/STM32L4xx_HAL_Driver/Src/stm32l4xx_hal_gpio.c **** 
 128:../../core/ST/STM32L4xx_HAL_Driver/Src/stm32l4xx_hal_gpio.c **** /** @defgroup GPIO GPIO
 129:../../core/ST/STM32L4xx_HAL_Driver/Src/stm32l4xx_hal_gpio.c ****   * @brief GPIO HAL module driver
 130:../../core/ST/STM32L4xx_HAL_Driver/Src/stm32l4xx_hal_gpio.c ****   * @{
 131:../../core/ST/STM32L4xx_HAL_Driver/Src/stm32l4xx_hal_gpio.c ****   */
 132:../../core/ST/STM32L4xx_HAL_Driver/Src/stm32l4xx_hal_gpio.c **** /** MISRA C:2012 deviation rule has been granted for following rules:
 133:../../core/ST/STM32L4xx_HAL_Driver/Src/stm32l4xx_hal_gpio.c ****   * Rule-12.2 - Medium: RHS argument is in interval [0,INF] which is out of
 134:../../core/ST/STM32L4xx_HAL_Driver/Src/stm32l4xx_hal_gpio.c ****   * range of the shift operator in following API :
 135:../../core/ST/STM32L4xx_HAL_Driver/Src/stm32l4xx_hal_gpio.c ****   * HAL_GPIO_Init
 136:../../core/ST/STM32L4xx_HAL_Driver/Src/stm32l4xx_hal_gpio.c ****   * HAL_GPIO_DeInit
 137:../../core/ST/STM32L4xx_HAL_Driver/Src/stm32l4xx_hal_gpio.c ****   */
 138:../../core/ST/STM32L4xx_HAL_Driver/Src/stm32l4xx_hal_gpio.c **** 
 139:../../core/ST/STM32L4xx_HAL_Driver/Src/stm32l4xx_hal_gpio.c **** #ifdef HAL_GPIO_MODULE_ENABLED
 140:../../core/ST/STM32L4xx_HAL_Driver/Src/stm32l4xx_hal_gpio.c **** 
 141:../../core/ST/STM32L4xx_HAL_Driver/Src/stm32l4xx_hal_gpio.c **** /* Private typedef -----------------------------------------------------------*/
 142:../../core/ST/STM32L4xx_HAL_Driver/Src/stm32l4xx_hal_gpio.c **** /* Private defines -----------------------------------------------------------*/
 143:../../core/ST/STM32L4xx_HAL_Driver/Src/stm32l4xx_hal_gpio.c **** /** @defgroup GPIO_Private_Defines GPIO Private Defines
 144:../../core/ST/STM32L4xx_HAL_Driver/Src/stm32l4xx_hal_gpio.c ****   * @{
 145:../../core/ST/STM32L4xx_HAL_Driver/Src/stm32l4xx_hal_gpio.c ****   */
ARM GAS  /tmp/ccZGydLR.s 			page 4


 146:../../core/ST/STM32L4xx_HAL_Driver/Src/stm32l4xx_hal_gpio.c **** #define GPIO_MODE             (0x00000003u)
 147:../../core/ST/STM32L4xx_HAL_Driver/Src/stm32l4xx_hal_gpio.c **** #define ANALOG_MODE           (0x00000008u)
 148:../../core/ST/STM32L4xx_HAL_Driver/Src/stm32l4xx_hal_gpio.c **** #define EXTI_MODE             (0x10000000u)
 149:../../core/ST/STM32L4xx_HAL_Driver/Src/stm32l4xx_hal_gpio.c **** #define GPIO_MODE_IT          (0x00010000u)
 150:../../core/ST/STM32L4xx_HAL_Driver/Src/stm32l4xx_hal_gpio.c **** #define GPIO_MODE_EVT         (0x00020000u)
 151:../../core/ST/STM32L4xx_HAL_Driver/Src/stm32l4xx_hal_gpio.c **** #define RISING_EDGE           (0x00100000u)
 152:../../core/ST/STM32L4xx_HAL_Driver/Src/stm32l4xx_hal_gpio.c **** #define FALLING_EDGE          (0x00200000u)
 153:../../core/ST/STM32L4xx_HAL_Driver/Src/stm32l4xx_hal_gpio.c **** #define GPIO_OUTPUT_TYPE      (0x00000010u)
 154:../../core/ST/STM32L4xx_HAL_Driver/Src/stm32l4xx_hal_gpio.c **** 
 155:../../core/ST/STM32L4xx_HAL_Driver/Src/stm32l4xx_hal_gpio.c **** #define GPIO_NUMBER           (16u)
 156:../../core/ST/STM32L4xx_HAL_Driver/Src/stm32l4xx_hal_gpio.c **** /**
 157:../../core/ST/STM32L4xx_HAL_Driver/Src/stm32l4xx_hal_gpio.c ****   * @}
 158:../../core/ST/STM32L4xx_HAL_Driver/Src/stm32l4xx_hal_gpio.c ****   */
 159:../../core/ST/STM32L4xx_HAL_Driver/Src/stm32l4xx_hal_gpio.c **** 
 160:../../core/ST/STM32L4xx_HAL_Driver/Src/stm32l4xx_hal_gpio.c **** /* Private macros ------------------------------------------------------------*/
 161:../../core/ST/STM32L4xx_HAL_Driver/Src/stm32l4xx_hal_gpio.c **** /* Private variables ---------------------------------------------------------*/
 162:../../core/ST/STM32L4xx_HAL_Driver/Src/stm32l4xx_hal_gpio.c **** /* Private function prototypes -----------------------------------------------*/
 163:../../core/ST/STM32L4xx_HAL_Driver/Src/stm32l4xx_hal_gpio.c **** /* Exported functions --------------------------------------------------------*/
 164:../../core/ST/STM32L4xx_HAL_Driver/Src/stm32l4xx_hal_gpio.c **** 
 165:../../core/ST/STM32L4xx_HAL_Driver/Src/stm32l4xx_hal_gpio.c **** /** @defgroup GPIO_Exported_Functions GPIO Exported Functions
 166:../../core/ST/STM32L4xx_HAL_Driver/Src/stm32l4xx_hal_gpio.c ****   * @{
 167:../../core/ST/STM32L4xx_HAL_Driver/Src/stm32l4xx_hal_gpio.c ****   */
 168:../../core/ST/STM32L4xx_HAL_Driver/Src/stm32l4xx_hal_gpio.c **** 
 169:../../core/ST/STM32L4xx_HAL_Driver/Src/stm32l4xx_hal_gpio.c **** /** @defgroup GPIO_Exported_Functions_Group1 Initialization/de-initialization functions
 170:../../core/ST/STM32L4xx_HAL_Driver/Src/stm32l4xx_hal_gpio.c ****  *  @brief    Initialization and Configuration functions
 171:../../core/ST/STM32L4xx_HAL_Driver/Src/stm32l4xx_hal_gpio.c ****  *
 172:../../core/ST/STM32L4xx_HAL_Driver/Src/stm32l4xx_hal_gpio.c **** @verbatim
 173:../../core/ST/STM32L4xx_HAL_Driver/Src/stm32l4xx_hal_gpio.c ****  ===============================================================================
 174:../../core/ST/STM32L4xx_HAL_Driver/Src/stm32l4xx_hal_gpio.c ****               ##### Initialization and de-initialization functions #####
 175:../../core/ST/STM32L4xx_HAL_Driver/Src/stm32l4xx_hal_gpio.c ****  ===============================================================================
 176:../../core/ST/STM32L4xx_HAL_Driver/Src/stm32l4xx_hal_gpio.c **** 
 177:../../core/ST/STM32L4xx_HAL_Driver/Src/stm32l4xx_hal_gpio.c **** @endverbatim
 178:../../core/ST/STM32L4xx_HAL_Driver/Src/stm32l4xx_hal_gpio.c ****   * @{
 179:../../core/ST/STM32L4xx_HAL_Driver/Src/stm32l4xx_hal_gpio.c ****   */
 180:../../core/ST/STM32L4xx_HAL_Driver/Src/stm32l4xx_hal_gpio.c **** 
 181:../../core/ST/STM32L4xx_HAL_Driver/Src/stm32l4xx_hal_gpio.c **** /**
 182:../../core/ST/STM32L4xx_HAL_Driver/Src/stm32l4xx_hal_gpio.c ****   * @brief  Initialize the GPIOx peripheral according to the specified parameters in the GPIO_Init.
 183:../../core/ST/STM32L4xx_HAL_Driver/Src/stm32l4xx_hal_gpio.c ****   * @param  GPIOx: where x can be (A..H) to select the GPIO peripheral for STM32L4 family
 184:../../core/ST/STM32L4xx_HAL_Driver/Src/stm32l4xx_hal_gpio.c ****   * @param  GPIO_Init: pointer to a GPIO_InitTypeDef structure that contains
 185:../../core/ST/STM32L4xx_HAL_Driver/Src/stm32l4xx_hal_gpio.c ****   *         the configuration information for the specified GPIO peripheral.
 186:../../core/ST/STM32L4xx_HAL_Driver/Src/stm32l4xx_hal_gpio.c ****   * @retval None
 187:../../core/ST/STM32L4xx_HAL_Driver/Src/stm32l4xx_hal_gpio.c ****   */
 188:../../core/ST/STM32L4xx_HAL_Driver/Src/stm32l4xx_hal_gpio.c **** void HAL_GPIO_Init(GPIO_TypeDef  *GPIOx, GPIO_InitTypeDef *GPIO_Init)
 189:../../core/ST/STM32L4xx_HAL_Driver/Src/stm32l4xx_hal_gpio.c **** {
  28              		.loc 1 189 0
  29              		.cfi_startproc
  30              		@ args = 0, pretend = 0, frame = 8
  31              		@ frame_needed = 0, uses_anonymous_args = 0
  32              		@ link register save eliminated.
  33              	.LVL0:
  34 0000 F0B4     		push	{r4, r5, r6, r7}
  35              	.LCFI0:
  36              		.cfi_def_cfa_offset 16
  37              		.cfi_offset 4, -16
  38              		.cfi_offset 5, -12
  39              		.cfi_offset 6, -8
  40              		.cfi_offset 7, -4
ARM GAS  /tmp/ccZGydLR.s 			page 5


  41 0002 82B0     		sub	sp, sp, #8
  42              	.LCFI1:
  43              		.cfi_def_cfa_offset 24
  44              	.LVL1:
 190:../../core/ST/STM32L4xx_HAL_Driver/Src/stm32l4xx_hal_gpio.c ****   uint32_t position = 0x00u;
  45              		.loc 1 190 0
  46 0004 0023     		movs	r3, #0
 191:../../core/ST/STM32L4xx_HAL_Driver/Src/stm32l4xx_hal_gpio.c ****   uint32_t iocurrent;
 192:../../core/ST/STM32L4xx_HAL_Driver/Src/stm32l4xx_hal_gpio.c ****   uint32_t temp;
 193:../../core/ST/STM32L4xx_HAL_Driver/Src/stm32l4xx_hal_gpio.c **** 
 194:../../core/ST/STM32L4xx_HAL_Driver/Src/stm32l4xx_hal_gpio.c ****   /* Check the parameters */
 195:../../core/ST/STM32L4xx_HAL_Driver/Src/stm32l4xx_hal_gpio.c ****   assert_param(IS_GPIO_ALL_INSTANCE(GPIOx));
 196:../../core/ST/STM32L4xx_HAL_Driver/Src/stm32l4xx_hal_gpio.c ****   assert_param(IS_GPIO_PIN(GPIO_Init->Pin));
 197:../../core/ST/STM32L4xx_HAL_Driver/Src/stm32l4xx_hal_gpio.c ****   assert_param(IS_GPIO_MODE(GPIO_Init->Mode));
 198:../../core/ST/STM32L4xx_HAL_Driver/Src/stm32l4xx_hal_gpio.c ****   assert_param(IS_GPIO_PULL(GPIO_Init->Pull));
 199:../../core/ST/STM32L4xx_HAL_Driver/Src/stm32l4xx_hal_gpio.c **** 
 200:../../core/ST/STM32L4xx_HAL_Driver/Src/stm32l4xx_hal_gpio.c ****   /* Configure the port pins */
 201:../../core/ST/STM32L4xx_HAL_Driver/Src/stm32l4xx_hal_gpio.c ****   while (((GPIO_Init->Pin) >> position) != 0x00u)
  47              		.loc 1 201 0
  48 0006 36E0     		b	.L2
  49              	.LVL2:
  50              	.L24:
 202:../../core/ST/STM32L4xx_HAL_Driver/Src/stm32l4xx_hal_gpio.c ****   {
 203:../../core/ST/STM32L4xx_HAL_Driver/Src/stm32l4xx_hal_gpio.c ****     /* Get current io position */
 204:../../core/ST/STM32L4xx_HAL_Driver/Src/stm32l4xx_hal_gpio.c ****     iocurrent = (GPIO_Init->Pin) & (1uL << position);
 205:../../core/ST/STM32L4xx_HAL_Driver/Src/stm32l4xx_hal_gpio.c **** 
 206:../../core/ST/STM32L4xx_HAL_Driver/Src/stm32l4xx_hal_gpio.c ****     if (iocurrent != 0x00u)
 207:../../core/ST/STM32L4xx_HAL_Driver/Src/stm32l4xx_hal_gpio.c ****     {
 208:../../core/ST/STM32L4xx_HAL_Driver/Src/stm32l4xx_hal_gpio.c ****       /*--------------------- GPIO Mode Configuration ------------------------*/
 209:../../core/ST/STM32L4xx_HAL_Driver/Src/stm32l4xx_hal_gpio.c ****       /* In case of Alternate function mode selection */
 210:../../core/ST/STM32L4xx_HAL_Driver/Src/stm32l4xx_hal_gpio.c ****       if((GPIO_Init->Mode == GPIO_MODE_AF_PP) || (GPIO_Init->Mode == GPIO_MODE_AF_OD))
 211:../../core/ST/STM32L4xx_HAL_Driver/Src/stm32l4xx_hal_gpio.c ****       {
 212:../../core/ST/STM32L4xx_HAL_Driver/Src/stm32l4xx_hal_gpio.c ****         /* Check the Alternate function parameters */
 213:../../core/ST/STM32L4xx_HAL_Driver/Src/stm32l4xx_hal_gpio.c ****         assert_param(IS_GPIO_AF_INSTANCE(GPIOx));
 214:../../core/ST/STM32L4xx_HAL_Driver/Src/stm32l4xx_hal_gpio.c ****         assert_param(IS_GPIO_AF(GPIO_Init->Alternate));
 215:../../core/ST/STM32L4xx_HAL_Driver/Src/stm32l4xx_hal_gpio.c **** 
 216:../../core/ST/STM32L4xx_HAL_Driver/Src/stm32l4xx_hal_gpio.c ****         /* Configure Alternate function mapped with the current IO */
 217:../../core/ST/STM32L4xx_HAL_Driver/Src/stm32l4xx_hal_gpio.c ****         temp = GPIOx->AFR[position >> 3u];
 218:../../core/ST/STM32L4xx_HAL_Driver/Src/stm32l4xx_hal_gpio.c ****         temp &= ~(0xFu << ((position & 0x07u) * 4u));
 219:../../core/ST/STM32L4xx_HAL_Driver/Src/stm32l4xx_hal_gpio.c ****         temp |= ((GPIO_Init->Alternate) << ((position & 0x07u) * 4u));
 220:../../core/ST/STM32L4xx_HAL_Driver/Src/stm32l4xx_hal_gpio.c ****         GPIOx->AFR[position >> 3u] = temp;
 221:../../core/ST/STM32L4xx_HAL_Driver/Src/stm32l4xx_hal_gpio.c ****       }
 222:../../core/ST/STM32L4xx_HAL_Driver/Src/stm32l4xx_hal_gpio.c **** 
 223:../../core/ST/STM32L4xx_HAL_Driver/Src/stm32l4xx_hal_gpio.c ****       /* Configure IO Direction mode (Input, Output, Alternate or Analog) */
 224:../../core/ST/STM32L4xx_HAL_Driver/Src/stm32l4xx_hal_gpio.c ****       temp = GPIOx->MODER;
 225:../../core/ST/STM32L4xx_HAL_Driver/Src/stm32l4xx_hal_gpio.c ****       temp &= ~(GPIO_MODER_MODE0 << (position * 2u));
 226:../../core/ST/STM32L4xx_HAL_Driver/Src/stm32l4xx_hal_gpio.c ****       temp |= ((GPIO_Init->Mode & GPIO_MODE) << (position * 2u));
 227:../../core/ST/STM32L4xx_HAL_Driver/Src/stm32l4xx_hal_gpio.c ****       GPIOx->MODER = temp;
 228:../../core/ST/STM32L4xx_HAL_Driver/Src/stm32l4xx_hal_gpio.c **** 
 229:../../core/ST/STM32L4xx_HAL_Driver/Src/stm32l4xx_hal_gpio.c ****       /* In case of Output or Alternate function mode selection */
 230:../../core/ST/STM32L4xx_HAL_Driver/Src/stm32l4xx_hal_gpio.c ****       if((GPIO_Init->Mode == GPIO_MODE_OUTPUT_PP) || (GPIO_Init->Mode == GPIO_MODE_AF_PP) ||
 231:../../core/ST/STM32L4xx_HAL_Driver/Src/stm32l4xx_hal_gpio.c ****          (GPIO_Init->Mode == GPIO_MODE_OUTPUT_OD) || (GPIO_Init->Mode == GPIO_MODE_AF_OD))
 232:../../core/ST/STM32L4xx_HAL_Driver/Src/stm32l4xx_hal_gpio.c ****       {
 233:../../core/ST/STM32L4xx_HAL_Driver/Src/stm32l4xx_hal_gpio.c ****         /* Check the Speed parameter */
 234:../../core/ST/STM32L4xx_HAL_Driver/Src/stm32l4xx_hal_gpio.c ****         assert_param(IS_GPIO_SPEED(GPIO_Init->Speed));
 235:../../core/ST/STM32L4xx_HAL_Driver/Src/stm32l4xx_hal_gpio.c ****         /* Configure the IO Speed */
 236:../../core/ST/STM32L4xx_HAL_Driver/Src/stm32l4xx_hal_gpio.c ****         temp = GPIOx->OSPEEDR;
ARM GAS  /tmp/ccZGydLR.s 			page 6


 237:../../core/ST/STM32L4xx_HAL_Driver/Src/stm32l4xx_hal_gpio.c ****         temp &= ~(GPIO_OSPEEDR_OSPEED0 << (position * 2u));
 238:../../core/ST/STM32L4xx_HAL_Driver/Src/stm32l4xx_hal_gpio.c ****         temp |= (GPIO_Init->Speed << (position * 2u));
 239:../../core/ST/STM32L4xx_HAL_Driver/Src/stm32l4xx_hal_gpio.c ****         GPIOx->OSPEEDR = temp;
 240:../../core/ST/STM32L4xx_HAL_Driver/Src/stm32l4xx_hal_gpio.c **** 
 241:../../core/ST/STM32L4xx_HAL_Driver/Src/stm32l4xx_hal_gpio.c ****         /* Configure the IO Output Type */
 242:../../core/ST/STM32L4xx_HAL_Driver/Src/stm32l4xx_hal_gpio.c ****         temp = GPIOx->OTYPER;
 243:../../core/ST/STM32L4xx_HAL_Driver/Src/stm32l4xx_hal_gpio.c ****         temp &= ~(GPIO_OTYPER_OT0 << position) ;
 244:../../core/ST/STM32L4xx_HAL_Driver/Src/stm32l4xx_hal_gpio.c ****         temp |= (((GPIO_Init->Mode & GPIO_OUTPUT_TYPE) >> 4u) << position);
 245:../../core/ST/STM32L4xx_HAL_Driver/Src/stm32l4xx_hal_gpio.c ****         GPIOx->OTYPER = temp;
 246:../../core/ST/STM32L4xx_HAL_Driver/Src/stm32l4xx_hal_gpio.c ****       }
 247:../../core/ST/STM32L4xx_HAL_Driver/Src/stm32l4xx_hal_gpio.c **** 
 248:../../core/ST/STM32L4xx_HAL_Driver/Src/stm32l4xx_hal_gpio.c **** #if defined(STM32L471xx) || defined(STM32L475xx) || defined(STM32L476xx) || defined(STM32L485xx) ||
 249:../../core/ST/STM32L4xx_HAL_Driver/Src/stm32l4xx_hal_gpio.c **** 
 250:../../core/ST/STM32L4xx_HAL_Driver/Src/stm32l4xx_hal_gpio.c ****       /* In case of Analog mode, check if ADC control mode is selected */
 251:../../core/ST/STM32L4xx_HAL_Driver/Src/stm32l4xx_hal_gpio.c ****       if((GPIO_Init->Mode & GPIO_MODE_ANALOG) == GPIO_MODE_ANALOG)
 252:../../core/ST/STM32L4xx_HAL_Driver/Src/stm32l4xx_hal_gpio.c ****       {
 253:../../core/ST/STM32L4xx_HAL_Driver/Src/stm32l4xx_hal_gpio.c ****         /* Configure the IO Output Type */
 254:../../core/ST/STM32L4xx_HAL_Driver/Src/stm32l4xx_hal_gpio.c ****         temp = GPIOx->ASCR;
 255:../../core/ST/STM32L4xx_HAL_Driver/Src/stm32l4xx_hal_gpio.c ****         temp &= ~(GPIO_ASCR_ASC0 << position) ;
 256:../../core/ST/STM32L4xx_HAL_Driver/Src/stm32l4xx_hal_gpio.c ****         temp |= (((GPIO_Init->Mode & ANALOG_MODE) >> 3) << position);
 257:../../core/ST/STM32L4xx_HAL_Driver/Src/stm32l4xx_hal_gpio.c ****         GPIOx->ASCR = temp;
 258:../../core/ST/STM32L4xx_HAL_Driver/Src/stm32l4xx_hal_gpio.c ****       }
 259:../../core/ST/STM32L4xx_HAL_Driver/Src/stm32l4xx_hal_gpio.c **** 
 260:../../core/ST/STM32L4xx_HAL_Driver/Src/stm32l4xx_hal_gpio.c **** #endif /* STM32L471xx || STM32L475xx || STM32L476xx || STM32L485xx || STM32L486xx */
 261:../../core/ST/STM32L4xx_HAL_Driver/Src/stm32l4xx_hal_gpio.c **** 
 262:../../core/ST/STM32L4xx_HAL_Driver/Src/stm32l4xx_hal_gpio.c ****       /* Activate the Pull-up or Pull down resistor for the current IO */
 263:../../core/ST/STM32L4xx_HAL_Driver/Src/stm32l4xx_hal_gpio.c ****       temp = GPIOx->PUPDR;
 264:../../core/ST/STM32L4xx_HAL_Driver/Src/stm32l4xx_hal_gpio.c ****       temp &= ~(GPIO_PUPDR_PUPD0 << (position * 2u));
 265:../../core/ST/STM32L4xx_HAL_Driver/Src/stm32l4xx_hal_gpio.c ****       temp |= ((GPIO_Init->Pull) << (position * 2u));
 266:../../core/ST/STM32L4xx_HAL_Driver/Src/stm32l4xx_hal_gpio.c ****       GPIOx->PUPDR = temp;
 267:../../core/ST/STM32L4xx_HAL_Driver/Src/stm32l4xx_hal_gpio.c **** 
 268:../../core/ST/STM32L4xx_HAL_Driver/Src/stm32l4xx_hal_gpio.c ****       /*--------------------- EXTI Mode Configuration ------------------------*/
 269:../../core/ST/STM32L4xx_HAL_Driver/Src/stm32l4xx_hal_gpio.c ****       /* Configure the External Interrupt or event for the current IO */
 270:../../core/ST/STM32L4xx_HAL_Driver/Src/stm32l4xx_hal_gpio.c ****       if((GPIO_Init->Mode & EXTI_MODE) == EXTI_MODE)
 271:../../core/ST/STM32L4xx_HAL_Driver/Src/stm32l4xx_hal_gpio.c ****       {
 272:../../core/ST/STM32L4xx_HAL_Driver/Src/stm32l4xx_hal_gpio.c ****         /* Enable SYSCFG Clock */
 273:../../core/ST/STM32L4xx_HAL_Driver/Src/stm32l4xx_hal_gpio.c ****         __HAL_RCC_SYSCFG_CLK_ENABLE();
 274:../../core/ST/STM32L4xx_HAL_Driver/Src/stm32l4xx_hal_gpio.c **** 
 275:../../core/ST/STM32L4xx_HAL_Driver/Src/stm32l4xx_hal_gpio.c ****         temp = SYSCFG->EXTICR[position >> 2u];
 276:../../core/ST/STM32L4xx_HAL_Driver/Src/stm32l4xx_hal_gpio.c ****         temp &= ~(0x0FuL << (4u * (position & 0x03u)));
 277:../../core/ST/STM32L4xx_HAL_Driver/Src/stm32l4xx_hal_gpio.c ****         temp |= (GPIO_GET_INDEX(GPIOx) << (4u * (position & 0x03u)));
  51              		.loc 1 277 0
  52 0008 0724     		movs	r4, #7
  53 000a 00E0     		b	.L8
  54              	.L14:
  55 000c 0024     		movs	r4, #0
  56              	.L8:
  57              		.loc 1 277 0 is_stmt 0 discriminator 32
  58 000e B440     		lsls	r4, r4, r6
  59 0010 3C43     		orrs	r4, r4, r7
  60              	.LVL3:
 278:../../core/ST/STM32L4xx_HAL_Driver/Src/stm32l4xx_hal_gpio.c ****         SYSCFG->EXTICR[position >> 2u] = temp;
  61              		.loc 1 278 0 is_stmt 1 discriminator 32
  62 0012 0235     		adds	r5, r5, #2
  63 0014 644E     		ldr	r6, .L25
  64 0016 46F82540 		str	r4, [r6, r5, lsl #2]
 279:../../core/ST/STM32L4xx_HAL_Driver/Src/stm32l4xx_hal_gpio.c **** 
ARM GAS  /tmp/ccZGydLR.s 			page 7


 280:../../core/ST/STM32L4xx_HAL_Driver/Src/stm32l4xx_hal_gpio.c ****         /* Clear EXTI line configuration */
 281:../../core/ST/STM32L4xx_HAL_Driver/Src/stm32l4xx_hal_gpio.c ****         temp = EXTI->IMR1;
  65              		.loc 1 281 0 discriminator 32
  66 001a 644C     		ldr	r4, .L25+4
  67              	.LVL4:
  68 001c 2568     		ldr	r5, [r4]
  69              	.LVL5:
 282:../../core/ST/STM32L4xx_HAL_Driver/Src/stm32l4xx_hal_gpio.c ****         temp &= ~(iocurrent);
  70              		.loc 1 282 0 discriminator 32
  71 001e D443     		mvns	r4, r2
  72 0020 04EA0506 		and	r6, r4, r5
  73              	.LVL6:
 283:../../core/ST/STM32L4xx_HAL_Driver/Src/stm32l4xx_hal_gpio.c ****         if((GPIO_Init->Mode & GPIO_MODE_IT) == GPIO_MODE_IT)
  74              		.loc 1 283 0 discriminator 32
  75 0024 4F68     		ldr	r7, [r1, #4]
  76 0026 17F4803F 		tst	r7, #65536
  77 002a 01D0     		beq	.L9
 284:../../core/ST/STM32L4xx_HAL_Driver/Src/stm32l4xx_hal_gpio.c ****         {
 285:../../core/ST/STM32L4xx_HAL_Driver/Src/stm32l4xx_hal_gpio.c ****           temp |= iocurrent;
  78              		.loc 1 285 0
  79 002c 42EA0506 		orr	r6, r2, r5
  80              	.LVL7:
  81              	.L9:
 286:../../core/ST/STM32L4xx_HAL_Driver/Src/stm32l4xx_hal_gpio.c ****         }
 287:../../core/ST/STM32L4xx_HAL_Driver/Src/stm32l4xx_hal_gpio.c ****         EXTI->IMR1 = temp;
  82              		.loc 1 287 0
  83 0030 5E4D     		ldr	r5, .L25+4
  84 0032 2E60     		str	r6, [r5]
 288:../../core/ST/STM32L4xx_HAL_Driver/Src/stm32l4xx_hal_gpio.c **** 
 289:../../core/ST/STM32L4xx_HAL_Driver/Src/stm32l4xx_hal_gpio.c ****         temp = EXTI->EMR1;
  85              		.loc 1 289 0
  86 0034 6D68     		ldr	r5, [r5, #4]
  87              	.LVL8:
 290:../../core/ST/STM32L4xx_HAL_Driver/Src/stm32l4xx_hal_gpio.c ****         temp &= ~(iocurrent);
  88              		.loc 1 290 0
  89 0036 04EA0506 		and	r6, r4, r5
  90              	.LVL9:
 291:../../core/ST/STM32L4xx_HAL_Driver/Src/stm32l4xx_hal_gpio.c ****         if((GPIO_Init->Mode & GPIO_MODE_EVT) == GPIO_MODE_EVT)
  91              		.loc 1 291 0
  92 003a 4F68     		ldr	r7, [r1, #4]
  93 003c 17F4003F 		tst	r7, #131072
  94 0040 01D0     		beq	.L10
 292:../../core/ST/STM32L4xx_HAL_Driver/Src/stm32l4xx_hal_gpio.c ****         {
 293:../../core/ST/STM32L4xx_HAL_Driver/Src/stm32l4xx_hal_gpio.c ****           temp |= iocurrent;
  95              		.loc 1 293 0
  96 0042 42EA0506 		orr	r6, r2, r5
  97              	.LVL10:
  98              	.L10:
 294:../../core/ST/STM32L4xx_HAL_Driver/Src/stm32l4xx_hal_gpio.c ****         }
 295:../../core/ST/STM32L4xx_HAL_Driver/Src/stm32l4xx_hal_gpio.c ****         EXTI->EMR1 = temp;
  99              		.loc 1 295 0
 100 0046 594D     		ldr	r5, .L25+4
 101 0048 6E60     		str	r6, [r5, #4]
 296:../../core/ST/STM32L4xx_HAL_Driver/Src/stm32l4xx_hal_gpio.c **** 
 297:../../core/ST/STM32L4xx_HAL_Driver/Src/stm32l4xx_hal_gpio.c ****         /* Clear Rising Falling edge configuration */
 298:../../core/ST/STM32L4xx_HAL_Driver/Src/stm32l4xx_hal_gpio.c ****         temp = EXTI->RTSR1;
 102              		.loc 1 298 0
ARM GAS  /tmp/ccZGydLR.s 			page 8


 103 004a AD68     		ldr	r5, [r5, #8]
 104              	.LVL11:
 299:../../core/ST/STM32L4xx_HAL_Driver/Src/stm32l4xx_hal_gpio.c ****         temp &= ~(iocurrent);
 105              		.loc 1 299 0
 106 004c 04EA0506 		and	r6, r4, r5
 107              	.LVL12:
 300:../../core/ST/STM32L4xx_HAL_Driver/Src/stm32l4xx_hal_gpio.c ****         if((GPIO_Init->Mode & RISING_EDGE) == RISING_EDGE)
 108              		.loc 1 300 0
 109 0050 4F68     		ldr	r7, [r1, #4]
 110 0052 17F4801F 		tst	r7, #1048576
 111 0056 01D0     		beq	.L11
 301:../../core/ST/STM32L4xx_HAL_Driver/Src/stm32l4xx_hal_gpio.c ****         {
 302:../../core/ST/STM32L4xx_HAL_Driver/Src/stm32l4xx_hal_gpio.c ****           temp |= iocurrent;
 112              		.loc 1 302 0
 113 0058 42EA0506 		orr	r6, r2, r5
 114              	.LVL13:
 115              	.L11:
 303:../../core/ST/STM32L4xx_HAL_Driver/Src/stm32l4xx_hal_gpio.c ****         }
 304:../../core/ST/STM32L4xx_HAL_Driver/Src/stm32l4xx_hal_gpio.c ****         EXTI->RTSR1 = temp;
 116              		.loc 1 304 0
 117 005c 534D     		ldr	r5, .L25+4
 118 005e AE60     		str	r6, [r5, #8]
 305:../../core/ST/STM32L4xx_HAL_Driver/Src/stm32l4xx_hal_gpio.c **** 
 306:../../core/ST/STM32L4xx_HAL_Driver/Src/stm32l4xx_hal_gpio.c ****         temp = EXTI->FTSR1;
 119              		.loc 1 306 0
 120 0060 ED68     		ldr	r5, [r5, #12]
 121              	.LVL14:
 307:../../core/ST/STM32L4xx_HAL_Driver/Src/stm32l4xx_hal_gpio.c ****         temp &= ~(iocurrent);
 122              		.loc 1 307 0
 123 0062 2C40     		ands	r4, r4, r5
 124              	.LVL15:
 308:../../core/ST/STM32L4xx_HAL_Driver/Src/stm32l4xx_hal_gpio.c ****         if((GPIO_Init->Mode & FALLING_EDGE) == FALLING_EDGE)
 125              		.loc 1 308 0
 126 0064 4E68     		ldr	r6, [r1, #4]
 127 0066 16F4001F 		tst	r6, #2097152
 128 006a 01D0     		beq	.L12
 309:../../core/ST/STM32L4xx_HAL_Driver/Src/stm32l4xx_hal_gpio.c ****         {
 310:../../core/ST/STM32L4xx_HAL_Driver/Src/stm32l4xx_hal_gpio.c ****           temp |= iocurrent;
 129              		.loc 1 310 0
 130 006c 42EA0504 		orr	r4, r2, r5
 131              	.LVL16:
 132              	.L12:
 311:../../core/ST/STM32L4xx_HAL_Driver/Src/stm32l4xx_hal_gpio.c ****         }
 312:../../core/ST/STM32L4xx_HAL_Driver/Src/stm32l4xx_hal_gpio.c ****         EXTI->FTSR1 = temp;
 133              		.loc 1 312 0
 134 0070 4E4A     		ldr	r2, .L25+4
 135              	.LVL17:
 136 0072 D460     		str	r4, [r2, #12]
 137              	.LVL18:
 138              	.L3:
 313:../../core/ST/STM32L4xx_HAL_Driver/Src/stm32l4xx_hal_gpio.c ****       }
 314:../../core/ST/STM32L4xx_HAL_Driver/Src/stm32l4xx_hal_gpio.c ****     }
 315:../../core/ST/STM32L4xx_HAL_Driver/Src/stm32l4xx_hal_gpio.c **** 
 316:../../core/ST/STM32L4xx_HAL_Driver/Src/stm32l4xx_hal_gpio.c ****     position++;
 139              		.loc 1 316 0
 140 0074 0133     		adds	r3, r3, #1
 141              	.LVL19:
ARM GAS  /tmp/ccZGydLR.s 			page 9


 142              	.L2:
 201:../../core/ST/STM32L4xx_HAL_Driver/Src/stm32l4xx_hal_gpio.c ****   {
 143              		.loc 1 201 0
 144 0076 0A68     		ldr	r2, [r1]
 145 0078 32FA03F4 		lsrs	r4, r2, r3
 146 007c 00F09180 		beq	.L23
 204:../../core/ST/STM32L4xx_HAL_Driver/Src/stm32l4xx_hal_gpio.c **** 
 147              		.loc 1 204 0
 148 0080 0124     		movs	r4, #1
 149 0082 9C40     		lsls	r4, r4, r3
 150              	.LVL20:
 206:../../core/ST/STM32L4xx_HAL_Driver/Src/stm32l4xx_hal_gpio.c ****     {
 151              		.loc 1 206 0
 152 0084 2240     		ands	r2, r4, r2
 153              	.LVL21:
 154 0086 F5D0     		beq	.L3
 210:../../core/ST/STM32L4xx_HAL_Driver/Src/stm32l4xx_hal_gpio.c ****       {
 155              		.loc 1 210 0
 156 0088 4D68     		ldr	r5, [r1, #4]
 157 008a 022D     		cmp	r5, #2
 158 008c 01D0     		beq	.L4
 210:../../core/ST/STM32L4xx_HAL_Driver/Src/stm32l4xx_hal_gpio.c ****       {
 159              		.loc 1 210 0 is_stmt 0 discriminator 1
 160 008e 122D     		cmp	r5, #18
 161 0090 10D1     		bne	.L5
 162              	.L4:
 217:../../core/ST/STM32L4xx_HAL_Driver/Src/stm32l4xx_hal_gpio.c ****         temp &= ~(0xFu << ((position & 0x07u) * 4u));
 163              		.loc 1 217 0 is_stmt 1
 164 0092 DE08     		lsrs	r6, r3, #3
 165 0094 0836     		adds	r6, r6, #8
 166 0096 50F826C0 		ldr	ip, [r0, r6, lsl #2]
 167              	.LVL22:
 218:../../core/ST/STM32L4xx_HAL_Driver/Src/stm32l4xx_hal_gpio.c ****         temp |= ((GPIO_Init->Alternate) << ((position & 0x07u) * 4u));
 168              		.loc 1 218 0
 169 009a 03F00705 		and	r5, r3, #7
 170 009e AF00     		lsls	r7, r5, #2
 171 00a0 0F25     		movs	r5, #15
 172 00a2 BD40     		lsls	r5, r5, r7
 173 00a4 2CEA050C 		bic	ip, ip, r5
 174              	.LVL23:
 219:../../core/ST/STM32L4xx_HAL_Driver/Src/stm32l4xx_hal_gpio.c ****         GPIOx->AFR[position >> 3u] = temp;
 175              		.loc 1 219 0
 176 00a8 0D69     		ldr	r5, [r1, #16]
 177 00aa BD40     		lsls	r5, r5, r7
 178 00ac 45EA0C05 		orr	r5, r5, ip
 179              	.LVL24:
 220:../../core/ST/STM32L4xx_HAL_Driver/Src/stm32l4xx_hal_gpio.c ****       }
 180              		.loc 1 220 0
 181 00b0 40F82650 		str	r5, [r0, r6, lsl #2]
 182              	.LVL25:
 183              	.L5:
 224:../../core/ST/STM32L4xx_HAL_Driver/Src/stm32l4xx_hal_gpio.c ****       temp &= ~(GPIO_MODER_MODE0 << (position * 2u));
 184              		.loc 1 224 0
 185 00b4 0668     		ldr	r6, [r0]
 186              	.LVL26:
 225:../../core/ST/STM32L4xx_HAL_Driver/Src/stm32l4xx_hal_gpio.c ****       temp |= ((GPIO_Init->Mode & GPIO_MODE) << (position * 2u));
 187              		.loc 1 225 0
ARM GAS  /tmp/ccZGydLR.s 			page 10


 188 00b6 5F00     		lsls	r7, r3, #1
 189 00b8 0325     		movs	r5, #3
 190 00ba BD40     		lsls	r5, r5, r7
 191 00bc ED43     		mvns	r5, r5
 192 00be 05EA060C 		and	ip, r5, r6
 193              	.LVL27:
 226:../../core/ST/STM32L4xx_HAL_Driver/Src/stm32l4xx_hal_gpio.c ****       GPIOx->MODER = temp;
 194              		.loc 1 226 0
 195 00c2 4E68     		ldr	r6, [r1, #4]
 196 00c4 06F00306 		and	r6, r6, #3
 197 00c8 BE40     		lsls	r6, r6, r7
 198 00ca 46EA0C06 		orr	r6, r6, ip
 199              	.LVL28:
 227:../../core/ST/STM32L4xx_HAL_Driver/Src/stm32l4xx_hal_gpio.c **** 
 200              		.loc 1 227 0
 201 00ce 0660     		str	r6, [r0]
 230:../../core/ST/STM32L4xx_HAL_Driver/Src/stm32l4xx_hal_gpio.c ****          (GPIO_Init->Mode == GPIO_MODE_OUTPUT_OD) || (GPIO_Init->Mode == GPIO_MODE_AF_OD))
 202              		.loc 1 230 0
 203 00d0 4E68     		ldr	r6, [r1, #4]
 204              	.LVL29:
 205 00d2 06F1FF3C 		add	ip, r6, #-1
 206 00d6 BCF1010F 		cmp	ip, #1
 207 00da 03D9     		bls	.L6
 230:../../core/ST/STM32L4xx_HAL_Driver/Src/stm32l4xx_hal_gpio.c ****          (GPIO_Init->Mode == GPIO_MODE_OUTPUT_OD) || (GPIO_Init->Mode == GPIO_MODE_AF_OD))
 208              		.loc 1 230 0 is_stmt 0 discriminator 1
 209 00dc 112E     		cmp	r6, #17
 210 00de 01D0     		beq	.L6
 231:../../core/ST/STM32L4xx_HAL_Driver/Src/stm32l4xx_hal_gpio.c ****       {
 211              		.loc 1 231 0 is_stmt 1
 212 00e0 122E     		cmp	r6, #18
 213 00e2 10D1     		bne	.L7
 214              	.L6:
 236:../../core/ST/STM32L4xx_HAL_Driver/Src/stm32l4xx_hal_gpio.c ****         temp &= ~(GPIO_OSPEEDR_OSPEED0 << (position * 2u));
 215              		.loc 1 236 0
 216 00e4 8668     		ldr	r6, [r0, #8]
 217              	.LVL30:
 237:../../core/ST/STM32L4xx_HAL_Driver/Src/stm32l4xx_hal_gpio.c ****         temp |= (GPIO_Init->Speed << (position * 2u));
 218              		.loc 1 237 0
 219 00e6 05EA060C 		and	ip, r5, r6
 220              	.LVL31:
 238:../../core/ST/STM32L4xx_HAL_Driver/Src/stm32l4xx_hal_gpio.c ****         GPIOx->OSPEEDR = temp;
 221              		.loc 1 238 0
 222 00ea CE68     		ldr	r6, [r1, #12]
 223 00ec BE40     		lsls	r6, r6, r7
 224 00ee 46EA0C06 		orr	r6, r6, ip
 225              	.LVL32:
 239:../../core/ST/STM32L4xx_HAL_Driver/Src/stm32l4xx_hal_gpio.c **** 
 226              		.loc 1 239 0
 227 00f2 8660     		str	r6, [r0, #8]
 242:../../core/ST/STM32L4xx_HAL_Driver/Src/stm32l4xx_hal_gpio.c ****         temp &= ~(GPIO_OTYPER_OT0 << position) ;
 228              		.loc 1 242 0
 229 00f4 4668     		ldr	r6, [r0, #4]
 230              	.LVL33:
 243:../../core/ST/STM32L4xx_HAL_Driver/Src/stm32l4xx_hal_gpio.c ****         temp |= (((GPIO_Init->Mode & GPIO_OUTPUT_TYPE) >> 4u) << position);
 231              		.loc 1 243 0
 232 00f6 26EA0404 		bic	r4, r6, r4
 233              	.LVL34:
ARM GAS  /tmp/ccZGydLR.s 			page 11


 244:../../core/ST/STM32L4xx_HAL_Driver/Src/stm32l4xx_hal_gpio.c ****         GPIOx->OTYPER = temp;
 234              		.loc 1 244 0
 235 00fa 4E68     		ldr	r6, [r1, #4]
 236 00fc C6F30016 		ubfx	r6, r6, #4, #1
 237 0100 9E40     		lsls	r6, r6, r3
 238 0102 2643     		orrs	r6, r6, r4
 239              	.LVL35:
 245:../../core/ST/STM32L4xx_HAL_Driver/Src/stm32l4xx_hal_gpio.c ****       }
 240              		.loc 1 245 0
 241 0104 4660     		str	r6, [r0, #4]
 242              	.LVL36:
 243              	.L7:
 263:../../core/ST/STM32L4xx_HAL_Driver/Src/stm32l4xx_hal_gpio.c ****       temp &= ~(GPIO_PUPDR_PUPD0 << (position * 2u));
 244              		.loc 1 263 0
 245 0106 C468     		ldr	r4, [r0, #12]
 246              	.LVL37:
 264:../../core/ST/STM32L4xx_HAL_Driver/Src/stm32l4xx_hal_gpio.c ****       temp |= ((GPIO_Init->Pull) << (position * 2u));
 247              		.loc 1 264 0
 248 0108 2540     		ands	r5, r5, r4
 249              	.LVL38:
 265:../../core/ST/STM32L4xx_HAL_Driver/Src/stm32l4xx_hal_gpio.c ****       GPIOx->PUPDR = temp;
 250              		.loc 1 265 0
 251 010a 8C68     		ldr	r4, [r1, #8]
 252 010c BC40     		lsls	r4, r4, r7
 253 010e 2C43     		orrs	r4, r4, r5
 254              	.LVL39:
 266:../../core/ST/STM32L4xx_HAL_Driver/Src/stm32l4xx_hal_gpio.c **** 
 255              		.loc 1 266 0
 256 0110 C460     		str	r4, [r0, #12]
 270:../../core/ST/STM32L4xx_HAL_Driver/Src/stm32l4xx_hal_gpio.c ****       {
 257              		.loc 1 270 0
 258 0112 4C68     		ldr	r4, [r1, #4]
 259              	.LVL40:
 260 0114 14F0805F 		tst	r4, #268435456
 261 0118 ACD0     		beq	.L3
 262              	.LBB2:
 273:../../core/ST/STM32L4xx_HAL_Driver/Src/stm32l4xx_hal_gpio.c **** 
 263              		.loc 1 273 0
 264 011a 254C     		ldr	r4, .L25+8
 265 011c 256E     		ldr	r5, [r4, #96]
 266 011e 45F00105 		orr	r5, r5, #1
 267 0122 2566     		str	r5, [r4, #96]
 268              	.LVL41:
 269 0124 246E     		ldr	r4, [r4, #96]
 270 0126 04F00104 		and	r4, r4, #1
 271 012a 0194     		str	r4, [sp, #4]
 272 012c 019C     		ldr	r4, [sp, #4]
 273              	.LBE2:
 275:../../core/ST/STM32L4xx_HAL_Driver/Src/stm32l4xx_hal_gpio.c ****         temp &= ~(0x0FuL << (4u * (position & 0x03u)));
 274              		.loc 1 275 0
 275 012e 9D08     		lsrs	r5, r3, #2
 276 0130 AE1C     		adds	r6, r5, #2
 277 0132 1D4C     		ldr	r4, .L25
 278 0134 54F82670 		ldr	r7, [r4, r6, lsl #2]
 279              	.LVL42:
 276:../../core/ST/STM32L4xx_HAL_Driver/Src/stm32l4xx_hal_gpio.c ****         temp |= (GPIO_GET_INDEX(GPIOx) << (4u * (position & 0x03u)));
 280              		.loc 1 276 0
ARM GAS  /tmp/ccZGydLR.s 			page 12


 281 0138 03F00304 		and	r4, r3, #3
 282 013c A600     		lsls	r6, r4, #2
 283 013e 0F24     		movs	r4, #15
 284 0140 B440     		lsls	r4, r4, r6
 285 0142 27EA0407 		bic	r7, r7, r4
 286              	.LVL43:
 277:../../core/ST/STM32L4xx_HAL_Driver/Src/stm32l4xx_hal_gpio.c ****         SYSCFG->EXTICR[position >> 2u] = temp;
 287              		.loc 1 277 0
 288 0146 B0F1904F 		cmp	r0, #1207959552
 289 014a 3FF45FAF 		beq	.L14
 277:../../core/ST/STM32L4xx_HAL_Driver/Src/stm32l4xx_hal_gpio.c ****         SYSCFG->EXTICR[position >> 2u] = temp;
 290              		.loc 1 277 0 is_stmt 0 discriminator 1
 291 014e 194C     		ldr	r4, .L25+12
 292 0150 A042     		cmp	r0, r4
 293 0152 1AD0     		beq	.L15
 277:../../core/ST/STM32L4xx_HAL_Driver/Src/stm32l4xx_hal_gpio.c ****         SYSCFG->EXTICR[position >> 2u] = temp;
 294              		.loc 1 277 0 discriminator 3
 295 0154 04F58064 		add	r4, r4, #1024
 296 0158 A042     		cmp	r0, r4
 297 015a 18D0     		beq	.L16
 277:../../core/ST/STM32L4xx_HAL_Driver/Src/stm32l4xx_hal_gpio.c ****         SYSCFG->EXTICR[position >> 2u] = temp;
 298              		.loc 1 277 0 discriminator 5
 299 015c 04F58064 		add	r4, r4, #1024
 300 0160 A042     		cmp	r0, r4
 301 0162 16D0     		beq	.L17
 277:../../core/ST/STM32L4xx_HAL_Driver/Src/stm32l4xx_hal_gpio.c ****         SYSCFG->EXTICR[position >> 2u] = temp;
 302              		.loc 1 277 0 discriminator 7
 303 0164 04F58064 		add	r4, r4, #1024
 304 0168 A042     		cmp	r0, r4
 305 016a 14D0     		beq	.L18
 277:../../core/ST/STM32L4xx_HAL_Driver/Src/stm32l4xx_hal_gpio.c ****         SYSCFG->EXTICR[position >> 2u] = temp;
 306              		.loc 1 277 0 discriminator 9
 307 016c 04F58064 		add	r4, r4, #1024
 308 0170 A042     		cmp	r0, r4
 309 0172 12D0     		beq	.L19
 277:../../core/ST/STM32L4xx_HAL_Driver/Src/stm32l4xx_hal_gpio.c ****         SYSCFG->EXTICR[position >> 2u] = temp;
 310              		.loc 1 277 0 discriminator 11
 311 0174 04F58064 		add	r4, r4, #1024
 312 0178 A042     		cmp	r0, r4
 313 017a 10D0     		beq	.L20
 277:../../core/ST/STM32L4xx_HAL_Driver/Src/stm32l4xx_hal_gpio.c ****         SYSCFG->EXTICR[position >> 2u] = temp;
 314              		.loc 1 277 0 discriminator 13
 315 017c 04F58064 		add	r4, r4, #1024
 316 0180 A042     		cmp	r0, r4
 317 0182 3FF441AF 		beq	.L24
 277:../../core/ST/STM32L4xx_HAL_Driver/Src/stm32l4xx_hal_gpio.c ****         SYSCFG->EXTICR[position >> 2u] = temp;
 318              		.loc 1 277 0
 319 0186 0824     		movs	r4, #8
 320 0188 41E7     		b	.L8
 321              	.L15:
 322 018a 0124     		movs	r4, #1
 323 018c 3FE7     		b	.L8
 324              	.L16:
 325 018e 0224     		movs	r4, #2
 326 0190 3DE7     		b	.L8
 327              	.L17:
 328 0192 0324     		movs	r4, #3
ARM GAS  /tmp/ccZGydLR.s 			page 13


 329 0194 3BE7     		b	.L8
 330              	.L18:
 331 0196 0424     		movs	r4, #4
 332 0198 39E7     		b	.L8
 333              	.L19:
 334 019a 0524     		movs	r4, #5
 335 019c 37E7     		b	.L8
 336              	.L20:
 337 019e 0624     		movs	r4, #6
 338 01a0 35E7     		b	.L8
 339              	.LVL44:
 340              	.L23:
 317:../../core/ST/STM32L4xx_HAL_Driver/Src/stm32l4xx_hal_gpio.c ****   }
 318:../../core/ST/STM32L4xx_HAL_Driver/Src/stm32l4xx_hal_gpio.c **** }
 341              		.loc 1 318 0 is_stmt 1
 342 01a2 02B0     		add	sp, sp, #8
 343              	.LCFI2:
 344              		.cfi_def_cfa_offset 16
 345              		@ sp needed
 346 01a4 F0BC     		pop	{r4, r5, r6, r7}
 347              	.LCFI3:
 348              		.cfi_restore 7
 349              		.cfi_restore 6
 350              		.cfi_restore 5
 351              		.cfi_restore 4
 352              		.cfi_def_cfa_offset 0
 353 01a6 7047     		bx	lr
 354              	.L26:
 355              		.align	2
 356              	.L25:
 357 01a8 00000140 		.word	1073807360
 358 01ac 00040140 		.word	1073808384
 359 01b0 00100240 		.word	1073876992
 360 01b4 00040048 		.word	1207960576
 361              		.cfi_endproc
 362              	.LFE123:
 364              		.section	.text.HAL_GPIO_DeInit,"ax",%progbits
 365              		.align	1
 366              		.global	HAL_GPIO_DeInit
 367              		.syntax unified
 368              		.thumb
 369              		.thumb_func
 370              		.fpu fpv4-sp-d16
 372              	HAL_GPIO_DeInit:
 373              	.LFB124:
 319:../../core/ST/STM32L4xx_HAL_Driver/Src/stm32l4xx_hal_gpio.c **** 
 320:../../core/ST/STM32L4xx_HAL_Driver/Src/stm32l4xx_hal_gpio.c **** /**
 321:../../core/ST/STM32L4xx_HAL_Driver/Src/stm32l4xx_hal_gpio.c ****   * @brief  De-initialize the GPIOx peripheral registers to their default reset values.
 322:../../core/ST/STM32L4xx_HAL_Driver/Src/stm32l4xx_hal_gpio.c ****   * @param  GPIOx: where x can be (A..H) to select the GPIO peripheral for STM32L4 family
 323:../../core/ST/STM32L4xx_HAL_Driver/Src/stm32l4xx_hal_gpio.c ****   * @param  GPIO_Pin: specifies the port bit to be written.
 324:../../core/ST/STM32L4xx_HAL_Driver/Src/stm32l4xx_hal_gpio.c ****   *         This parameter can be any combination of GPIO_Pin_x where x can be (0..15).
 325:../../core/ST/STM32L4xx_HAL_Driver/Src/stm32l4xx_hal_gpio.c ****   * @retval None
 326:../../core/ST/STM32L4xx_HAL_Driver/Src/stm32l4xx_hal_gpio.c ****   */
 327:../../core/ST/STM32L4xx_HAL_Driver/Src/stm32l4xx_hal_gpio.c **** void HAL_GPIO_DeInit(GPIO_TypeDef  *GPIOx, uint32_t GPIO_Pin)
 328:../../core/ST/STM32L4xx_HAL_Driver/Src/stm32l4xx_hal_gpio.c **** {
 374              		.loc 1 328 0
 375              		.cfi_startproc
ARM GAS  /tmp/ccZGydLR.s 			page 14


 376              		@ args = 0, pretend = 0, frame = 0
 377              		@ frame_needed = 0, uses_anonymous_args = 0
 378              	.LVL45:
 329:../../core/ST/STM32L4xx_HAL_Driver/Src/stm32l4xx_hal_gpio.c ****   uint32_t position = 0x00u;
 379              		.loc 1 329 0
 380 0000 0023     		movs	r3, #0
 330:../../core/ST/STM32L4xx_HAL_Driver/Src/stm32l4xx_hal_gpio.c ****   uint32_t iocurrent;
 331:../../core/ST/STM32L4xx_HAL_Driver/Src/stm32l4xx_hal_gpio.c ****   uint32_t tmp;
 332:../../core/ST/STM32L4xx_HAL_Driver/Src/stm32l4xx_hal_gpio.c **** 
 333:../../core/ST/STM32L4xx_HAL_Driver/Src/stm32l4xx_hal_gpio.c ****   /* Check the parameters */
 334:../../core/ST/STM32L4xx_HAL_Driver/Src/stm32l4xx_hal_gpio.c ****   assert_param(IS_GPIO_ALL_INSTANCE(GPIOx));
 335:../../core/ST/STM32L4xx_HAL_Driver/Src/stm32l4xx_hal_gpio.c ****   assert_param(IS_GPIO_PIN(GPIO_Pin));
 336:../../core/ST/STM32L4xx_HAL_Driver/Src/stm32l4xx_hal_gpio.c **** 
 337:../../core/ST/STM32L4xx_HAL_Driver/Src/stm32l4xx_hal_gpio.c ****   /* Configure the port pins */
 338:../../core/ST/STM32L4xx_HAL_Driver/Src/stm32l4xx_hal_gpio.c ****   while ((GPIO_Pin >> position) != 0x00u)
 381              		.loc 1 338 0
 382 0002 84E0     		b	.L41
 383              	.LVL46:
 384              	.L48:
 385              	.LCFI4:
 386              		.cfi_def_cfa_offset 20
 387              		.cfi_offset 4, -20
 388              		.cfi_offset 5, -16
 389              		.cfi_offset 6, -12
 390              		.cfi_offset 7, -8
 391              		.cfi_offset 14, -4
 339:../../core/ST/STM32L4xx_HAL_Driver/Src/stm32l4xx_hal_gpio.c ****   {
 340:../../core/ST/STM32L4xx_HAL_Driver/Src/stm32l4xx_hal_gpio.c ****     /* Get current io position */
 341:../../core/ST/STM32L4xx_HAL_Driver/Src/stm32l4xx_hal_gpio.c ****     iocurrent = (GPIO_Pin) & (1uL << position);
 342:../../core/ST/STM32L4xx_HAL_Driver/Src/stm32l4xx_hal_gpio.c **** 
 343:../../core/ST/STM32L4xx_HAL_Driver/Src/stm32l4xx_hal_gpio.c ****     if (iocurrent != 0x00u)
 344:../../core/ST/STM32L4xx_HAL_Driver/Src/stm32l4xx_hal_gpio.c ****     {
 345:../../core/ST/STM32L4xx_HAL_Driver/Src/stm32l4xx_hal_gpio.c ****       /*------------------------- GPIO Mode Configuration --------------------*/
 346:../../core/ST/STM32L4xx_HAL_Driver/Src/stm32l4xx_hal_gpio.c ****       /* Configure IO in Analog Mode */
 347:../../core/ST/STM32L4xx_HAL_Driver/Src/stm32l4xx_hal_gpio.c ****       GPIOx->MODER |= (GPIO_MODER_MODE0 << (position * 2u));
 348:../../core/ST/STM32L4xx_HAL_Driver/Src/stm32l4xx_hal_gpio.c **** 
 349:../../core/ST/STM32L4xx_HAL_Driver/Src/stm32l4xx_hal_gpio.c ****       /* Configure the default Alternate Function in current IO */
 350:../../core/ST/STM32L4xx_HAL_Driver/Src/stm32l4xx_hal_gpio.c ****       GPIOx->AFR[position >> 3u] &= ~(0xFu << ((position & 0x07u) * 4u)) ;
 351:../../core/ST/STM32L4xx_HAL_Driver/Src/stm32l4xx_hal_gpio.c **** 
 352:../../core/ST/STM32L4xx_HAL_Driver/Src/stm32l4xx_hal_gpio.c ****       /* Configure the default value for IO Speed */
 353:../../core/ST/STM32L4xx_HAL_Driver/Src/stm32l4xx_hal_gpio.c ****       GPIOx->OSPEEDR &= ~(GPIO_OSPEEDR_OSPEED0 << (position * 2u));
 354:../../core/ST/STM32L4xx_HAL_Driver/Src/stm32l4xx_hal_gpio.c **** 
 355:../../core/ST/STM32L4xx_HAL_Driver/Src/stm32l4xx_hal_gpio.c ****       /* Configure the default value IO Output Type */
 356:../../core/ST/STM32L4xx_HAL_Driver/Src/stm32l4xx_hal_gpio.c ****       GPIOx->OTYPER  &= ~(GPIO_OTYPER_OT0 << position) ;
 357:../../core/ST/STM32L4xx_HAL_Driver/Src/stm32l4xx_hal_gpio.c **** 
 358:../../core/ST/STM32L4xx_HAL_Driver/Src/stm32l4xx_hal_gpio.c ****       /* Deactivate the Pull-up and Pull-down resistor for the current IO */
 359:../../core/ST/STM32L4xx_HAL_Driver/Src/stm32l4xx_hal_gpio.c ****       GPIOx->PUPDR &= ~(GPIO_PUPDR_PUPD0 << (position * 2u));
 360:../../core/ST/STM32L4xx_HAL_Driver/Src/stm32l4xx_hal_gpio.c **** 
 361:../../core/ST/STM32L4xx_HAL_Driver/Src/stm32l4xx_hal_gpio.c **** #if defined(STM32L471xx) || defined(STM32L475xx) || defined(STM32L476xx) || defined(STM32L485xx) ||
 362:../../core/ST/STM32L4xx_HAL_Driver/Src/stm32l4xx_hal_gpio.c ****       /* Deactivate the Control bit of Analog mode for the current IO */
 363:../../core/ST/STM32L4xx_HAL_Driver/Src/stm32l4xx_hal_gpio.c ****       GPIOx->ASCR &= ~(GPIO_ASCR_ASC0<< position);
 364:../../core/ST/STM32L4xx_HAL_Driver/Src/stm32l4xx_hal_gpio.c **** #endif /* STM32L471xx || STM32L475xx || STM32L476xx || STM32L485xx || STM32L486xx */
 365:../../core/ST/STM32L4xx_HAL_Driver/Src/stm32l4xx_hal_gpio.c **** 
 366:../../core/ST/STM32L4xx_HAL_Driver/Src/stm32l4xx_hal_gpio.c ****       /*------------------------- EXTI Mode Configuration --------------------*/
 367:../../core/ST/STM32L4xx_HAL_Driver/Src/stm32l4xx_hal_gpio.c ****       /* Clear the External Interrupt or Event for the current IO */
 368:../../core/ST/STM32L4xx_HAL_Driver/Src/stm32l4xx_hal_gpio.c **** 
 369:../../core/ST/STM32L4xx_HAL_Driver/Src/stm32l4xx_hal_gpio.c ****       tmp = SYSCFG->EXTICR[position >> 2u];
ARM GAS  /tmp/ccZGydLR.s 			page 15


 370:../../core/ST/STM32L4xx_HAL_Driver/Src/stm32l4xx_hal_gpio.c ****       tmp &= (0x0FuL << (4u * (position & 0x03u)));
 371:../../core/ST/STM32L4xx_HAL_Driver/Src/stm32l4xx_hal_gpio.c ****       if (tmp == (GPIO_GET_INDEX(GPIOx) << (4u * (position & 0x03u))))
 392              		.loc 1 371 0
 393 0004 0725     		movs	r5, #7
 394 0006 00E0     		b	.L30
 395              	.L32:
 396 0008 0025     		movs	r5, #0
 397              	.L30:
 398              		.loc 1 371 0 is_stmt 0 discriminator 32
 399 000a 05FA02F2 		lsl	r2, r5, r2
 400 000e A242     		cmp	r2, r4
 401 0010 5FD0     		beq	.L46
 402              	.LVL47:
 403              	.L29:
 372:../../core/ST/STM32L4xx_HAL_Driver/Src/stm32l4xx_hal_gpio.c ****       {
 373:../../core/ST/STM32L4xx_HAL_Driver/Src/stm32l4xx_hal_gpio.c ****         tmp = 0x0FuL << (4u * (position & 0x03u));
 374:../../core/ST/STM32L4xx_HAL_Driver/Src/stm32l4xx_hal_gpio.c ****         SYSCFG->EXTICR[position >> 2u] &= ~tmp;
 375:../../core/ST/STM32L4xx_HAL_Driver/Src/stm32l4xx_hal_gpio.c **** 
 376:../../core/ST/STM32L4xx_HAL_Driver/Src/stm32l4xx_hal_gpio.c ****         /* Clear EXTI line configuration */
 377:../../core/ST/STM32L4xx_HAL_Driver/Src/stm32l4xx_hal_gpio.c ****         EXTI->IMR1 &= ~(iocurrent);
 378:../../core/ST/STM32L4xx_HAL_Driver/Src/stm32l4xx_hal_gpio.c ****         EXTI->EMR1 &= ~(iocurrent);
 379:../../core/ST/STM32L4xx_HAL_Driver/Src/stm32l4xx_hal_gpio.c **** 
 380:../../core/ST/STM32L4xx_HAL_Driver/Src/stm32l4xx_hal_gpio.c ****         /* Clear Rising Falling edge configuration */
 381:../../core/ST/STM32L4xx_HAL_Driver/Src/stm32l4xx_hal_gpio.c ****         EXTI->RTSR1 &= ~(iocurrent);
 382:../../core/ST/STM32L4xx_HAL_Driver/Src/stm32l4xx_hal_gpio.c ****         EXTI->FTSR1 &= ~(iocurrent);
 383:../../core/ST/STM32L4xx_HAL_Driver/Src/stm32l4xx_hal_gpio.c ****       }
 384:../../core/ST/STM32L4xx_HAL_Driver/Src/stm32l4xx_hal_gpio.c ****     }
 385:../../core/ST/STM32L4xx_HAL_Driver/Src/stm32l4xx_hal_gpio.c **** 
 386:../../core/ST/STM32L4xx_HAL_Driver/Src/stm32l4xx_hal_gpio.c ****     position++;
 404              		.loc 1 386 0 is_stmt 1
 405 0012 0133     		adds	r3, r3, #1
 406              	.LVL48:
 338:../../core/ST/STM32L4xx_HAL_Driver/Src/stm32l4xx_hal_gpio.c ****   {
 407              		.loc 1 338 0
 408 0014 31FA03F2 		lsrs	r2, r1, r3
 409 0018 77D0     		beq	.L47
 341:../../core/ST/STM32L4xx_HAL_Driver/Src/stm32l4xx_hal_gpio.c **** 
 410              		.loc 1 341 0
 411 001a 0122     		movs	r2, #1
 412 001c 9A40     		lsls	r2, r2, r3
 413              	.LVL49:
 343:../../core/ST/STM32L4xx_HAL_Driver/Src/stm32l4xx_hal_gpio.c ****     {
 414              		.loc 1 343 0
 415 001e 12EA010C 		ands	ip, r2, r1
 416              	.LVL50:
 417 0022 F6D0     		beq	.L29
 418              	.L42:
 347:../../core/ST/STM32L4xx_HAL_Driver/Src/stm32l4xx_hal_gpio.c **** 
 419              		.loc 1 347 0
 420 0024 0568     		ldr	r5, [r0]
 421 0026 5C00     		lsls	r4, r3, #1
 422 0028 0326     		movs	r6, #3
 423 002a 06FA04F4 		lsl	r4, r6, r4
 424 002e 2543     		orrs	r5, r5, r4
 425 0030 0560     		str	r5, [r0]
 350:../../core/ST/STM32L4xx_HAL_Driver/Src/stm32l4xx_hal_gpio.c **** 
 426              		.loc 1 350 0
ARM GAS  /tmp/ccZGydLR.s 			page 16


 427 0032 23FA06F7 		lsr	r7, r3, r6
 428 0036 0837     		adds	r7, r7, #8
 429 0038 50F827E0 		ldr	lr, [r0, r7, lsl #2]
 430 003c 03F00705 		and	r5, r3, #7
 431 0040 AD00     		lsls	r5, r5, #2
 432 0042 0F26     		movs	r6, #15
 433 0044 06FA05F5 		lsl	r5, r6, r5
 434 0048 2EEA0505 		bic	r5, lr, r5
 435 004c 40F82750 		str	r5, [r0, r7, lsl #2]
 353:../../core/ST/STM32L4xx_HAL_Driver/Src/stm32l4xx_hal_gpio.c **** 
 436              		.loc 1 353 0
 437 0050 8568     		ldr	r5, [r0, #8]
 438 0052 E443     		mvns	r4, r4
 439 0054 2540     		ands	r5, r5, r4
 440 0056 8560     		str	r5, [r0, #8]
 356:../../core/ST/STM32L4xx_HAL_Driver/Src/stm32l4xx_hal_gpio.c **** 
 441              		.loc 1 356 0
 442 0058 4568     		ldr	r5, [r0, #4]
 443 005a 25EA0202 		bic	r2, r5, r2
 444 005e 4260     		str	r2, [r0, #4]
 359:../../core/ST/STM32L4xx_HAL_Driver/Src/stm32l4xx_hal_gpio.c **** 
 445              		.loc 1 359 0
 446 0060 C268     		ldr	r2, [r0, #12]
 447 0062 1440     		ands	r4, r4, r2
 448 0064 C460     		str	r4, [r0, #12]
 369:../../core/ST/STM32L4xx_HAL_Driver/Src/stm32l4xx_hal_gpio.c ****       tmp &= (0x0FuL << (4u * (position & 0x03u)));
 449              		.loc 1 369 0
 450 0066 9F08     		lsrs	r7, r3, #2
 451 0068 BC1C     		adds	r4, r7, #2
 452 006a 2E4A     		ldr	r2, .L51
 453 006c 52F82440 		ldr	r4, [r2, r4, lsl #2]
 454              	.LVL51:
 370:../../core/ST/STM32L4xx_HAL_Driver/Src/stm32l4xx_hal_gpio.c ****       if (tmp == (GPIO_GET_INDEX(GPIOx) << (4u * (position & 0x03u))))
 455              		.loc 1 370 0
 456 0070 03F00302 		and	r2, r3, #3
 457 0074 9200     		lsls	r2, r2, #2
 458 0076 9640     		lsls	r6, r6, r2
 459 0078 3440     		ands	r4, r4, r6
 460              	.LVL52:
 371:../../core/ST/STM32L4xx_HAL_Driver/Src/stm32l4xx_hal_gpio.c ****       {
 461              		.loc 1 371 0
 462 007a B0F1904F 		cmp	r0, #1207959552
 463 007e C3D0     		beq	.L32
 371:../../core/ST/STM32L4xx_HAL_Driver/Src/stm32l4xx_hal_gpio.c ****       {
 464              		.loc 1 371 0 is_stmt 0 discriminator 1
 465 0080 294D     		ldr	r5, .L51+4
 466 0082 A842     		cmp	r0, r5
 467 0084 19D0     		beq	.L33
 371:../../core/ST/STM32L4xx_HAL_Driver/Src/stm32l4xx_hal_gpio.c ****       {
 468              		.loc 1 371 0 discriminator 3
 469 0086 05F58065 		add	r5, r5, #1024
 470 008a A842     		cmp	r0, r5
 471 008c 17D0     		beq	.L34
 371:../../core/ST/STM32L4xx_HAL_Driver/Src/stm32l4xx_hal_gpio.c ****       {
 472              		.loc 1 371 0 discriminator 5
 473 008e 05F58065 		add	r5, r5, #1024
 474 0092 A842     		cmp	r0, r5
ARM GAS  /tmp/ccZGydLR.s 			page 17


 475 0094 15D0     		beq	.L35
 371:../../core/ST/STM32L4xx_HAL_Driver/Src/stm32l4xx_hal_gpio.c ****       {
 476              		.loc 1 371 0 discriminator 7
 477 0096 05F58065 		add	r5, r5, #1024
 478 009a A842     		cmp	r0, r5
 479 009c 13D0     		beq	.L36
 371:../../core/ST/STM32L4xx_HAL_Driver/Src/stm32l4xx_hal_gpio.c ****       {
 480              		.loc 1 371 0 discriminator 9
 481 009e 05F58065 		add	r5, r5, #1024
 482 00a2 A842     		cmp	r0, r5
 483 00a4 11D0     		beq	.L37
 371:../../core/ST/STM32L4xx_HAL_Driver/Src/stm32l4xx_hal_gpio.c ****       {
 484              		.loc 1 371 0 discriminator 11
 485 00a6 05F58065 		add	r5, r5, #1024
 486 00aa A842     		cmp	r0, r5
 487 00ac 0FD0     		beq	.L38
 371:../../core/ST/STM32L4xx_HAL_Driver/Src/stm32l4xx_hal_gpio.c ****       {
 488              		.loc 1 371 0 discriminator 13
 489 00ae 05F58065 		add	r5, r5, #1024
 490 00b2 A842     		cmp	r0, r5
 491 00b4 A6D0     		beq	.L48
 371:../../core/ST/STM32L4xx_HAL_Driver/Src/stm32l4xx_hal_gpio.c ****       {
 492              		.loc 1 371 0
 493 00b6 0825     		movs	r5, #8
 494 00b8 A7E7     		b	.L30
 495              	.L33:
 496 00ba 0125     		movs	r5, #1
 497 00bc A5E7     		b	.L30
 498              	.L34:
 499 00be 0225     		movs	r5, #2
 500 00c0 A3E7     		b	.L30
 501              	.L35:
 502 00c2 0325     		movs	r5, #3
 503 00c4 A1E7     		b	.L30
 504              	.L36:
 505 00c6 0425     		movs	r5, #4
 506 00c8 9FE7     		b	.L30
 507              	.L37:
 508 00ca 0525     		movs	r5, #5
 509 00cc 9DE7     		b	.L30
 510              	.L38:
 511 00ce 0625     		movs	r5, #6
 512 00d0 9BE7     		b	.L30
 513              	.L46:
 514              	.LVL53:
 374:../../core/ST/STM32L4xx_HAL_Driver/Src/stm32l4xx_hal_gpio.c **** 
 515              		.loc 1 374 0 is_stmt 1
 516 00d2 144D     		ldr	r5, .L51
 517 00d4 BA1C     		adds	r2, r7, #2
 518 00d6 55F82240 		ldr	r4, [r5, r2, lsl #2]
 519 00da 24EA0606 		bic	r6, r4, r6
 520              	.LVL54:
 521 00de 45F82260 		str	r6, [r5, r2, lsl #2]
 377:../../core/ST/STM32L4xx_HAL_Driver/Src/stm32l4xx_hal_gpio.c ****         EXTI->EMR1 &= ~(iocurrent);
 522              		.loc 1 377 0
 523 00e2 124C     		ldr	r4, .L51+8
 524 00e4 2268     		ldr	r2, [r4]
ARM GAS  /tmp/ccZGydLR.s 			page 18


 525 00e6 6FEA0C0C 		mvn	ip, ip
 526              	.LVL55:
 527 00ea 02EA0C02 		and	r2, r2, ip
 528 00ee 2260     		str	r2, [r4]
 378:../../core/ST/STM32L4xx_HAL_Driver/Src/stm32l4xx_hal_gpio.c **** 
 529              		.loc 1 378 0
 530 00f0 6268     		ldr	r2, [r4, #4]
 531 00f2 0CEA0202 		and	r2, ip, r2
 532 00f6 6260     		str	r2, [r4, #4]
 381:../../core/ST/STM32L4xx_HAL_Driver/Src/stm32l4xx_hal_gpio.c ****         EXTI->FTSR1 &= ~(iocurrent);
 533              		.loc 1 381 0
 534 00f8 A268     		ldr	r2, [r4, #8]
 535 00fa 0CEA0202 		and	r2, ip, r2
 536 00fe A260     		str	r2, [r4, #8]
 382:../../core/ST/STM32L4xx_HAL_Driver/Src/stm32l4xx_hal_gpio.c ****       }
 537              		.loc 1 382 0
 538 0100 E268     		ldr	r2, [r4, #12]
 539 0102 0CEA0202 		and	r2, ip, r2
 540 0106 E260     		str	r2, [r4, #12]
 541 0108 83E7     		b	.L29
 542              	.LVL56:
 543              	.L47:
 387:../../core/ST/STM32L4xx_HAL_Driver/Src/stm32l4xx_hal_gpio.c ****   }
 388:../../core/ST/STM32L4xx_HAL_Driver/Src/stm32l4xx_hal_gpio.c **** }
 544              		.loc 1 388 0
 545 010a F0BD     		pop	{r4, r5, r6, r7, pc}
 546              	.LVL57:
 547              	.L50:
 548              	.LCFI5:
 549              		.cfi_def_cfa_offset 0
 550              		.cfi_restore 4
 551              		.cfi_restore 5
 552              		.cfi_restore 6
 553              		.cfi_restore 7
 554              		.cfi_restore 14
 386:../../core/ST/STM32L4xx_HAL_Driver/Src/stm32l4xx_hal_gpio.c ****   }
 555              		.loc 1 386 0
 556 010c 0133     		adds	r3, r3, #1
 557              	.LVL58:
 558              	.L41:
 338:../../core/ST/STM32L4xx_HAL_Driver/Src/stm32l4xx_hal_gpio.c ****   {
 559              		.loc 1 338 0
 560 010e 31FA03F2 		lsrs	r2, r1, r3
 561 0112 06D0     		beq	.L49
 341:../../core/ST/STM32L4xx_HAL_Driver/Src/stm32l4xx_hal_gpio.c **** 
 562              		.loc 1 341 0
 563 0114 0122     		movs	r2, #1
 564 0116 9A40     		lsls	r2, r2, r3
 565              	.LVL59:
 343:../../core/ST/STM32L4xx_HAL_Driver/Src/stm32l4xx_hal_gpio.c ****     {
 566              		.loc 1 343 0
 567 0118 12EA010C 		ands	ip, r2, r1
 568              	.LVL60:
 569 011c F6D0     		beq	.L50
 328:../../core/ST/STM32L4xx_HAL_Driver/Src/stm32l4xx_hal_gpio.c ****   uint32_t position = 0x00u;
 570              		.loc 1 328 0
 571 011e F0B5     		push	{r4, r5, r6, r7, lr}
ARM GAS  /tmp/ccZGydLR.s 			page 19


 572              	.LCFI6:
 573              		.cfi_def_cfa_offset 20
 574              		.cfi_offset 4, -20
 575              		.cfi_offset 5, -16
 576              		.cfi_offset 6, -12
 577              		.cfi_offset 7, -8
 578              		.cfi_offset 14, -4
 579 0120 80E7     		b	.L42
 580              	.LVL61:
 581              	.L49:
 582              	.LCFI7:
 583              		.cfi_def_cfa_offset 0
 584              		.cfi_restore 4
 585              		.cfi_restore 5
 586              		.cfi_restore 6
 587              		.cfi_restore 7
 588              		.cfi_restore 14
 589 0122 7047     		bx	lr
 590              	.L52:
 591              		.align	2
 592              	.L51:
 593 0124 00000140 		.word	1073807360
 594 0128 00040048 		.word	1207960576
 595 012c 00040140 		.word	1073808384
 596              		.cfi_endproc
 597              	.LFE124:
 599              		.section	.text.HAL_GPIO_ReadPin,"ax",%progbits
 600              		.align	1
 601              		.global	HAL_GPIO_ReadPin
 602              		.syntax unified
 603              		.thumb
 604              		.thumb_func
 605              		.fpu fpv4-sp-d16
 607              	HAL_GPIO_ReadPin:
 608              	.LFB125:
 389:../../core/ST/STM32L4xx_HAL_Driver/Src/stm32l4xx_hal_gpio.c **** 
 390:../../core/ST/STM32L4xx_HAL_Driver/Src/stm32l4xx_hal_gpio.c **** /**
 391:../../core/ST/STM32L4xx_HAL_Driver/Src/stm32l4xx_hal_gpio.c ****   * @}
 392:../../core/ST/STM32L4xx_HAL_Driver/Src/stm32l4xx_hal_gpio.c ****   */
 393:../../core/ST/STM32L4xx_HAL_Driver/Src/stm32l4xx_hal_gpio.c **** 
 394:../../core/ST/STM32L4xx_HAL_Driver/Src/stm32l4xx_hal_gpio.c **** /** @defgroup GPIO_Exported_Functions_Group2 IO operation functions
 395:../../core/ST/STM32L4xx_HAL_Driver/Src/stm32l4xx_hal_gpio.c ****  *  @brief GPIO Read, Write, Toggle, Lock and EXTI management functions.
 396:../../core/ST/STM32L4xx_HAL_Driver/Src/stm32l4xx_hal_gpio.c ****  *
 397:../../core/ST/STM32L4xx_HAL_Driver/Src/stm32l4xx_hal_gpio.c **** @verbatim
 398:../../core/ST/STM32L4xx_HAL_Driver/Src/stm32l4xx_hal_gpio.c ****  ===============================================================================
 399:../../core/ST/STM32L4xx_HAL_Driver/Src/stm32l4xx_hal_gpio.c ****                        ##### IO operation functions #####
 400:../../core/ST/STM32L4xx_HAL_Driver/Src/stm32l4xx_hal_gpio.c ****  ===============================================================================
 401:../../core/ST/STM32L4xx_HAL_Driver/Src/stm32l4xx_hal_gpio.c **** 
 402:../../core/ST/STM32L4xx_HAL_Driver/Src/stm32l4xx_hal_gpio.c **** @endverbatim
 403:../../core/ST/STM32L4xx_HAL_Driver/Src/stm32l4xx_hal_gpio.c ****   * @{
 404:../../core/ST/STM32L4xx_HAL_Driver/Src/stm32l4xx_hal_gpio.c ****   */
 405:../../core/ST/STM32L4xx_HAL_Driver/Src/stm32l4xx_hal_gpio.c **** 
 406:../../core/ST/STM32L4xx_HAL_Driver/Src/stm32l4xx_hal_gpio.c **** /**
 407:../../core/ST/STM32L4xx_HAL_Driver/Src/stm32l4xx_hal_gpio.c ****   * @brief  Read the specified input port pin.
 408:../../core/ST/STM32L4xx_HAL_Driver/Src/stm32l4xx_hal_gpio.c ****   * @param  GPIOx: where x can be (A..H) to select the GPIO peripheral for STM32L4 family
 409:../../core/ST/STM32L4xx_HAL_Driver/Src/stm32l4xx_hal_gpio.c ****   * @param  GPIO_Pin: specifies the port bit to read.
 410:../../core/ST/STM32L4xx_HAL_Driver/Src/stm32l4xx_hal_gpio.c ****   *         This parameter can be any combination of GPIO_Pin_x where x can be (0..15).
ARM GAS  /tmp/ccZGydLR.s 			page 20


 411:../../core/ST/STM32L4xx_HAL_Driver/Src/stm32l4xx_hal_gpio.c ****   * @retval The input port pin value.
 412:../../core/ST/STM32L4xx_HAL_Driver/Src/stm32l4xx_hal_gpio.c ****   */
 413:../../core/ST/STM32L4xx_HAL_Driver/Src/stm32l4xx_hal_gpio.c **** GPIO_PinState HAL_GPIO_ReadPin(GPIO_TypeDef* GPIOx, uint16_t GPIO_Pin)
 414:../../core/ST/STM32L4xx_HAL_Driver/Src/stm32l4xx_hal_gpio.c **** {
 609              		.loc 1 414 0
 610              		.cfi_startproc
 611              		@ args = 0, pretend = 0, frame = 0
 612              		@ frame_needed = 0, uses_anonymous_args = 0
 613              		@ link register save eliminated.
 614              	.LVL62:
 415:../../core/ST/STM32L4xx_HAL_Driver/Src/stm32l4xx_hal_gpio.c ****   GPIO_PinState bitstatus;
 416:../../core/ST/STM32L4xx_HAL_Driver/Src/stm32l4xx_hal_gpio.c **** 
 417:../../core/ST/STM32L4xx_HAL_Driver/Src/stm32l4xx_hal_gpio.c ****   /* Check the parameters */
 418:../../core/ST/STM32L4xx_HAL_Driver/Src/stm32l4xx_hal_gpio.c ****   assert_param(IS_GPIO_PIN(GPIO_Pin));
 419:../../core/ST/STM32L4xx_HAL_Driver/Src/stm32l4xx_hal_gpio.c **** 
 420:../../core/ST/STM32L4xx_HAL_Driver/Src/stm32l4xx_hal_gpio.c ****   if ((GPIOx->IDR & GPIO_Pin) != 0x00u)
 615              		.loc 1 420 0
 616 0000 0369     		ldr	r3, [r0, #16]
 617 0002 1942     		tst	r1, r3
 618 0004 01D1     		bne	.L56
 421:../../core/ST/STM32L4xx_HAL_Driver/Src/stm32l4xx_hal_gpio.c ****   {
 422:../../core/ST/STM32L4xx_HAL_Driver/Src/stm32l4xx_hal_gpio.c ****     bitstatus = GPIO_PIN_SET;
 423:../../core/ST/STM32L4xx_HAL_Driver/Src/stm32l4xx_hal_gpio.c ****   }
 424:../../core/ST/STM32L4xx_HAL_Driver/Src/stm32l4xx_hal_gpio.c ****   else
 425:../../core/ST/STM32L4xx_HAL_Driver/Src/stm32l4xx_hal_gpio.c ****   {
 426:../../core/ST/STM32L4xx_HAL_Driver/Src/stm32l4xx_hal_gpio.c ****     bitstatus = GPIO_PIN_RESET;
 619              		.loc 1 426 0
 620 0006 0020     		movs	r0, #0
 621              	.LVL63:
 427:../../core/ST/STM32L4xx_HAL_Driver/Src/stm32l4xx_hal_gpio.c ****   }
 428:../../core/ST/STM32L4xx_HAL_Driver/Src/stm32l4xx_hal_gpio.c ****   return bitstatus;
 429:../../core/ST/STM32L4xx_HAL_Driver/Src/stm32l4xx_hal_gpio.c **** }
 622              		.loc 1 429 0
 623 0008 7047     		bx	lr
 624              	.LVL64:
 625              	.L56:
 422:../../core/ST/STM32L4xx_HAL_Driver/Src/stm32l4xx_hal_gpio.c ****   }
 626              		.loc 1 422 0
 627 000a 0120     		movs	r0, #1
 628              	.LVL65:
 629 000c 7047     		bx	lr
 630              		.cfi_endproc
 631              	.LFE125:
 633              		.section	.text.HAL_GPIO_WritePin,"ax",%progbits
 634              		.align	1
 635              		.global	HAL_GPIO_WritePin
 636              		.syntax unified
 637              		.thumb
 638              		.thumb_func
 639              		.fpu fpv4-sp-d16
 641              	HAL_GPIO_WritePin:
 642              	.LFB126:
 430:../../core/ST/STM32L4xx_HAL_Driver/Src/stm32l4xx_hal_gpio.c **** 
 431:../../core/ST/STM32L4xx_HAL_Driver/Src/stm32l4xx_hal_gpio.c **** /**
 432:../../core/ST/STM32L4xx_HAL_Driver/Src/stm32l4xx_hal_gpio.c ****   * @brief  Set or clear the selected data port bit.
 433:../../core/ST/STM32L4xx_HAL_Driver/Src/stm32l4xx_hal_gpio.c ****   *
 434:../../core/ST/STM32L4xx_HAL_Driver/Src/stm32l4xx_hal_gpio.c ****   * @note   This function uses GPIOx_BSRR and GPIOx_BRR registers to allow atomic read/modify
ARM GAS  /tmp/ccZGydLR.s 			page 21


 435:../../core/ST/STM32L4xx_HAL_Driver/Src/stm32l4xx_hal_gpio.c ****   *         accesses. In this way, there is no risk of an IRQ occurring between
 436:../../core/ST/STM32L4xx_HAL_Driver/Src/stm32l4xx_hal_gpio.c ****   *         the read and the modify access.
 437:../../core/ST/STM32L4xx_HAL_Driver/Src/stm32l4xx_hal_gpio.c ****   *
 438:../../core/ST/STM32L4xx_HAL_Driver/Src/stm32l4xx_hal_gpio.c ****   * @param  GPIOx where x can be (A..H) to select the GPIO peripheral for STM32L4 family
 439:../../core/ST/STM32L4xx_HAL_Driver/Src/stm32l4xx_hal_gpio.c ****   * @param  GPIO_Pin specifies the port bit to be written.
 440:../../core/ST/STM32L4xx_HAL_Driver/Src/stm32l4xx_hal_gpio.c ****   *         This parameter can be any combination of GPIO_Pin_x where x can be (0..15).
 441:../../core/ST/STM32L4xx_HAL_Driver/Src/stm32l4xx_hal_gpio.c ****   * @param  PinState specifies the value to be written to the selected bit.
 442:../../core/ST/STM32L4xx_HAL_Driver/Src/stm32l4xx_hal_gpio.c ****   *         This parameter can be one of the GPIO_PinState enum values:
 443:../../core/ST/STM32L4xx_HAL_Driver/Src/stm32l4xx_hal_gpio.c ****   *            @arg GPIO_PIN_RESET: to clear the port pin
 444:../../core/ST/STM32L4xx_HAL_Driver/Src/stm32l4xx_hal_gpio.c ****   *            @arg GPIO_PIN_SET: to set the port pin
 445:../../core/ST/STM32L4xx_HAL_Driver/Src/stm32l4xx_hal_gpio.c ****   * @retval None
 446:../../core/ST/STM32L4xx_HAL_Driver/Src/stm32l4xx_hal_gpio.c ****   */
 447:../../core/ST/STM32L4xx_HAL_Driver/Src/stm32l4xx_hal_gpio.c **** void HAL_GPIO_WritePin(GPIO_TypeDef* GPIOx, uint16_t GPIO_Pin, GPIO_PinState PinState)
 448:../../core/ST/STM32L4xx_HAL_Driver/Src/stm32l4xx_hal_gpio.c **** {
 643              		.loc 1 448 0
 644              		.cfi_startproc
 645              		@ args = 0, pretend = 0, frame = 0
 646              		@ frame_needed = 0, uses_anonymous_args = 0
 647              		@ link register save eliminated.
 648              	.LVL66:
 449:../../core/ST/STM32L4xx_HAL_Driver/Src/stm32l4xx_hal_gpio.c ****   /* Check the parameters */
 450:../../core/ST/STM32L4xx_HAL_Driver/Src/stm32l4xx_hal_gpio.c ****   assert_param(IS_GPIO_PIN(GPIO_Pin));
 451:../../core/ST/STM32L4xx_HAL_Driver/Src/stm32l4xx_hal_gpio.c ****   assert_param(IS_GPIO_PIN_ACTION(PinState));
 452:../../core/ST/STM32L4xx_HAL_Driver/Src/stm32l4xx_hal_gpio.c **** 
 453:../../core/ST/STM32L4xx_HAL_Driver/Src/stm32l4xx_hal_gpio.c ****   if(PinState != GPIO_PIN_RESET)
 649              		.loc 1 453 0
 650 0000 0AB9     		cbnz	r2, .L60
 454:../../core/ST/STM32L4xx_HAL_Driver/Src/stm32l4xx_hal_gpio.c ****   {
 455:../../core/ST/STM32L4xx_HAL_Driver/Src/stm32l4xx_hal_gpio.c ****     GPIOx->BSRR = (uint32_t)GPIO_Pin;
 456:../../core/ST/STM32L4xx_HAL_Driver/Src/stm32l4xx_hal_gpio.c ****   }
 457:../../core/ST/STM32L4xx_HAL_Driver/Src/stm32l4xx_hal_gpio.c ****   else
 458:../../core/ST/STM32L4xx_HAL_Driver/Src/stm32l4xx_hal_gpio.c ****   {
 459:../../core/ST/STM32L4xx_HAL_Driver/Src/stm32l4xx_hal_gpio.c ****     GPIOx->BRR = (uint32_t)GPIO_Pin;
 651              		.loc 1 459 0
 652 0002 8162     		str	r1, [r0, #40]
 460:../../core/ST/STM32L4xx_HAL_Driver/Src/stm32l4xx_hal_gpio.c ****   }
 461:../../core/ST/STM32L4xx_HAL_Driver/Src/stm32l4xx_hal_gpio.c **** }
 653              		.loc 1 461 0
 654 0004 7047     		bx	lr
 655              	.L60:
 455:../../core/ST/STM32L4xx_HAL_Driver/Src/stm32l4xx_hal_gpio.c ****   }
 656              		.loc 1 455 0
 657 0006 8161     		str	r1, [r0, #24]
 658 0008 7047     		bx	lr
 659              		.cfi_endproc
 660              	.LFE126:
 662              		.section	.text.HAL_GPIO_TogglePin,"ax",%progbits
 663              		.align	1
 664              		.global	HAL_GPIO_TogglePin
 665              		.syntax unified
 666              		.thumb
 667              		.thumb_func
 668              		.fpu fpv4-sp-d16
 670              	HAL_GPIO_TogglePin:
 671              	.LFB127:
 462:../../core/ST/STM32L4xx_HAL_Driver/Src/stm32l4xx_hal_gpio.c **** 
 463:../../core/ST/STM32L4xx_HAL_Driver/Src/stm32l4xx_hal_gpio.c **** /**
ARM GAS  /tmp/ccZGydLR.s 			page 22


 464:../../core/ST/STM32L4xx_HAL_Driver/Src/stm32l4xx_hal_gpio.c ****   * @brief  Toggle the specified GPIO pin.
 465:../../core/ST/STM32L4xx_HAL_Driver/Src/stm32l4xx_hal_gpio.c ****   * @param  GPIOx where x can be (A..H) to select the GPIO peripheral for STM32L4 family
 466:../../core/ST/STM32L4xx_HAL_Driver/Src/stm32l4xx_hal_gpio.c ****   * @param  GPIO_Pin specifies the pin to be toggled.
 467:../../core/ST/STM32L4xx_HAL_Driver/Src/stm32l4xx_hal_gpio.c ****   * @retval None
 468:../../core/ST/STM32L4xx_HAL_Driver/Src/stm32l4xx_hal_gpio.c ****   */
 469:../../core/ST/STM32L4xx_HAL_Driver/Src/stm32l4xx_hal_gpio.c **** void HAL_GPIO_TogglePin(GPIO_TypeDef* GPIOx, uint16_t GPIO_Pin)
 470:../../core/ST/STM32L4xx_HAL_Driver/Src/stm32l4xx_hal_gpio.c **** {
 672              		.loc 1 470 0
 673              		.cfi_startproc
 674              		@ args = 0, pretend = 0, frame = 0
 675              		@ frame_needed = 0, uses_anonymous_args = 0
 676              		@ link register save eliminated.
 677              	.LVL67:
 471:../../core/ST/STM32L4xx_HAL_Driver/Src/stm32l4xx_hal_gpio.c ****   /* Check the parameters */
 472:../../core/ST/STM32L4xx_HAL_Driver/Src/stm32l4xx_hal_gpio.c ****   assert_param(IS_GPIO_PIN(GPIO_Pin));
 473:../../core/ST/STM32L4xx_HAL_Driver/Src/stm32l4xx_hal_gpio.c **** 
 474:../../core/ST/STM32L4xx_HAL_Driver/Src/stm32l4xx_hal_gpio.c ****   GPIOx->ODR ^= GPIO_Pin;
 678              		.loc 1 474 0
 679 0000 4369     		ldr	r3, [r0, #20]
 680 0002 5940     		eors	r1, r1, r3
 681              	.LVL68:
 682 0004 4161     		str	r1, [r0, #20]
 475:../../core/ST/STM32L4xx_HAL_Driver/Src/stm32l4xx_hal_gpio.c **** }
 683              		.loc 1 475 0
 684 0006 7047     		bx	lr
 685              		.cfi_endproc
 686              	.LFE127:
 688              		.section	.text.HAL_GPIO_LockPin,"ax",%progbits
 689              		.align	1
 690              		.global	HAL_GPIO_LockPin
 691              		.syntax unified
 692              		.thumb
 693              		.thumb_func
 694              		.fpu fpv4-sp-d16
 696              	HAL_GPIO_LockPin:
 697              	.LFB128:
 476:../../core/ST/STM32L4xx_HAL_Driver/Src/stm32l4xx_hal_gpio.c **** 
 477:../../core/ST/STM32L4xx_HAL_Driver/Src/stm32l4xx_hal_gpio.c **** /**
 478:../../core/ST/STM32L4xx_HAL_Driver/Src/stm32l4xx_hal_gpio.c **** * @brief  Lock GPIO Pins configuration registers.
 479:../../core/ST/STM32L4xx_HAL_Driver/Src/stm32l4xx_hal_gpio.c ****   * @note   The locked registers are GPIOx_MODER, GPIOx_OTYPER, GPIOx_OSPEEDR,
 480:../../core/ST/STM32L4xx_HAL_Driver/Src/stm32l4xx_hal_gpio.c ****   *         GPIOx_PUPDR, GPIOx_AFRL and GPIOx_AFRH.
 481:../../core/ST/STM32L4xx_HAL_Driver/Src/stm32l4xx_hal_gpio.c ****   * @note   The configuration of the locked GPIO pins can no longer be modified
 482:../../core/ST/STM32L4xx_HAL_Driver/Src/stm32l4xx_hal_gpio.c ****   *         until the next reset.
 483:../../core/ST/STM32L4xx_HAL_Driver/Src/stm32l4xx_hal_gpio.c ****   * @param  GPIOx where x can be (A..H) to select the GPIO peripheral for STM32L4 family
 484:../../core/ST/STM32L4xx_HAL_Driver/Src/stm32l4xx_hal_gpio.c ****   * @param  GPIO_Pin specifies the port bits to be locked.
 485:../../core/ST/STM32L4xx_HAL_Driver/Src/stm32l4xx_hal_gpio.c ****   *         This parameter can be any combination of GPIO_Pin_x where x can be (0..15).
 486:../../core/ST/STM32L4xx_HAL_Driver/Src/stm32l4xx_hal_gpio.c ****   * @retval None
 487:../../core/ST/STM32L4xx_HAL_Driver/Src/stm32l4xx_hal_gpio.c ****   */
 488:../../core/ST/STM32L4xx_HAL_Driver/Src/stm32l4xx_hal_gpio.c **** HAL_StatusTypeDef HAL_GPIO_LockPin(GPIO_TypeDef* GPIOx, uint16_t GPIO_Pin)
 489:../../core/ST/STM32L4xx_HAL_Driver/Src/stm32l4xx_hal_gpio.c **** {
 698              		.loc 1 489 0
 699              		.cfi_startproc
 700              		@ args = 0, pretend = 0, frame = 8
 701              		@ frame_needed = 0, uses_anonymous_args = 0
 702              		@ link register save eliminated.
 703              	.LVL69:
 704 0000 82B0     		sub	sp, sp, #8
ARM GAS  /tmp/ccZGydLR.s 			page 23


 705              	.LCFI8:
 706              		.cfi_def_cfa_offset 8
 490:../../core/ST/STM32L4xx_HAL_Driver/Src/stm32l4xx_hal_gpio.c ****   __IO uint32_t tmp = GPIO_LCKR_LCKK;
 707              		.loc 1 490 0
 708 0002 4FF48033 		mov	r3, #65536
 709 0006 0193     		str	r3, [sp, #4]
 491:../../core/ST/STM32L4xx_HAL_Driver/Src/stm32l4xx_hal_gpio.c **** 
 492:../../core/ST/STM32L4xx_HAL_Driver/Src/stm32l4xx_hal_gpio.c ****   /* Check the parameters */
 493:../../core/ST/STM32L4xx_HAL_Driver/Src/stm32l4xx_hal_gpio.c ****   assert_param(IS_GPIO_LOCK_INSTANCE(GPIOx));
 494:../../core/ST/STM32L4xx_HAL_Driver/Src/stm32l4xx_hal_gpio.c ****   assert_param(IS_GPIO_PIN(GPIO_Pin));
 495:../../core/ST/STM32L4xx_HAL_Driver/Src/stm32l4xx_hal_gpio.c **** 
 496:../../core/ST/STM32L4xx_HAL_Driver/Src/stm32l4xx_hal_gpio.c ****   /* Apply lock key write sequence */
 497:../../core/ST/STM32L4xx_HAL_Driver/Src/stm32l4xx_hal_gpio.c ****   tmp |= GPIO_Pin;
 710              		.loc 1 497 0
 711 0008 019B     		ldr	r3, [sp, #4]
 712 000a 0B43     		orrs	r3, r3, r1
 713 000c 0193     		str	r3, [sp, #4]
 498:../../core/ST/STM32L4xx_HAL_Driver/Src/stm32l4xx_hal_gpio.c ****   /* Set LCKx bit(s): LCKK='1' + LCK[15-0] */
 499:../../core/ST/STM32L4xx_HAL_Driver/Src/stm32l4xx_hal_gpio.c ****   GPIOx->LCKR = tmp;
 714              		.loc 1 499 0
 715 000e 019B     		ldr	r3, [sp, #4]
 716 0010 C361     		str	r3, [r0, #28]
 500:../../core/ST/STM32L4xx_HAL_Driver/Src/stm32l4xx_hal_gpio.c ****   /* Reset LCKx bit(s): LCKK='0' + LCK[15-0] */
 501:../../core/ST/STM32L4xx_HAL_Driver/Src/stm32l4xx_hal_gpio.c ****   GPIOx->LCKR = GPIO_Pin;
 717              		.loc 1 501 0
 718 0012 C161     		str	r1, [r0, #28]
 502:../../core/ST/STM32L4xx_HAL_Driver/Src/stm32l4xx_hal_gpio.c ****   /* Set LCKx bit(s): LCKK='1' + LCK[15-0] */
 503:../../core/ST/STM32L4xx_HAL_Driver/Src/stm32l4xx_hal_gpio.c ****   GPIOx->LCKR = tmp;
 719              		.loc 1 503 0
 720 0014 019B     		ldr	r3, [sp, #4]
 721 0016 C361     		str	r3, [r0, #28]
 504:../../core/ST/STM32L4xx_HAL_Driver/Src/stm32l4xx_hal_gpio.c ****   /* Read LCKK bit*/
 505:../../core/ST/STM32L4xx_HAL_Driver/Src/stm32l4xx_hal_gpio.c ****   tmp = GPIOx->LCKR;
 722              		.loc 1 505 0
 723 0018 C369     		ldr	r3, [r0, #28]
 724 001a 0193     		str	r3, [sp, #4]
 506:../../core/ST/STM32L4xx_HAL_Driver/Src/stm32l4xx_hal_gpio.c **** 
 507:../../core/ST/STM32L4xx_HAL_Driver/Src/stm32l4xx_hal_gpio.c ****   if ((GPIOx->LCKR & GPIO_LCKR_LCKK) != 0x00u)
 725              		.loc 1 507 0
 726 001c C369     		ldr	r3, [r0, #28]
 727 001e 13F4803F 		tst	r3, #65536
 728 0022 02D1     		bne	.L66
 508:../../core/ST/STM32L4xx_HAL_Driver/Src/stm32l4xx_hal_gpio.c ****   {
 509:../../core/ST/STM32L4xx_HAL_Driver/Src/stm32l4xx_hal_gpio.c ****     return HAL_OK;
 510:../../core/ST/STM32L4xx_HAL_Driver/Src/stm32l4xx_hal_gpio.c ****   }
 511:../../core/ST/STM32L4xx_HAL_Driver/Src/stm32l4xx_hal_gpio.c ****   else
 512:../../core/ST/STM32L4xx_HAL_Driver/Src/stm32l4xx_hal_gpio.c ****   {
 513:../../core/ST/STM32L4xx_HAL_Driver/Src/stm32l4xx_hal_gpio.c ****     return HAL_ERROR;
 729              		.loc 1 513 0
 730 0024 0120     		movs	r0, #1
 731              	.LVL70:
 732              	.L63:
 514:../../core/ST/STM32L4xx_HAL_Driver/Src/stm32l4xx_hal_gpio.c ****   }
 515:../../core/ST/STM32L4xx_HAL_Driver/Src/stm32l4xx_hal_gpio.c **** }
 733              		.loc 1 515 0
 734 0026 02B0     		add	sp, sp, #8
 735              	.LCFI9:
ARM GAS  /tmp/ccZGydLR.s 			page 24


 736              		.cfi_remember_state
 737              		.cfi_def_cfa_offset 0
 738              		@ sp needed
 739 0028 7047     		bx	lr
 740              	.LVL71:
 741              	.L66:
 742              	.LCFI10:
 743              		.cfi_restore_state
 509:../../core/ST/STM32L4xx_HAL_Driver/Src/stm32l4xx_hal_gpio.c ****   }
 744              		.loc 1 509 0
 745 002a 0020     		movs	r0, #0
 746              	.LVL72:
 747 002c FBE7     		b	.L63
 748              		.cfi_endproc
 749              	.LFE128:
 751              		.section	.text.HAL_GPIO_EXTI_Callback,"ax",%progbits
 752              		.align	1
 753              		.weak	HAL_GPIO_EXTI_Callback
 754              		.syntax unified
 755              		.thumb
 756              		.thumb_func
 757              		.fpu fpv4-sp-d16
 759              	HAL_GPIO_EXTI_Callback:
 760              	.LFB130:
 516:../../core/ST/STM32L4xx_HAL_Driver/Src/stm32l4xx_hal_gpio.c **** 
 517:../../core/ST/STM32L4xx_HAL_Driver/Src/stm32l4xx_hal_gpio.c **** /**
 518:../../core/ST/STM32L4xx_HAL_Driver/Src/stm32l4xx_hal_gpio.c ****   * @brief  Handle EXTI interrupt request.
 519:../../core/ST/STM32L4xx_HAL_Driver/Src/stm32l4xx_hal_gpio.c ****   * @param  GPIO_Pin Specifies the port pin connected to corresponding EXTI line.
 520:../../core/ST/STM32L4xx_HAL_Driver/Src/stm32l4xx_hal_gpio.c ****   * @retval None
 521:../../core/ST/STM32L4xx_HAL_Driver/Src/stm32l4xx_hal_gpio.c ****   */
 522:../../core/ST/STM32L4xx_HAL_Driver/Src/stm32l4xx_hal_gpio.c **** void HAL_GPIO_EXTI_IRQHandler(uint16_t GPIO_Pin)
 523:../../core/ST/STM32L4xx_HAL_Driver/Src/stm32l4xx_hal_gpio.c **** {
 524:../../core/ST/STM32L4xx_HAL_Driver/Src/stm32l4xx_hal_gpio.c ****   /* EXTI line interrupt detected */
 525:../../core/ST/STM32L4xx_HAL_Driver/Src/stm32l4xx_hal_gpio.c ****   if(__HAL_GPIO_EXTI_GET_IT(GPIO_Pin) != 0x00u)
 526:../../core/ST/STM32L4xx_HAL_Driver/Src/stm32l4xx_hal_gpio.c ****   {
 527:../../core/ST/STM32L4xx_HAL_Driver/Src/stm32l4xx_hal_gpio.c ****     __HAL_GPIO_EXTI_CLEAR_IT(GPIO_Pin);
 528:../../core/ST/STM32L4xx_HAL_Driver/Src/stm32l4xx_hal_gpio.c ****     HAL_GPIO_EXTI_Callback(GPIO_Pin);
 529:../../core/ST/STM32L4xx_HAL_Driver/Src/stm32l4xx_hal_gpio.c ****   }
 530:../../core/ST/STM32L4xx_HAL_Driver/Src/stm32l4xx_hal_gpio.c **** }
 531:../../core/ST/STM32L4xx_HAL_Driver/Src/stm32l4xx_hal_gpio.c **** 
 532:../../core/ST/STM32L4xx_HAL_Driver/Src/stm32l4xx_hal_gpio.c **** /**
 533:../../core/ST/STM32L4xx_HAL_Driver/Src/stm32l4xx_hal_gpio.c ****   * @brief  EXTI line detection callback.
 534:../../core/ST/STM32L4xx_HAL_Driver/Src/stm32l4xx_hal_gpio.c ****   * @param  GPIO_Pin: Specifies the port pin connected to corresponding EXTI line.
 535:../../core/ST/STM32L4xx_HAL_Driver/Src/stm32l4xx_hal_gpio.c ****   * @retval None
 536:../../core/ST/STM32L4xx_HAL_Driver/Src/stm32l4xx_hal_gpio.c ****   */
 537:../../core/ST/STM32L4xx_HAL_Driver/Src/stm32l4xx_hal_gpio.c **** __weak void HAL_GPIO_EXTI_Callback(uint16_t GPIO_Pin)
 538:../../core/ST/STM32L4xx_HAL_Driver/Src/stm32l4xx_hal_gpio.c **** {
 761              		.loc 1 538 0
 762              		.cfi_startproc
 763              		@ args = 0, pretend = 0, frame = 0
 764              		@ frame_needed = 0, uses_anonymous_args = 0
 765              		@ link register save eliminated.
 766              	.LVL73:
 539:../../core/ST/STM32L4xx_HAL_Driver/Src/stm32l4xx_hal_gpio.c ****   /* Prevent unused argument(s) compilation warning */
 540:../../core/ST/STM32L4xx_HAL_Driver/Src/stm32l4xx_hal_gpio.c ****   UNUSED(GPIO_Pin);
 541:../../core/ST/STM32L4xx_HAL_Driver/Src/stm32l4xx_hal_gpio.c **** 
 542:../../core/ST/STM32L4xx_HAL_Driver/Src/stm32l4xx_hal_gpio.c ****   /* NOTE: This function should not be modified, when the callback is needed,
ARM GAS  /tmp/ccZGydLR.s 			page 25


 543:../../core/ST/STM32L4xx_HAL_Driver/Src/stm32l4xx_hal_gpio.c ****            the HAL_GPIO_EXTI_Callback could be implemented in the user file
 544:../../core/ST/STM32L4xx_HAL_Driver/Src/stm32l4xx_hal_gpio.c ****    */
 545:../../core/ST/STM32L4xx_HAL_Driver/Src/stm32l4xx_hal_gpio.c **** }
 767              		.loc 1 545 0
 768 0000 7047     		bx	lr
 769              		.cfi_endproc
 770              	.LFE130:
 772              		.section	.text.HAL_GPIO_EXTI_IRQHandler,"ax",%progbits
 773              		.align	1
 774              		.global	HAL_GPIO_EXTI_IRQHandler
 775              		.syntax unified
 776              		.thumb
 777              		.thumb_func
 778              		.fpu fpv4-sp-d16
 780              	HAL_GPIO_EXTI_IRQHandler:
 781              	.LFB129:
 523:../../core/ST/STM32L4xx_HAL_Driver/Src/stm32l4xx_hal_gpio.c ****   /* EXTI line interrupt detected */
 782              		.loc 1 523 0
 783              		.cfi_startproc
 784              		@ args = 0, pretend = 0, frame = 0
 785              		@ frame_needed = 0, uses_anonymous_args = 0
 786              	.LVL74:
 787 0000 08B5     		push	{r3, lr}
 788              	.LCFI11:
 789              		.cfi_def_cfa_offset 8
 790              		.cfi_offset 3, -8
 791              		.cfi_offset 14, -4
 525:../../core/ST/STM32L4xx_HAL_Driver/Src/stm32l4xx_hal_gpio.c ****   {
 792              		.loc 1 525 0
 793 0002 054B     		ldr	r3, .L72
 794 0004 5B69     		ldr	r3, [r3, #20]
 795 0006 0342     		tst	r3, r0
 796 0008 00D1     		bne	.L71
 797              	.LVL75:
 798              	.L68:
 530:../../core/ST/STM32L4xx_HAL_Driver/Src/stm32l4xx_hal_gpio.c **** 
 799              		.loc 1 530 0
 800 000a 08BD     		pop	{r3, pc}
 801              	.LVL76:
 802              	.L71:
 527:../../core/ST/STM32L4xx_HAL_Driver/Src/stm32l4xx_hal_gpio.c ****     HAL_GPIO_EXTI_Callback(GPIO_Pin);
 803              		.loc 1 527 0
 804 000c 024B     		ldr	r3, .L72
 805 000e 5861     		str	r0, [r3, #20]
 528:../../core/ST/STM32L4xx_HAL_Driver/Src/stm32l4xx_hal_gpio.c ****   }
 806              		.loc 1 528 0
 807 0010 FFF7FEFF 		bl	HAL_GPIO_EXTI_Callback
 808              	.LVL77:
 530:../../core/ST/STM32L4xx_HAL_Driver/Src/stm32l4xx_hal_gpio.c **** 
 809              		.loc 1 530 0
 810 0014 F9E7     		b	.L68
 811              	.L73:
 812 0016 00BF     		.align	2
 813              	.L72:
 814 0018 00040140 		.word	1073808384
 815              		.cfi_endproc
 816              	.LFE129:
ARM GAS  /tmp/ccZGydLR.s 			page 26


 818              		.text
 819              	.Letext0:
 820              		.file 2 "/home/mats/gcc-arm-none-eabi-7-2018-q2-update/arm-none-eabi/include/machine/_default_type
 821              		.file 3 "/home/mats/gcc-arm-none-eabi-7-2018-q2-update/arm-none-eabi/include/sys/_stdint.h"
 822              		.file 4 "../../core/ST/CMSIS/Include/core_cm4.h"
 823              		.file 5 "../../core/ST/CMSIS/Device/ST/STM32L4xx/Include/system_stm32l4xx.h"
 824              		.file 6 "../../core/ST/CMSIS/Device/ST/STM32L4xx/Include/stm32l496xx.h"
 825              		.file 7 "../../core/ST/STM32L4xx_HAL_Driver/Inc/stm32l4xx_hal_def.h"
 826              		.file 8 "../../core/ST/STM32L4xx_HAL_Driver/Inc/stm32l4xx_hal_gpio.h"
 827              		.file 9 "../../core/ST/STM32L4xx_HAL_Driver/Inc/stm32l4xx_hal.h"
ARM GAS  /tmp/ccZGydLR.s 			page 27

