ARM GAS  /tmp/ccOTmiAJ.s 			page 1


   1              		.cpu cortex-m4
   2              		.eabi_attribute 27, 1
   3              		.eabi_attribute 28, 1
   4              		.eabi_attribute 20, 1
   5              		.eabi_attribute 21, 1
   6              		.eabi_attribute 23, 3
   7              		.eabi_attribute 24, 1
   8              		.eabi_attribute 25, 1
   9              		.eabi_attribute 26, 1
  10              		.eabi_attribute 30, 1
  11              		.eabi_attribute 34, 1
  12              		.eabi_attribute 18, 4
  13              		.file	"uart.c"
  14              		.text
  15              	.Ltext0:
  16              		.cfi_sections	.debug_frame
  17              		.section	.text.USB_UART_Init,"ax",%progbits
  18              		.align	1
  19              		.global	USB_UART_Init
  20              		.syntax unified
  21              		.thumb
  22              		.thumb_func
  23              		.fpu fpv4-sp-d16
  25              	USB_UART_Init:
  26              	.LFB123:
  27              		.file 1 "../../core/platform/octa/src/uart.c"
   1:../../core/platform/octa/src/uart.c **** #include "uart.h"
   2:../../core/platform/octa/src/uart.c **** 
   3:../../core/platform/octa/src/uart.c **** /**
   4:../../core/platform/octa/src/uart.c ****   * @brief LPUART1 Initialization Function
   5:../../core/platform/octa/src/uart.c ****   * @param None
   6:../../core/platform/octa/src/uart.c ****   * @retval None
   7:../../core/platform/octa/src/uart.c ****   */
   8:../../core/platform/octa/src/uart.c **** void USB_UART_Init(uint32_t aBaudRate)
   9:../../core/platform/octa/src/uart.c **** {
  28              		.loc 1 9 0
  29              		.cfi_startproc
  30              		@ args = 0, pretend = 0, frame = 0
  31              		@ frame_needed = 0, uses_anonymous_args = 0
  32              	.LVL0:
  33 0000 08B5     		push	{r3, lr}
  34              	.LCFI0:
  35              		.cfi_def_cfa_offset 8
  36              		.cfi_offset 3, -8
  37              		.cfi_offset 14, -4
  10:../../core/platform/octa/src/uart.c **** 
  11:../../core/platform/octa/src/uart.c ****   /* USER CODE BEGIN LPUART1_Init 0 */
  12:../../core/platform/octa/src/uart.c **** 
  13:../../core/platform/octa/src/uart.c ****   /* USER CODE END LPUART1_Init 0 */
  14:../../core/platform/octa/src/uart.c **** 
  15:../../core/platform/octa/src/uart.c ****   /* USER CODE BEGIN LPUART1_Init 1 */
  16:../../core/platform/octa/src/uart.c **** 
  17:../../core/platform/octa/src/uart.c ****   /* USER CODE END LPUART1_Init 1 */
  18:../../core/platform/octa/src/uart.c ****   USB_UART.Instance = LPUART1;
  38              		.loc 1 18 0
  39 0002 0A4B     		ldr	r3, .L5
  40 0004 0A4A     		ldr	r2, .L5+4
ARM GAS  /tmp/ccOTmiAJ.s 			page 2


  41 0006 1A60     		str	r2, [r3]
  19:../../core/platform/octa/src/uart.c ****   USB_UART.Init.BaudRate = aBaudRate;
  42              		.loc 1 19 0
  43 0008 5860     		str	r0, [r3, #4]
  20:../../core/platform/octa/src/uart.c ****   USB_UART.Init.WordLength = UART_WORDLENGTH_8B;
  44              		.loc 1 20 0
  45 000a 0022     		movs	r2, #0
  46 000c 9A60     		str	r2, [r3, #8]
  21:../../core/platform/octa/src/uart.c ****   USB_UART.Init.StopBits = UART_STOPBITS_1;
  47              		.loc 1 21 0
  48 000e DA60     		str	r2, [r3, #12]
  22:../../core/platform/octa/src/uart.c ****   USB_UART.Init.Parity = UART_PARITY_NONE;
  49              		.loc 1 22 0
  50 0010 1A61     		str	r2, [r3, #16]
  23:../../core/platform/octa/src/uart.c ****   USB_UART.Init.Mode = UART_MODE_TX_RX;
  51              		.loc 1 23 0
  52 0012 0C21     		movs	r1, #12
  53 0014 5961     		str	r1, [r3, #20]
  24:../../core/platform/octa/src/uart.c ****   USB_UART.Init.HwFlowCtl = UART_HWCONTROL_NONE;
  54              		.loc 1 24 0
  55 0016 9A61     		str	r2, [r3, #24]
  25:../../core/platform/octa/src/uart.c ****   USB_UART.Init.OneBitSampling = UART_ONE_BIT_SAMPLE_DISABLE;
  56              		.loc 1 25 0
  57 0018 1A62     		str	r2, [r3, #32]
  26:../../core/platform/octa/src/uart.c ****   USB_UART.AdvancedInit.AdvFeatureInit = UART_ADVFEATURE_NO_INIT;
  58              		.loc 1 26 0
  59 001a 5A62     		str	r2, [r3, #36]
  27:../../core/platform/octa/src/uart.c ****   if (HAL_UART_Init(&USB_UART) != HAL_OK)
  60              		.loc 1 27 0
  61 001c 1846     		mov	r0, r3
  62              	.LVL1:
  63 001e FFF7FEFF 		bl	HAL_UART_Init
  64              	.LVL2:
  65 0022 00B9     		cbnz	r0, .L4
  66              	.L1:
  28:../../core/platform/octa/src/uart.c ****   {
  29:../../core/platform/octa/src/uart.c ****     Error_Handler();
  30:../../core/platform/octa/src/uart.c ****   }
  31:../../core/platform/octa/src/uart.c ****   /* USER CODE BEGIN LPUART1_Init 2 */
  32:../../core/platform/octa/src/uart.c **** 
  33:../../core/platform/octa/src/uart.c ****   /* USER CODE END LPUART1_Init 2 */
  34:../../core/platform/octa/src/uart.c **** 
  35:../../core/platform/octa/src/uart.c **** }
  67              		.loc 1 35 0
  68 0024 08BD     		pop	{r3, pc}
  69              	.L4:
  70              	.LBB2:
  29:../../core/platform/octa/src/uart.c ****   }
  71              		.loc 1 29 0
  72 0026 FFF7FEFF 		bl	Error_Handler
  73              	.LVL3:
  74              	.LBE2:
  75              		.loc 1 35 0
  76 002a FBE7     		b	.L1
  77              	.L6:
  78              		.align	2
  79              	.L5:
ARM GAS  /tmp/ccOTmiAJ.s 			page 3


  80 002c 00000000 		.word	USB_UART
  81 0030 00800040 		.word	1073774592
  82              		.cfi_endproc
  83              	.LFE123:
  85              		.section	.text.P1_UART_Init,"ax",%progbits
  86              		.align	1
  87              		.global	P1_UART_Init
  88              		.syntax unified
  89              		.thumb
  90              		.thumb_func
  91              		.fpu fpv4-sp-d16
  93              	P1_UART_Init:
  94              	.LFB124:
  36:../../core/platform/octa/src/uart.c **** 
  37:../../core/platform/octa/src/uart.c **** /**
  38:../../core/platform/octa/src/uart.c ****   * @brief UART5 Initialization Function
  39:../../core/platform/octa/src/uart.c ****   * @param None
  40:../../core/platform/octa/src/uart.c ****   * @retval None
  41:../../core/platform/octa/src/uart.c ****   */
  42:../../core/platform/octa/src/uart.c **** void P1_UART_Init(uint32_t aBaudRate)
  43:../../core/platform/octa/src/uart.c **** {
  95              		.loc 1 43 0
  96              		.cfi_startproc
  97              		@ args = 0, pretend = 0, frame = 0
  98              		@ frame_needed = 0, uses_anonymous_args = 0
  99              	.LVL4:
 100 0000 08B5     		push	{r3, lr}
 101              	.LCFI1:
 102              		.cfi_def_cfa_offset 8
 103              		.cfi_offset 3, -8
 104              		.cfi_offset 14, -4
  44:../../core/platform/octa/src/uart.c **** 
  45:../../core/platform/octa/src/uart.c ****   /* USER CODE BEGIN UART5_Init 0 */
  46:../../core/platform/octa/src/uart.c **** 
  47:../../core/platform/octa/src/uart.c ****   /* USER CODE END UART5_Init 0 */
  48:../../core/platform/octa/src/uart.c **** 
  49:../../core/platform/octa/src/uart.c ****   /* USER CODE BEGIN UART5_Init 1 */
  50:../../core/platform/octa/src/uart.c **** 
  51:../../core/platform/octa/src/uart.c ****   /* USER CODE END UART5_Init 1 */
  52:../../core/platform/octa/src/uart.c ****   P1_UART.Instance = UART5;
 105              		.loc 1 52 0
 106 0002 0F4B     		ldr	r3, .L11
 107 0004 0F4A     		ldr	r2, .L11+4
 108 0006 1A60     		str	r2, [r3]
  53:../../core/platform/octa/src/uart.c ****   P1_UART.Init.BaudRate = aBaudRate;
 109              		.loc 1 53 0
 110 0008 5860     		str	r0, [r3, #4]
  54:../../core/platform/octa/src/uart.c ****   P1_UART.Init.WordLength = UART_WORDLENGTH_8B;
 111              		.loc 1 54 0
 112 000a 0022     		movs	r2, #0
 113 000c 9A60     		str	r2, [r3, #8]
  55:../../core/platform/octa/src/uart.c ****   P1_UART.Init.StopBits = UART_STOPBITS_1;
 114              		.loc 1 55 0
 115 000e DA60     		str	r2, [r3, #12]
  56:../../core/platform/octa/src/uart.c ****   P1_UART.Init.Parity = UART_PARITY_NONE;
 116              		.loc 1 56 0
 117 0010 1A61     		str	r2, [r3, #16]
ARM GAS  /tmp/ccOTmiAJ.s 			page 4


  57:../../core/platform/octa/src/uart.c ****   P1_UART.Init.Mode = UART_MODE_TX_RX;
 118              		.loc 1 57 0
 119 0012 0C21     		movs	r1, #12
 120 0014 5961     		str	r1, [r3, #20]
  58:../../core/platform/octa/src/uart.c ****   P1_UART.Init.HwFlowCtl = UART_HWCONTROL_NONE;
 121              		.loc 1 58 0
 122 0016 9A61     		str	r2, [r3, #24]
  59:../../core/platform/octa/src/uart.c ****   P1_UART.Init.OverSampling = UART_OVERSAMPLING_16;
 123              		.loc 1 59 0
 124 0018 DA61     		str	r2, [r3, #28]
  60:../../core/platform/octa/src/uart.c ****   P1_UART.Init.OneBitSampling = UART_ONE_BIT_SAMPLE_DISABLE;
 125              		.loc 1 60 0
 126 001a 1A62     		str	r2, [r3, #32]
  61:../../core/platform/octa/src/uart.c ****   P1_UART.AdvancedInit.AdvFeatureInit = UART_ADVFEATURE_NO_INIT;
 127              		.loc 1 61 0
 128 001c 5A62     		str	r2, [r3, #36]
  62:../../core/platform/octa/src/uart.c ****   if (HAL_UART_Init(&P1_UART) != HAL_OK)
 129              		.loc 1 62 0
 130 001e 1846     		mov	r0, r3
 131              	.LVL5:
 132 0020 FFF7FEFF 		bl	HAL_UART_Init
 133              	.LVL6:
 134 0024 40B9     		cbnz	r0, .L10
 135              	.L8:
  63:../../core/platform/octa/src/uart.c ****   {
  64:../../core/platform/octa/src/uart.c ****     Error_Handler();
  65:../../core/platform/octa/src/uart.c ****   }
  66:../../core/platform/octa/src/uart.c ****   /* USER CODE BEGIN UART5_Init 2 */
  67:../../core/platform/octa/src/uart.c ****   HAL_NVIC_SetPriority(UART5_IRQn, 7, 0);
 136              		.loc 1 67 0
 137 0026 0022     		movs	r2, #0
 138 0028 0721     		movs	r1, #7
 139 002a 3520     		movs	r0, #53
 140 002c FFF7FEFF 		bl	HAL_NVIC_SetPriority
 141              	.LVL7:
  68:../../core/platform/octa/src/uart.c ****   HAL_NVIC_EnableIRQ(UART5_IRQn);
 142              		.loc 1 68 0
 143 0030 3520     		movs	r0, #53
 144 0032 FFF7FEFF 		bl	HAL_NVIC_EnableIRQ
 145              	.LVL8:
  69:../../core/platform/octa/src/uart.c **** 
  70:../../core/platform/octa/src/uart.c ****   /* USER CODE END UART5_Init 2 */
  71:../../core/platform/octa/src/uart.c **** 
  72:../../core/platform/octa/src/uart.c **** }
 146              		.loc 1 72 0
 147 0036 08BD     		pop	{r3, pc}
 148              	.L10:
 149              	.LBB3:
  64:../../core/platform/octa/src/uart.c ****   }
 150              		.loc 1 64 0
 151 0038 FFF7FEFF 		bl	Error_Handler
 152              	.LVL9:
 153 003c F3E7     		b	.L8
 154              	.L12:
 155 003e 00BF     		.align	2
 156              	.L11:
 157 0040 00000000 		.word	P1_UART
ARM GAS  /tmp/ccOTmiAJ.s 			page 5


 158 0044 00500040 		.word	1073762304
 159              	.LBE3:
 160              		.cfi_endproc
 161              	.LFE124:
 163              		.section	.text.P2_UART_Init,"ax",%progbits
 164              		.align	1
 165              		.global	P2_UART_Init
 166              		.syntax unified
 167              		.thumb
 168              		.thumb_func
 169              		.fpu fpv4-sp-d16
 171              	P2_UART_Init:
 172              	.LFB125:
  73:../../core/platform/octa/src/uart.c **** 
  74:../../core/platform/octa/src/uart.c **** /**
  75:../../core/platform/octa/src/uart.c ****   * @brief USART2 Initialization Function
  76:../../core/platform/octa/src/uart.c ****   * @param None
  77:../../core/platform/octa/src/uart.c ****   * @retval None
  78:../../core/platform/octa/src/uart.c ****   */
  79:../../core/platform/octa/src/uart.c **** void P2_UART_Init(uint32_t aBaudRate)
  80:../../core/platform/octa/src/uart.c **** {
 173              		.loc 1 80 0
 174              		.cfi_startproc
 175              		@ args = 0, pretend = 0, frame = 0
 176              		@ frame_needed = 0, uses_anonymous_args = 0
 177              	.LVL10:
 178 0000 08B5     		push	{r3, lr}
 179              	.LCFI2:
 180              		.cfi_def_cfa_offset 8
 181              		.cfi_offset 3, -8
 182              		.cfi_offset 14, -4
  81:../../core/platform/octa/src/uart.c **** 
  82:../../core/platform/octa/src/uart.c ****   /* USER CODE BEGIN USART2_Init 0 */
  83:../../core/platform/octa/src/uart.c **** 
  84:../../core/platform/octa/src/uart.c ****   /* USER CODE END USART2_Init 0 */
  85:../../core/platform/octa/src/uart.c **** 
  86:../../core/platform/octa/src/uart.c ****   /* USER CODE BEGIN USART2_Init 1 */
  87:../../core/platform/octa/src/uart.c ****   /* USER CODE END USART2_Init 1 */
  88:../../core/platform/octa/src/uart.c ****   P2_UART.Instance = USART2;
 183              		.loc 1 88 0
 184 0002 0F4B     		ldr	r3, .L17
 185 0004 0F4A     		ldr	r2, .L17+4
 186 0006 1A60     		str	r2, [r3]
  89:../../core/platform/octa/src/uart.c ****   P2_UART.Init.BaudRate = aBaudRate;
 187              		.loc 1 89 0
 188 0008 5860     		str	r0, [r3, #4]
  90:../../core/platform/octa/src/uart.c ****   P2_UART.Init.WordLength = UART_WORDLENGTH_8B;
 189              		.loc 1 90 0
 190 000a 0022     		movs	r2, #0
 191 000c 9A60     		str	r2, [r3, #8]
  91:../../core/platform/octa/src/uart.c ****   P2_UART.Init.StopBits = UART_STOPBITS_1;
 192              		.loc 1 91 0
 193 000e DA60     		str	r2, [r3, #12]
  92:../../core/platform/octa/src/uart.c ****   P2_UART.Init.Parity = UART_PARITY_NONE;
 194              		.loc 1 92 0
 195 0010 1A61     		str	r2, [r3, #16]
  93:../../core/platform/octa/src/uart.c ****   P2_UART.Init.Mode = UART_MODE_TX_RX;
ARM GAS  /tmp/ccOTmiAJ.s 			page 6


 196              		.loc 1 93 0
 197 0012 0C21     		movs	r1, #12
 198 0014 5961     		str	r1, [r3, #20]
  94:../../core/platform/octa/src/uart.c ****   P2_UART.Init.HwFlowCtl = UART_HWCONTROL_NONE;
 199              		.loc 1 94 0
 200 0016 9A61     		str	r2, [r3, #24]
  95:../../core/platform/octa/src/uart.c ****   P2_UART.Init.OverSampling = UART_OVERSAMPLING_16;
 201              		.loc 1 95 0
 202 0018 DA61     		str	r2, [r3, #28]
  96:../../core/platform/octa/src/uart.c ****   P2_UART.Init.OneBitSampling = UART_ONE_BIT_SAMPLE_DISABLE;
 203              		.loc 1 96 0
 204 001a 1A62     		str	r2, [r3, #32]
  97:../../core/platform/octa/src/uart.c ****   P2_UART.AdvancedInit.AdvFeatureInit = UART_ADVFEATURE_NO_INIT;
 205              		.loc 1 97 0
 206 001c 5A62     		str	r2, [r3, #36]
  98:../../core/platform/octa/src/uart.c ****   if (HAL_UART_Init(&P2_UART) != HAL_OK)
 207              		.loc 1 98 0
 208 001e 1846     		mov	r0, r3
 209              	.LVL11:
 210 0020 FFF7FEFF 		bl	HAL_UART_Init
 211              	.LVL12:
 212 0024 40B9     		cbnz	r0, .L16
 213              	.L14:
  99:../../core/platform/octa/src/uart.c ****   {
 100:../../core/platform/octa/src/uart.c ****     Error_Handler();
 101:../../core/platform/octa/src/uart.c ****   }
 102:../../core/platform/octa/src/uart.c **** 
 103:../../core/platform/octa/src/uart.c ****   /* USER CODE BEGIN USART2_Init 2 */
 104:../../core/platform/octa/src/uart.c ****   HAL_NVIC_SetPriority(USART2_IRQn, 7, 0);
 214              		.loc 1 104 0
 215 0026 0022     		movs	r2, #0
 216 0028 0721     		movs	r1, #7
 217 002a 2620     		movs	r0, #38
 218 002c FFF7FEFF 		bl	HAL_NVIC_SetPriority
 219              	.LVL13:
 105:../../core/platform/octa/src/uart.c ****   HAL_NVIC_EnableIRQ(USART2_IRQn);
 220              		.loc 1 105 0
 221 0030 2620     		movs	r0, #38
 222 0032 FFF7FEFF 		bl	HAL_NVIC_EnableIRQ
 223              	.LVL14:
 106:../../core/platform/octa/src/uart.c **** 
 107:../../core/platform/octa/src/uart.c ****   /* USER CODE END USART2_Init 2 */
 108:../../core/platform/octa/src/uart.c **** 
 109:../../core/platform/octa/src/uart.c **** }
 224              		.loc 1 109 0
 225 0036 08BD     		pop	{r3, pc}
 226              	.L16:
 227              	.LBB4:
 100:../../core/platform/octa/src/uart.c ****   }
 228              		.loc 1 100 0
 229 0038 FFF7FEFF 		bl	Error_Handler
 230              	.LVL15:
 231 003c F3E7     		b	.L14
 232              	.L18:
 233 003e 00BF     		.align	2
 234              	.L17:
 235 0040 00000000 		.word	P2_UART
ARM GAS  /tmp/ccOTmiAJ.s 			page 7


 236 0044 00440040 		.word	1073759232
 237              	.LBE4:
 238              		.cfi_endproc
 239              	.LFE125:
 241              		.section	.text.P3_UART_Init,"ax",%progbits
 242              		.align	1
 243              		.global	P3_UART_Init
 244              		.syntax unified
 245              		.thumb
 246              		.thumb_func
 247              		.fpu fpv4-sp-d16
 249              	P3_UART_Init:
 250              	.LFB126:
 110:../../core/platform/octa/src/uart.c **** 
 111:../../core/platform/octa/src/uart.c **** /**
 112:../../core/platform/octa/src/uart.c ****   * @brief USART3 Initialization Function
 113:../../core/platform/octa/src/uart.c ****   * @param None
 114:../../core/platform/octa/src/uart.c ****   * @retval None
 115:../../core/platform/octa/src/uart.c ****   */
 116:../../core/platform/octa/src/uart.c **** void P3_UART_Init(uint32_t aBaudRate)
 117:../../core/platform/octa/src/uart.c **** {
 251              		.loc 1 117 0
 252              		.cfi_startproc
 253              		@ args = 0, pretend = 0, frame = 0
 254              		@ frame_needed = 0, uses_anonymous_args = 0
 255              	.LVL16:
 256 0000 08B5     		push	{r3, lr}
 257              	.LCFI3:
 258              		.cfi_def_cfa_offset 8
 259              		.cfi_offset 3, -8
 260              		.cfi_offset 14, -4
 118:../../core/platform/octa/src/uart.c **** 
 119:../../core/platform/octa/src/uart.c ****   /* USER CODE BEGIN USART3_Init 0 */
 120:../../core/platform/octa/src/uart.c **** 
 121:../../core/platform/octa/src/uart.c ****   /* USER CODE END USART3_Init 0 */
 122:../../core/platform/octa/src/uart.c **** 
 123:../../core/platform/octa/src/uart.c ****   /* USER CODE BEGIN USART3_Init 1 */
 124:../../core/platform/octa/src/uart.c **** 
 125:../../core/platform/octa/src/uart.c ****   /* USER CODE END USART3_Init 1 */
 126:../../core/platform/octa/src/uart.c ****   P3_UART.Instance = USART3;
 261              		.loc 1 126 0
 262 0002 0F4B     		ldr	r3, .L23
 263 0004 0F4A     		ldr	r2, .L23+4
 264 0006 1A60     		str	r2, [r3]
 127:../../core/platform/octa/src/uart.c ****   P3_UART.Init.BaudRate = aBaudRate;
 265              		.loc 1 127 0
 266 0008 5860     		str	r0, [r3, #4]
 128:../../core/platform/octa/src/uart.c ****   P3_UART.Init.WordLength = UART_WORDLENGTH_8B;
 267              		.loc 1 128 0
 268 000a 0022     		movs	r2, #0
 269 000c 9A60     		str	r2, [r3, #8]
 129:../../core/platform/octa/src/uart.c ****   P3_UART.Init.StopBits = UART_STOPBITS_1;
 270              		.loc 1 129 0
 271 000e DA60     		str	r2, [r3, #12]
 130:../../core/platform/octa/src/uart.c ****   P3_UART.Init.Parity = UART_PARITY_NONE;
 272              		.loc 1 130 0
 273 0010 1A61     		str	r2, [r3, #16]
ARM GAS  /tmp/ccOTmiAJ.s 			page 8


 131:../../core/platform/octa/src/uart.c ****   P3_UART.Init.Mode = UART_MODE_TX_RX;
 274              		.loc 1 131 0
 275 0012 0C21     		movs	r1, #12
 276 0014 5961     		str	r1, [r3, #20]
 132:../../core/platform/octa/src/uart.c ****   P3_UART.Init.HwFlowCtl = UART_HWCONTROL_NONE;
 277              		.loc 1 132 0
 278 0016 9A61     		str	r2, [r3, #24]
 133:../../core/platform/octa/src/uart.c ****   P3_UART.Init.OverSampling = UART_OVERSAMPLING_16;
 279              		.loc 1 133 0
 280 0018 DA61     		str	r2, [r3, #28]
 134:../../core/platform/octa/src/uart.c ****   P3_UART.Init.OneBitSampling = UART_ONE_BIT_SAMPLE_DISABLE;
 281              		.loc 1 134 0
 282 001a 1A62     		str	r2, [r3, #32]
 135:../../core/platform/octa/src/uart.c ****   P3_UART.AdvancedInit.AdvFeatureInit = UART_ADVFEATURE_NO_INIT;
 283              		.loc 1 135 0
 284 001c 5A62     		str	r2, [r3, #36]
 136:../../core/platform/octa/src/uart.c ****   if (HAL_UART_Init(&P3_UART) != HAL_OK)
 285              		.loc 1 136 0
 286 001e 1846     		mov	r0, r3
 287              	.LVL17:
 288 0020 FFF7FEFF 		bl	HAL_UART_Init
 289              	.LVL18:
 290 0024 40B9     		cbnz	r0, .L22
 291              	.L20:
 137:../../core/platform/octa/src/uart.c ****   {
 138:../../core/platform/octa/src/uart.c ****     Error_Handler();
 139:../../core/platform/octa/src/uart.c ****   }
 140:../../core/platform/octa/src/uart.c ****   /* USER CODE BEGIN USART3_Init 2 */
 141:../../core/platform/octa/src/uart.c ****   HAL_NVIC_SetPriority(USART3_IRQn, 7, 0);
 292              		.loc 1 141 0
 293 0026 0022     		movs	r2, #0
 294 0028 0721     		movs	r1, #7
 295 002a 2720     		movs	r0, #39
 296 002c FFF7FEFF 		bl	HAL_NVIC_SetPriority
 297              	.LVL19:
 142:../../core/platform/octa/src/uart.c ****   HAL_NVIC_EnableIRQ(USART3_IRQn);
 298              		.loc 1 142 0
 299 0030 2720     		movs	r0, #39
 300 0032 FFF7FEFF 		bl	HAL_NVIC_EnableIRQ
 301              	.LVL20:
 143:../../core/platform/octa/src/uart.c ****   /* USER CODE END USART3_Init 2 */
 144:../../core/platform/octa/src/uart.c **** 
 145:../../core/platform/octa/src/uart.c **** }
 302              		.loc 1 145 0
 303 0036 08BD     		pop	{r3, pc}
 304              	.L22:
 305              	.LBB5:
 138:../../core/platform/octa/src/uart.c ****   }
 306              		.loc 1 138 0
 307 0038 FFF7FEFF 		bl	Error_Handler
 308              	.LVL21:
 309 003c F3E7     		b	.L20
 310              	.L24:
 311 003e 00BF     		.align	2
 312              	.L23:
 313 0040 00000000 		.word	P3_UART
 314 0044 00480040 		.word	1073760256
ARM GAS  /tmp/ccOTmiAJ.s 			page 9


 315              	.LBE5:
 316              		.cfi_endproc
 317              	.LFE126:
 319              		.section	.text.BLE_UART_Init,"ax",%progbits
 320              		.align	1
 321              		.global	BLE_UART_Init
 322              		.syntax unified
 323              		.thumb
 324              		.thumb_func
 325              		.fpu fpv4-sp-d16
 327              	BLE_UART_Init:
 328              	.LFB127:
 146:../../core/platform/octa/src/uart.c **** 
 147:../../core/platform/octa/src/uart.c **** 
 148:../../core/platform/octa/src/uart.c **** /**
 149:../../core/platform/octa/src/uart.c ****   * @brief USART2 Initialization Function
 150:../../core/platform/octa/src/uart.c ****   * @param None
 151:../../core/platform/octa/src/uart.c ****   * @retval None
 152:../../core/platform/octa/src/uart.c ****   */
 153:../../core/platform/octa/src/uart.c **** void BLE_UART_Init(uint32_t aBaudRate)
 154:../../core/platform/octa/src/uart.c **** {
 329              		.loc 1 154 0
 330              		.cfi_startproc
 331              		@ args = 0, pretend = 0, frame = 0
 332              		@ frame_needed = 0, uses_anonymous_args = 0
 333              	.LVL22:
 334 0000 08B5     		push	{r3, lr}
 335              	.LCFI4:
 336              		.cfi_def_cfa_offset 8
 337              		.cfi_offset 3, -8
 338              		.cfi_offset 14, -4
 155:../../core/platform/octa/src/uart.c **** 
 156:../../core/platform/octa/src/uart.c ****   /* USER CODE BEGIN USART2_Init 0 */
 157:../../core/platform/octa/src/uart.c **** 
 158:../../core/platform/octa/src/uart.c ****   /* USER CODE END USART2_Init 0 */
 159:../../core/platform/octa/src/uart.c **** 
 160:../../core/platform/octa/src/uart.c ****   /* USER CODE BEGIN USART2_Init 1 */
 161:../../core/platform/octa/src/uart.c **** 
 162:../../core/platform/octa/src/uart.c ****   /* USER CODE END USART2_Init 1 */
 163:../../core/platform/octa/src/uart.c ****   BLE_UART.Instance = USART2;
 339              		.loc 1 163 0
 340 0002 0F4B     		ldr	r3, .L29
 341 0004 0F4A     		ldr	r2, .L29+4
 342 0006 1A60     		str	r2, [r3]
 164:../../core/platform/octa/src/uart.c ****   BLE_UART.Init.BaudRate = aBaudRate;
 343              		.loc 1 164 0
 344 0008 5860     		str	r0, [r3, #4]
 165:../../core/platform/octa/src/uart.c ****   BLE_UART.Init.WordLength = UART_WORDLENGTH_8B;
 345              		.loc 1 165 0
 346 000a 0022     		movs	r2, #0
 347 000c 9A60     		str	r2, [r3, #8]
 166:../../core/platform/octa/src/uart.c ****   BLE_UART.Init.StopBits = UART_STOPBITS_1;
 348              		.loc 1 166 0
 349 000e DA60     		str	r2, [r3, #12]
 167:../../core/platform/octa/src/uart.c ****   BLE_UART.Init.Parity = UART_PARITY_NONE;
 350              		.loc 1 167 0
 351 0010 1A61     		str	r2, [r3, #16]
ARM GAS  /tmp/ccOTmiAJ.s 			page 10


 168:../../core/platform/octa/src/uart.c ****   BLE_UART.Init.Mode = UART_MODE_TX_RX;
 352              		.loc 1 168 0
 353 0012 0C21     		movs	r1, #12
 354 0014 5961     		str	r1, [r3, #20]
 169:../../core/platform/octa/src/uart.c ****   BLE_UART.Init.HwFlowCtl = UART_HWCONTROL_NONE;
 355              		.loc 1 169 0
 356 0016 9A61     		str	r2, [r3, #24]
 170:../../core/platform/octa/src/uart.c ****   BLE_UART.Init.OverSampling = UART_OVERSAMPLING_16;
 357              		.loc 1 170 0
 358 0018 DA61     		str	r2, [r3, #28]
 171:../../core/platform/octa/src/uart.c ****   BLE_UART.Init.OneBitSampling = UART_ONE_BIT_SAMPLE_DISABLE;
 359              		.loc 1 171 0
 360 001a 1A62     		str	r2, [r3, #32]
 172:../../core/platform/octa/src/uart.c ****   BLE_UART.AdvancedInit.AdvFeatureInit = UART_ADVFEATURE_NO_INIT;
 361              		.loc 1 172 0
 362 001c 5A62     		str	r2, [r3, #36]
 173:../../core/platform/octa/src/uart.c ****   if (HAL_UART_Init(&BLE_UART) != HAL_OK)
 363              		.loc 1 173 0
 364 001e 1846     		mov	r0, r3
 365              	.LVL23:
 366 0020 FFF7FEFF 		bl	HAL_UART_Init
 367              	.LVL24:
 368 0024 40B9     		cbnz	r0, .L28
 369              	.L26:
 174:../../core/platform/octa/src/uart.c ****   {
 175:../../core/platform/octa/src/uart.c ****     Error_Handler();
 176:../../core/platform/octa/src/uart.c ****   }
 177:../../core/platform/octa/src/uart.c **** 
 178:../../core/platform/octa/src/uart.c ****   /* USER CODE BEGIN USART2_Init 2 */
 179:../../core/platform/octa/src/uart.c ****   HAL_NVIC_SetPriority(USART2_IRQn, 7, 0);
 370              		.loc 1 179 0
 371 0026 0022     		movs	r2, #0
 372 0028 0721     		movs	r1, #7
 373 002a 2620     		movs	r0, #38
 374 002c FFF7FEFF 		bl	HAL_NVIC_SetPriority
 375              	.LVL25:
 180:../../core/platform/octa/src/uart.c ****   HAL_NVIC_EnableIRQ(USART2_IRQn);
 376              		.loc 1 180 0
 377 0030 2620     		movs	r0, #38
 378 0032 FFF7FEFF 		bl	HAL_NVIC_EnableIRQ
 379              	.LVL26:
 181:../../core/platform/octa/src/uart.c ****   /* USER CODE END USART2_Init 2 */
 182:../../core/platform/octa/src/uart.c **** 
 183:../../core/platform/octa/src/uart.c **** }
 380              		.loc 1 183 0
 381 0036 08BD     		pop	{r3, pc}
 382              	.L28:
 383              	.LBB6:
 175:../../core/platform/octa/src/uart.c ****   }
 384              		.loc 1 175 0
 385 0038 FFF7FEFF 		bl	Error_Handler
 386              	.LVL27:
 387 003c F3E7     		b	.L26
 388              	.L30:
 389 003e 00BF     		.align	2
 390              	.L29:
 391 0040 00000000 		.word	BLE_UART
ARM GAS  /tmp/ccOTmiAJ.s 			page 11


 392 0044 00440040 		.word	1073759232
 393              	.LBE6:
 394              		.cfi_endproc
 395              	.LFE127:
 397              		.section	.text.HAL_UART_RxCpltCallback,"ax",%progbits
 398              		.align	1
 399              		.weak	HAL_UART_RxCpltCallback
 400              		.syntax unified
 401              		.thumb
 402              		.thumb_func
 403              		.fpu fpv4-sp-d16
 405              	HAL_UART_RxCpltCallback:
 406              	.LFB128:
 184:../../core/platform/octa/src/uart.c **** 
 185:../../core/platform/octa/src/uart.c **** // WEAK UART RX CALLBACK
 186:../../core/platform/octa/src/uart.c **** __weak void HAL_UART_RxCpltCallback(UART_HandleTypeDef *huart)
 187:../../core/platform/octa/src/uart.c **** {
 407              		.loc 1 187 0
 408              		.cfi_startproc
 409              		@ args = 0, pretend = 0, frame = 0
 410              		@ frame_needed = 0, uses_anonymous_args = 0
 411              	.LVL28:
 412 0000 08B5     		push	{r3, lr}
 413              	.LCFI5:
 414              		.cfi_def_cfa_offset 8
 415              		.cfi_offset 3, -8
 416              		.cfi_offset 14, -4
 188:../../core/platform/octa/src/uart.c ****   printf("uart interrupt callback not implemented in application\r\n");
 417              		.loc 1 188 0
 418 0002 0248     		ldr	r0, .L33
 419              	.LVL29:
 420 0004 FFF7FEFF 		bl	puts
 421              	.LVL30:
 189:../../core/platform/octa/src/uart.c **** }
 422              		.loc 1 189 0
 423 0008 08BD     		pop	{r3, pc}
 424              	.L34:
 425 000a 00BF     		.align	2
 426              	.L33:
 427 000c 00000000 		.word	.LC0
 428              		.cfi_endproc
 429              	.LFE128:
 431              		.section	.text.__io_putchar,"ax",%progbits
 432              		.align	1
 433              		.global	__io_putchar
 434              		.syntax unified
 435              		.thumb
 436              		.thumb_func
 437              		.fpu fpv4-sp-d16
 439              	__io_putchar:
 440              	.LFB130:
 190:../../core/platform/octa/src/uart.c **** 
 191:../../core/platform/octa/src/uart.c **** /*******************************************
 192:../../core/platform/octa/src/uart.c **** PRINTF TO SERIAL REDIRECT FUNCTION PROTOTYPE 
 193:../../core/platform/octa/src/uart.c **** ********************************************/
 194:../../core/platform/octa/src/uart.c **** #ifdef __GNUC__
 195:../../core/platform/octa/src/uart.c **** 
ARM GAS  /tmp/ccOTmiAJ.s 			page 12


 196:../../core/platform/octa/src/uart.c **** #define PUTCHAR_PROTOTYPE int __io_putchar(int ch)
 197:../../core/platform/octa/src/uart.c **** #else
 198:../../core/platform/octa/src/uart.c **** #define PUTCHAR_PROTOTYPE int fputc(int ch, FILE *f)
 199:../../core/platform/octa/src/uart.c **** 
 200:../../core/platform/octa/src/uart.c **** #endif
 201:../../core/platform/octa/src/uart.c **** 
 202:../../core/platform/octa/src/uart.c **** /* required for printf to work */
 203:../../core/platform/octa/src/uart.c **** int _write(int file, char *ptr, int len)
 204:../../core/platform/octa/src/uart.c **** {
 205:../../core/platform/octa/src/uart.c ****   int DataIdx;
 206:../../core/platform/octa/src/uart.c **** 
 207:../../core/platform/octa/src/uart.c ****   for (DataIdx = 0; DataIdx < len; DataIdx++)
 208:../../core/platform/octa/src/uart.c ****   {
 209:../../core/platform/octa/src/uart.c ****     __io_putchar(*ptr++);
 210:../../core/platform/octa/src/uart.c ****   }
 211:../../core/platform/octa/src/uart.c ****   return len;
 212:../../core/platform/octa/src/uart.c **** }
 213:../../core/platform/octa/src/uart.c **** 
 214:../../core/platform/octa/src/uart.c **** /**
 215:../../core/platform/octa/src/uart.c ****   * @brief  Retargets the C library printf function to the USART.
 216:../../core/platform/octa/src/uart.c ****   * @param  None
 217:../../core/platform/octa/src/uart.c ****   * @retval None
 218:../../core/platform/octa/src/uart.c ****   */
 219:../../core/platform/octa/src/uart.c **** PUTCHAR_PROTOTYPE
 220:../../core/platform/octa/src/uart.c **** {
 441              		.loc 1 220 0
 442              		.cfi_startproc
 443              		@ args = 0, pretend = 0, frame = 8
 444              		@ frame_needed = 0, uses_anonymous_args = 0
 445              	.LVL31:
 446 0000 00B5     		push	{lr}
 447              	.LCFI6:
 448              		.cfi_def_cfa_offset 4
 449              		.cfi_offset 14, -4
 450 0002 83B0     		sub	sp, sp, #12
 451              	.LCFI7:
 452              		.cfi_def_cfa_offset 16
 453 0004 02A9     		add	r1, sp, #8
 454 0006 41F8040D 		str	r0, [r1, #-4]!
 221:../../core/platform/octa/src/uart.c ****   HAL_UART_Transmit(&USB_UART, (uint8_t *)&ch, 1, 0xFFFF);
 455              		.loc 1 221 0
 456 000a 4FF6FF73 		movw	r3, #65535
 457 000e 0122     		movs	r2, #1
 458 0010 0348     		ldr	r0, .L37
 459              	.LVL32:
 460 0012 FFF7FEFF 		bl	HAL_UART_Transmit
 461              	.LVL33:
 222:../../core/platform/octa/src/uart.c ****   return ch;
 223:../../core/platform/octa/src/uart.c **** }...
 462              		.loc 1 223 0
 463 0016 0198     		ldr	r0, [sp, #4]
 464 0018 03B0     		add	sp, sp, #12
 465              	.LCFI8:
 466              		.cfi_def_cfa_offset 4
 467              		@ sp needed
 468 001a 5DF804FB 		ldr	pc, [sp], #4
 469              	.L38:
ARM GAS  /tmp/ccOTmiAJ.s 			page 13


 470 001e 00BF     		.align	2
 471              	.L37:
 472 0020 00000000 		.word	USB_UART
 473              		.cfi_endproc
 474              	.LFE130:
 476              		.section	.text._write,"ax",%progbits
 477              		.align	1
 478              		.global	_write
 479              		.syntax unified
 480              		.thumb
 481              		.thumb_func
 482              		.fpu fpv4-sp-d16
 484              	_write:
 485              	.LFB129:
 204:../../core/platform/octa/src/uart.c **** {
 486              		.loc 1 204 0
 487              		.cfi_startproc
 488              		@ args = 0, pretend = 0, frame = 0
 489              		@ frame_needed = 0, uses_anonymous_args = 0
 490              	.LVL34:
 491 0000 70B5     		push	{r4, r5, r6, lr}
 492              	.LCFI9:
 493              		.cfi_def_cfa_offset 16
 494              		.cfi_offset 4, -16
 495              		.cfi_offset 5, -12
 496              		.cfi_offset 6, -8
 497              		.cfi_offset 14, -4
 498 0002 1646     		mov	r6, r2
 499              	.LVL35:
 207:../../core/platform/octa/src/uart.c ****   for (DataIdx = 0; DataIdx < len; DataIdx++)
 500              		.loc 1 207 0
 501 0004 0024     		movs	r4, #0
 502 0006 05E0     		b	.L40
 503              	.LVL36:
 504              	.L41:
 505              	.LBB7:
 209:../../core/platform/octa/src/uart.c ****     __io_putchar(*ptr++);
 506              		.loc 1 209 0 discriminator 3
 507 0008 4D1C     		adds	r5, r1, #1
 508              	.LVL37:
 509 000a 0878     		ldrb	r0, [r1]	@ zero_extendqisi2
 510 000c FFF7FEFF 		bl	__io_putchar
 511              	.LVL38:
 512              	.LBE7:
 207:../../core/platform/octa/src/uart.c ****   for (DataIdx = 0; DataIdx < len; DataIdx++)
 513              		.loc 1 207 0 discriminator 3
 514 0010 0134     		adds	r4, r4, #1
 515              	.LVL39:
 516              	.LBB8:
 209:../../core/platform/octa/src/uart.c ****     __io_putchar(*ptr++);
 517              		.loc 1 209 0 discriminator 3
 518 0012 2946     		mov	r1, r5
 519              	.LVL40:
 520              	.L40:
 521              	.LBE8:
 207:../../core/platform/octa/src/uart.c ****   for (DataIdx = 0; DataIdx < len; DataIdx++)
 522              		.loc 1 207 0 discriminator 1
ARM GAS  /tmp/ccOTmiAJ.s 			page 14


 523 0014 B442     		cmp	r4, r6
 524 0016 F7DB     		blt	.L41
 212:../../core/platform/octa/src/uart.c **** }
 525              		.loc 1 212 0
 526 0018 3046     		mov	r0, r6
 527 001a 70BD     		pop	{r4, r5, r6, pc}
 528              		.cfi_endproc
 529              	.LFE129:
 531              		.comm	P3_UART,120,4
 532              		.comm	P2_UART,120,4
 533              		.comm	P1_UART,120,4
 534              		.comm	BLE_UART,120,4
 535              		.comm	USB_UART,120,4
 536              		.section	.rodata.HAL_UART_RxCpltCallback.str1.4,"aMS",%progbits,1
 537              		.align	2
 538              	.LC0:
 539 0000 75617274 		.ascii	"uart interrupt callback not implemented in applicat"
 539      20696E74 
 539      65727275 
 539      70742063 
 539      616C6C62 
 540 0033 696F6E0D 		.ascii	"ion\015\000"
 540      00
 541              		.text
 542              	.Letext0:
 543              		.file 2 "/home/mats/gcc-arm-none-eabi-7-2018-q2-update/arm-none-eabi/include/machine/_default_type
 544              		.file 3 "/home/mats/gcc-arm-none-eabi-7-2018-q2-update/arm-none-eabi/include/sys/_stdint.h"
 545              		.file 4 "../../core/ST/CMSIS/Include/core_cm4.h"
 546              		.file 5 "../../core/ST/CMSIS/Device/ST/STM32L4xx/Include/system_stm32l4xx.h"
 547              		.file 6 "../../core/ST/CMSIS/Device/ST/STM32L4xx/Include/stm32l496xx.h"
 548              		.file 7 "../../core/ST/STM32L4xx_HAL_Driver/Inc/stm32l4xx_hal_def.h"
 549              		.file 8 "../../core/ST/STM32L4xx_HAL_Driver/Inc/stm32l4xx_hal_dma.h"
 550              		.file 9 "../../core/ST/STM32L4xx_HAL_Driver/Inc/stm32l4xx_hal_uart.h"
 551              		.file 10 "../../core/ST/STM32L4xx_HAL_Driver/Inc/stm32l4xx_hal.h"
 552              		.file 11 "../../core/platform/octa/inc/uart.h"
 553              		.file 12 "../../core/ST/STM32L4xx_HAL_Driver/Inc/stm32l4xx_hal_cortex.h"
 554              		.file 13 "<built-in>"
ARM GAS  /tmp/ccOTmiAJ.s 			page 15

