ARM GAS  /tmp/ccZN3aKc.s 			page 1


   1              		.cpu cortex-m4
   2              		.eabi_attribute 27, 1
   3              		.eabi_attribute 28, 1
   4              		.eabi_attribute 20, 1
   5              		.eabi_attribute 21, 1
   6              		.eabi_attribute 23, 3
   7              		.eabi_attribute 24, 1
   8              		.eabi_attribute 25, 1
   9              		.eabi_attribute 26, 1
  10              		.eabi_attribute 30, 1
  11              		.eabi_attribute 34, 1
  12              		.eabi_attribute 18, 4
  13              		.file	"stm32l4xx_hal_flash_ex.c"
  14              		.text
  15              	.Ltext0:
  16              		.cfi_sections	.debug_frame
  17              		.section	.text.FLASH_MassErase,"ax",%progbits
  18              		.align	1
  19              		.syntax unified
  20              		.thumb
  21              		.thumb_func
  22              		.fpu fpv4-sp-d16
  24              	FLASH_MassErase:
  25              	.LFB127:
  26              		.file 1 "../../core/ST/STM32L4xx_HAL_Driver/Src/stm32l4xx_hal_flash_ex.c"
   1:../../core/ST/STM32L4xx_HAL_Driver/Src/stm32l4xx_hal_flash_ex.c **** /**
   2:../../core/ST/STM32L4xx_HAL_Driver/Src/stm32l4xx_hal_flash_ex.c ****   ******************************************************************************
   3:../../core/ST/STM32L4xx_HAL_Driver/Src/stm32l4xx_hal_flash_ex.c ****   * @file    stm32l4xx_hal_flash_ex.c
   4:../../core/ST/STM32L4xx_HAL_Driver/Src/stm32l4xx_hal_flash_ex.c ****   * @author  MCD Application Team
   5:../../core/ST/STM32L4xx_HAL_Driver/Src/stm32l4xx_hal_flash_ex.c ****   * @brief   Extended FLASH HAL module driver.
   6:../../core/ST/STM32L4xx_HAL_Driver/Src/stm32l4xx_hal_flash_ex.c ****   *          This file provides firmware functions to manage the following 
   7:../../core/ST/STM32L4xx_HAL_Driver/Src/stm32l4xx_hal_flash_ex.c ****   *          functionalities of the FLASH extended peripheral:
   8:../../core/ST/STM32L4xx_HAL_Driver/Src/stm32l4xx_hal_flash_ex.c ****   *           + Extended programming operations functions
   9:../../core/ST/STM32L4xx_HAL_Driver/Src/stm32l4xx_hal_flash_ex.c ****   *  
  10:../../core/ST/STM32L4xx_HAL_Driver/Src/stm32l4xx_hal_flash_ex.c ****  @verbatim    
  11:../../core/ST/STM32L4xx_HAL_Driver/Src/stm32l4xx_hal_flash_ex.c ****  ==============================================================================
  12:../../core/ST/STM32L4xx_HAL_Driver/Src/stm32l4xx_hal_flash_ex.c ****                    ##### Flash Extended features #####
  13:../../core/ST/STM32L4xx_HAL_Driver/Src/stm32l4xx_hal_flash_ex.c ****   ==============================================================================
  14:../../core/ST/STM32L4xx_HAL_Driver/Src/stm32l4xx_hal_flash_ex.c ****            
  15:../../core/ST/STM32L4xx_HAL_Driver/Src/stm32l4xx_hal_flash_ex.c ****   [..] Comparing to other previous devices, the FLASH interface for STM32L4xx 
  16:../../core/ST/STM32L4xx_HAL_Driver/Src/stm32l4xx_hal_flash_ex.c ****        devices contains the following additional features 
  17:../../core/ST/STM32L4xx_HAL_Driver/Src/stm32l4xx_hal_flash_ex.c ****        
  18:../../core/ST/STM32L4xx_HAL_Driver/Src/stm32l4xx_hal_flash_ex.c ****        (+) Capacity up to 2 Mbyte with dual bank architecture supporting read-while-write
  19:../../core/ST/STM32L4xx_HAL_Driver/Src/stm32l4xx_hal_flash_ex.c ****            capability (RWW)
  20:../../core/ST/STM32L4xx_HAL_Driver/Src/stm32l4xx_hal_flash_ex.c ****        (+) Dual bank memory organization       
  21:../../core/ST/STM32L4xx_HAL_Driver/Src/stm32l4xx_hal_flash_ex.c ****        (+) PCROP protection for all banks
  22:../../core/ST/STM32L4xx_HAL_Driver/Src/stm32l4xx_hal_flash_ex.c ****    
  23:../../core/ST/STM32L4xx_HAL_Driver/Src/stm32l4xx_hal_flash_ex.c ****                         ##### How to use this driver #####
  24:../../core/ST/STM32L4xx_HAL_Driver/Src/stm32l4xx_hal_flash_ex.c ****  ==============================================================================
  25:../../core/ST/STM32L4xx_HAL_Driver/Src/stm32l4xx_hal_flash_ex.c ****   [..] This driver provides functions to configure and program the FLASH memory 
  26:../../core/ST/STM32L4xx_HAL_Driver/Src/stm32l4xx_hal_flash_ex.c ****        of all STM32L4xx devices. It includes
  27:../../core/ST/STM32L4xx_HAL_Driver/Src/stm32l4xx_hal_flash_ex.c ****       (#) Flash Memory Erase functions: 
  28:../../core/ST/STM32L4xx_HAL_Driver/Src/stm32l4xx_hal_flash_ex.c ****            (++) Lock and Unlock the FLASH interface using HAL_FLASH_Unlock() and 
  29:../../core/ST/STM32L4xx_HAL_Driver/Src/stm32l4xx_hal_flash_ex.c ****                 HAL_FLASH_Lock() functions
  30:../../core/ST/STM32L4xx_HAL_Driver/Src/stm32l4xx_hal_flash_ex.c ****            (++) Erase function: Erase page, erase all sectors
  31:../../core/ST/STM32L4xx_HAL_Driver/Src/stm32l4xx_hal_flash_ex.c ****            (++) There are two modes of erase :
  32:../../core/ST/STM32L4xx_HAL_Driver/Src/stm32l4xx_hal_flash_ex.c ****              (+++) Polling Mode using HAL_FLASHEx_Erase()
ARM GAS  /tmp/ccZN3aKc.s 			page 2


  33:../../core/ST/STM32L4xx_HAL_Driver/Src/stm32l4xx_hal_flash_ex.c ****              (+++) Interrupt Mode using HAL_FLASHEx_Erase_IT()
  34:../../core/ST/STM32L4xx_HAL_Driver/Src/stm32l4xx_hal_flash_ex.c ****                          
  35:../../core/ST/STM32L4xx_HAL_Driver/Src/stm32l4xx_hal_flash_ex.c ****       (#) Option Bytes Programming function: Use HAL_FLASHEx_OBProgram() to :
  36:../../core/ST/STM32L4xx_HAL_Driver/Src/stm32l4xx_hal_flash_ex.c ****         (++) Set/Reset the write protection
  37:../../core/ST/STM32L4xx_HAL_Driver/Src/stm32l4xx_hal_flash_ex.c ****         (++) Set the Read protection Level
  38:../../core/ST/STM32L4xx_HAL_Driver/Src/stm32l4xx_hal_flash_ex.c ****         (++) Program the user Option Bytes
  39:../../core/ST/STM32L4xx_HAL_Driver/Src/stm32l4xx_hal_flash_ex.c ****         (++) Configure the PCROP protection
  40:../../core/ST/STM32L4xx_HAL_Driver/Src/stm32l4xx_hal_flash_ex.c ****         
  41:../../core/ST/STM32L4xx_HAL_Driver/Src/stm32l4xx_hal_flash_ex.c ****       (#) Get Option Bytes Configuration function: Use HAL_FLASHEx_OBGetConfig() to :
  42:../../core/ST/STM32L4xx_HAL_Driver/Src/stm32l4xx_hal_flash_ex.c ****         (++) Get the value of a write protection area
  43:../../core/ST/STM32L4xx_HAL_Driver/Src/stm32l4xx_hal_flash_ex.c ****         (++) Know if the read protection is activated
  44:../../core/ST/STM32L4xx_HAL_Driver/Src/stm32l4xx_hal_flash_ex.c ****         (++) Get the value of the user Option Bytes
  45:../../core/ST/STM32L4xx_HAL_Driver/Src/stm32l4xx_hal_flash_ex.c ****         (++) Get the value of a PCROP area
  46:../../core/ST/STM32L4xx_HAL_Driver/Src/stm32l4xx_hal_flash_ex.c ****     
  47:../../core/ST/STM32L4xx_HAL_Driver/Src/stm32l4xx_hal_flash_ex.c ****  @endverbatim                      
  48:../../core/ST/STM32L4xx_HAL_Driver/Src/stm32l4xx_hal_flash_ex.c ****   ******************************************************************************
  49:../../core/ST/STM32L4xx_HAL_Driver/Src/stm32l4xx_hal_flash_ex.c ****   * @attention
  50:../../core/ST/STM32L4xx_HAL_Driver/Src/stm32l4xx_hal_flash_ex.c ****   *
  51:../../core/ST/STM32L4xx_HAL_Driver/Src/stm32l4xx_hal_flash_ex.c ****   * <h2><center>&copy; COPYRIGHT(c) 2017 STMicroelectronics</center></h2>
  52:../../core/ST/STM32L4xx_HAL_Driver/Src/stm32l4xx_hal_flash_ex.c ****   *
  53:../../core/ST/STM32L4xx_HAL_Driver/Src/stm32l4xx_hal_flash_ex.c ****   * Redistribution and use in source and binary forms, with or without modification,
  54:../../core/ST/STM32L4xx_HAL_Driver/Src/stm32l4xx_hal_flash_ex.c ****   * are permitted provided that the following conditions are met:
  55:../../core/ST/STM32L4xx_HAL_Driver/Src/stm32l4xx_hal_flash_ex.c ****   *   1. Redistributions of source code must retain the above copyright notice,
  56:../../core/ST/STM32L4xx_HAL_Driver/Src/stm32l4xx_hal_flash_ex.c ****   *      this list of conditions and the following disclaimer.
  57:../../core/ST/STM32L4xx_HAL_Driver/Src/stm32l4xx_hal_flash_ex.c ****   *   2. Redistributions in binary form must reproduce the above copyright notice,
  58:../../core/ST/STM32L4xx_HAL_Driver/Src/stm32l4xx_hal_flash_ex.c ****   *      this list of conditions and the following disclaimer in the documentation
  59:../../core/ST/STM32L4xx_HAL_Driver/Src/stm32l4xx_hal_flash_ex.c ****   *      and/or other materials provided with the distribution.
  60:../../core/ST/STM32L4xx_HAL_Driver/Src/stm32l4xx_hal_flash_ex.c ****   *   3. Neither the name of STMicroelectronics nor the names of its contributors
  61:../../core/ST/STM32L4xx_HAL_Driver/Src/stm32l4xx_hal_flash_ex.c ****   *      may be used to endorse or promote products derived from this software
  62:../../core/ST/STM32L4xx_HAL_Driver/Src/stm32l4xx_hal_flash_ex.c ****   *      without specific prior written permission.
  63:../../core/ST/STM32L4xx_HAL_Driver/Src/stm32l4xx_hal_flash_ex.c ****   *
  64:../../core/ST/STM32L4xx_HAL_Driver/Src/stm32l4xx_hal_flash_ex.c ****   * THIS SOFTWARE IS PROVIDED BY THE COPYRIGHT HOLDERS AND CONTRIBUTORS "AS IS"
  65:../../core/ST/STM32L4xx_HAL_Driver/Src/stm32l4xx_hal_flash_ex.c ****   * AND ANY EXPRESS OR IMPLIED WARRANTIES, INCLUDING, BUT NOT LIMITED TO, THE
  66:../../core/ST/STM32L4xx_HAL_Driver/Src/stm32l4xx_hal_flash_ex.c ****   * IMPLIED WARRANTIES OF MERCHANTABILITY AND FITNESS FOR A PARTICULAR PURPOSE ARE
  67:../../core/ST/STM32L4xx_HAL_Driver/Src/stm32l4xx_hal_flash_ex.c ****   * DISCLAIMED. IN NO EVENT SHALL THE COPYRIGHT HOLDER OR CONTRIBUTORS BE LIABLE
  68:../../core/ST/STM32L4xx_HAL_Driver/Src/stm32l4xx_hal_flash_ex.c ****   * FOR ANY DIRECT, INDIRECT, INCIDENTAL, SPECIAL, EXEMPLARY, OR CONSEQUENTIAL
  69:../../core/ST/STM32L4xx_HAL_Driver/Src/stm32l4xx_hal_flash_ex.c ****   * DAMAGES (INCLUDING, BUT NOT LIMITED TO, PROCUREMENT OF SUBSTITUTE GOODS OR
  70:../../core/ST/STM32L4xx_HAL_Driver/Src/stm32l4xx_hal_flash_ex.c ****   * SERVICES; LOSS OF USE, DATA, OR PROFITS; OR BUSINESS INTERRUPTION) HOWEVER
  71:../../core/ST/STM32L4xx_HAL_Driver/Src/stm32l4xx_hal_flash_ex.c ****   * CAUSED AND ON ANY THEORY OF LIABILITY, WHETHER IN CONTRACT, STRICT LIABILITY,
  72:../../core/ST/STM32L4xx_HAL_Driver/Src/stm32l4xx_hal_flash_ex.c ****   * OR TORT (INCLUDING NEGLIGENCE OR OTHERWISE) ARISING IN ANY WAY OUT OF THE USE
  73:../../core/ST/STM32L4xx_HAL_Driver/Src/stm32l4xx_hal_flash_ex.c ****   * OF THIS SOFTWARE, EVEN IF ADVISED OF THE POSSIBILITY OF SUCH DAMAGE.
  74:../../core/ST/STM32L4xx_HAL_Driver/Src/stm32l4xx_hal_flash_ex.c ****   *
  75:../../core/ST/STM32L4xx_HAL_Driver/Src/stm32l4xx_hal_flash_ex.c ****   ******************************************************************************
  76:../../core/ST/STM32L4xx_HAL_Driver/Src/stm32l4xx_hal_flash_ex.c ****   */
  77:../../core/ST/STM32L4xx_HAL_Driver/Src/stm32l4xx_hal_flash_ex.c **** 
  78:../../core/ST/STM32L4xx_HAL_Driver/Src/stm32l4xx_hal_flash_ex.c **** /* Includes ------------------------------------------------------------------*/
  79:../../core/ST/STM32L4xx_HAL_Driver/Src/stm32l4xx_hal_flash_ex.c **** #include "stm32l4xx_hal.h"
  80:../../core/ST/STM32L4xx_HAL_Driver/Src/stm32l4xx_hal_flash_ex.c **** 
  81:../../core/ST/STM32L4xx_HAL_Driver/Src/stm32l4xx_hal_flash_ex.c **** /** @addtogroup STM32L4xx_HAL_Driver
  82:../../core/ST/STM32L4xx_HAL_Driver/Src/stm32l4xx_hal_flash_ex.c ****   * @{
  83:../../core/ST/STM32L4xx_HAL_Driver/Src/stm32l4xx_hal_flash_ex.c ****   */
  84:../../core/ST/STM32L4xx_HAL_Driver/Src/stm32l4xx_hal_flash_ex.c **** 
  85:../../core/ST/STM32L4xx_HAL_Driver/Src/stm32l4xx_hal_flash_ex.c **** /** @defgroup FLASHEx FLASHEx
  86:../../core/ST/STM32L4xx_HAL_Driver/Src/stm32l4xx_hal_flash_ex.c ****   * @brief FLASH Extended HAL module driver
  87:../../core/ST/STM32L4xx_HAL_Driver/Src/stm32l4xx_hal_flash_ex.c ****   * @{
  88:../../core/ST/STM32L4xx_HAL_Driver/Src/stm32l4xx_hal_flash_ex.c ****   */
  89:../../core/ST/STM32L4xx_HAL_Driver/Src/stm32l4xx_hal_flash_ex.c **** 
ARM GAS  /tmp/ccZN3aKc.s 			page 3


  90:../../core/ST/STM32L4xx_HAL_Driver/Src/stm32l4xx_hal_flash_ex.c **** #ifdef HAL_FLASH_MODULE_ENABLED
  91:../../core/ST/STM32L4xx_HAL_Driver/Src/stm32l4xx_hal_flash_ex.c **** 
  92:../../core/ST/STM32L4xx_HAL_Driver/Src/stm32l4xx_hal_flash_ex.c **** /* Private typedef -----------------------------------------------------------*/
  93:../../core/ST/STM32L4xx_HAL_Driver/Src/stm32l4xx_hal_flash_ex.c **** /* Private define ------------------------------------------------------------*/ 
  94:../../core/ST/STM32L4xx_HAL_Driver/Src/stm32l4xx_hal_flash_ex.c **** /* Private macro -------------------------------------------------------------*/
  95:../../core/ST/STM32L4xx_HAL_Driver/Src/stm32l4xx_hal_flash_ex.c **** /* Private variables ---------------------------------------------------------*/
  96:../../core/ST/STM32L4xx_HAL_Driver/Src/stm32l4xx_hal_flash_ex.c **** /** @defgroup FLASHEx_Private_Variables FLASHEx Private Variables
  97:../../core/ST/STM32L4xx_HAL_Driver/Src/stm32l4xx_hal_flash_ex.c ****  * @{
  98:../../core/ST/STM32L4xx_HAL_Driver/Src/stm32l4xx_hal_flash_ex.c ****  */
  99:../../core/ST/STM32L4xx_HAL_Driver/Src/stm32l4xx_hal_flash_ex.c **** extern FLASH_ProcessTypeDef pFlash;
 100:../../core/ST/STM32L4xx_HAL_Driver/Src/stm32l4xx_hal_flash_ex.c **** /**
 101:../../core/ST/STM32L4xx_HAL_Driver/Src/stm32l4xx_hal_flash_ex.c ****   * @}
 102:../../core/ST/STM32L4xx_HAL_Driver/Src/stm32l4xx_hal_flash_ex.c ****   */
 103:../../core/ST/STM32L4xx_HAL_Driver/Src/stm32l4xx_hal_flash_ex.c **** 
 104:../../core/ST/STM32L4xx_HAL_Driver/Src/stm32l4xx_hal_flash_ex.c **** /* Private function prototypes -----------------------------------------------*/
 105:../../core/ST/STM32L4xx_HAL_Driver/Src/stm32l4xx_hal_flash_ex.c **** /** @defgroup FLASHEx_Private_Functions FLASHEx Private Functions
 106:../../core/ST/STM32L4xx_HAL_Driver/Src/stm32l4xx_hal_flash_ex.c ****  * @{
 107:../../core/ST/STM32L4xx_HAL_Driver/Src/stm32l4xx_hal_flash_ex.c ****  */
 108:../../core/ST/STM32L4xx_HAL_Driver/Src/stm32l4xx_hal_flash_ex.c **** extern HAL_StatusTypeDef FLASH_WaitForLastOperation(uint32_t Timeout);
 109:../../core/ST/STM32L4xx_HAL_Driver/Src/stm32l4xx_hal_flash_ex.c **** void                     FLASH_PageErase(uint32_t Page, uint32_t Banks);
 110:../../core/ST/STM32L4xx_HAL_Driver/Src/stm32l4xx_hal_flash_ex.c **** static void              FLASH_MassErase(uint32_t Banks);
 111:../../core/ST/STM32L4xx_HAL_Driver/Src/stm32l4xx_hal_flash_ex.c **** void                     FLASH_FlushCaches(void);
 112:../../core/ST/STM32L4xx_HAL_Driver/Src/stm32l4xx_hal_flash_ex.c **** static HAL_StatusTypeDef FLASH_OB_WRPConfig(uint32_t WRPArea, uint32_t WRPStartOffset, uint32_t WRD
 113:../../core/ST/STM32L4xx_HAL_Driver/Src/stm32l4xx_hal_flash_ex.c **** static HAL_StatusTypeDef FLASH_OB_RDPConfig(uint32_t RDPLevel);
 114:../../core/ST/STM32L4xx_HAL_Driver/Src/stm32l4xx_hal_flash_ex.c **** static HAL_StatusTypeDef FLASH_OB_UserConfig(uint32_t UserType, uint32_t UserConfig);
 115:../../core/ST/STM32L4xx_HAL_Driver/Src/stm32l4xx_hal_flash_ex.c **** static HAL_StatusTypeDef FLASH_OB_PCROPConfig(uint32_t PCROPConfig, uint32_t PCROPStartAddr, uint32
 116:../../core/ST/STM32L4xx_HAL_Driver/Src/stm32l4xx_hal_flash_ex.c **** static void              FLASH_OB_GetWRP(uint32_t WRPArea, uint32_t * WRPStartOffset, uint32_t * WR
 117:../../core/ST/STM32L4xx_HAL_Driver/Src/stm32l4xx_hal_flash_ex.c **** static uint32_t          FLASH_OB_GetRDP(void);
 118:../../core/ST/STM32L4xx_HAL_Driver/Src/stm32l4xx_hal_flash_ex.c **** static uint32_t          FLASH_OB_GetUser(void);
 119:../../core/ST/STM32L4xx_HAL_Driver/Src/stm32l4xx_hal_flash_ex.c **** static void              FLASH_OB_GetPCROP(uint32_t * PCROPConfig, uint32_t * PCROPStartAddr, uint3
 120:../../core/ST/STM32L4xx_HAL_Driver/Src/stm32l4xx_hal_flash_ex.c **** /**
 121:../../core/ST/STM32L4xx_HAL_Driver/Src/stm32l4xx_hal_flash_ex.c ****   * @}
 122:../../core/ST/STM32L4xx_HAL_Driver/Src/stm32l4xx_hal_flash_ex.c ****   */
 123:../../core/ST/STM32L4xx_HAL_Driver/Src/stm32l4xx_hal_flash_ex.c **** 
 124:../../core/ST/STM32L4xx_HAL_Driver/Src/stm32l4xx_hal_flash_ex.c **** /* Exported functions -------------------------------------------------------*/
 125:../../core/ST/STM32L4xx_HAL_Driver/Src/stm32l4xx_hal_flash_ex.c **** /** @defgroup FLASHEx_Exported_Functions FLASHEx Exported Functions
 126:../../core/ST/STM32L4xx_HAL_Driver/Src/stm32l4xx_hal_flash_ex.c ****   * @{
 127:../../core/ST/STM32L4xx_HAL_Driver/Src/stm32l4xx_hal_flash_ex.c ****   */ 
 128:../../core/ST/STM32L4xx_HAL_Driver/Src/stm32l4xx_hal_flash_ex.c **** 
 129:../../core/ST/STM32L4xx_HAL_Driver/Src/stm32l4xx_hal_flash_ex.c **** /** @defgroup FLASHEx_Exported_Functions_Group1 Extended IO operation functions
 130:../../core/ST/STM32L4xx_HAL_Driver/Src/stm32l4xx_hal_flash_ex.c ****  *  @brief   Extended IO operation functions 
 131:../../core/ST/STM32L4xx_HAL_Driver/Src/stm32l4xx_hal_flash_ex.c ****  *
 132:../../core/ST/STM32L4xx_HAL_Driver/Src/stm32l4xx_hal_flash_ex.c **** @verbatim   
 133:../../core/ST/STM32L4xx_HAL_Driver/Src/stm32l4xx_hal_flash_ex.c ****  ===============================================================================
 134:../../core/ST/STM32L4xx_HAL_Driver/Src/stm32l4xx_hal_flash_ex.c ****                 ##### Extended programming operation functions #####
 135:../../core/ST/STM32L4xx_HAL_Driver/Src/stm32l4xx_hal_flash_ex.c ****  ===============================================================================
 136:../../core/ST/STM32L4xx_HAL_Driver/Src/stm32l4xx_hal_flash_ex.c ****     [..]
 137:../../core/ST/STM32L4xx_HAL_Driver/Src/stm32l4xx_hal_flash_ex.c ****     This subsection provides a set of functions allowing to manage the Extended FLASH 
 138:../../core/ST/STM32L4xx_HAL_Driver/Src/stm32l4xx_hal_flash_ex.c ****     programming operations Operations.
 139:../../core/ST/STM32L4xx_HAL_Driver/Src/stm32l4xx_hal_flash_ex.c ****  
 140:../../core/ST/STM32L4xx_HAL_Driver/Src/stm32l4xx_hal_flash_ex.c **** @endverbatim
 141:../../core/ST/STM32L4xx_HAL_Driver/Src/stm32l4xx_hal_flash_ex.c ****   * @{
 142:../../core/ST/STM32L4xx_HAL_Driver/Src/stm32l4xx_hal_flash_ex.c ****   */
 143:../../core/ST/STM32L4xx_HAL_Driver/Src/stm32l4xx_hal_flash_ex.c **** /**
 144:../../core/ST/STM32L4xx_HAL_Driver/Src/stm32l4xx_hal_flash_ex.c ****   * @brief  Perform a mass erase or erase the specified FLASH memory pages.
 145:../../core/ST/STM32L4xx_HAL_Driver/Src/stm32l4xx_hal_flash_ex.c ****   * @param[in]  pEraseInit: pointer to an FLASH_EraseInitTypeDef structure that
 146:../../core/ST/STM32L4xx_HAL_Driver/Src/stm32l4xx_hal_flash_ex.c ****   *         contains the configuration information for the erasing.
ARM GAS  /tmp/ccZN3aKc.s 			page 4


 147:../../core/ST/STM32L4xx_HAL_Driver/Src/stm32l4xx_hal_flash_ex.c ****   * 
 148:../../core/ST/STM32L4xx_HAL_Driver/Src/stm32l4xx_hal_flash_ex.c ****   * @param[out]  PageError  : pointer to variable that contains the configuration 
 149:../../core/ST/STM32L4xx_HAL_Driver/Src/stm32l4xx_hal_flash_ex.c ****   *         information on faulty page in case of error (0xFFFFFFFF means that all 
 150:../../core/ST/STM32L4xx_HAL_Driver/Src/stm32l4xx_hal_flash_ex.c ****   *         the pages have been correctly erased)
 151:../../core/ST/STM32L4xx_HAL_Driver/Src/stm32l4xx_hal_flash_ex.c ****   * 
 152:../../core/ST/STM32L4xx_HAL_Driver/Src/stm32l4xx_hal_flash_ex.c ****   * @retval HAL Status
 153:../../core/ST/STM32L4xx_HAL_Driver/Src/stm32l4xx_hal_flash_ex.c ****   */
 154:../../core/ST/STM32L4xx_HAL_Driver/Src/stm32l4xx_hal_flash_ex.c **** HAL_StatusTypeDef HAL_FLASHEx_Erase(FLASH_EraseInitTypeDef *pEraseInit, uint32_t *PageError)
 155:../../core/ST/STM32L4xx_HAL_Driver/Src/stm32l4xx_hal_flash_ex.c **** {
 156:../../core/ST/STM32L4xx_HAL_Driver/Src/stm32l4xx_hal_flash_ex.c ****   HAL_StatusTypeDef status;
 157:../../core/ST/STM32L4xx_HAL_Driver/Src/stm32l4xx_hal_flash_ex.c ****   uint32_t page_index;
 158:../../core/ST/STM32L4xx_HAL_Driver/Src/stm32l4xx_hal_flash_ex.c **** 
 159:../../core/ST/STM32L4xx_HAL_Driver/Src/stm32l4xx_hal_flash_ex.c ****   /* Process Locked */
 160:../../core/ST/STM32L4xx_HAL_Driver/Src/stm32l4xx_hal_flash_ex.c ****   __HAL_LOCK(&pFlash);
 161:../../core/ST/STM32L4xx_HAL_Driver/Src/stm32l4xx_hal_flash_ex.c **** 
 162:../../core/ST/STM32L4xx_HAL_Driver/Src/stm32l4xx_hal_flash_ex.c ****   /* Check the parameters */
 163:../../core/ST/STM32L4xx_HAL_Driver/Src/stm32l4xx_hal_flash_ex.c ****   assert_param(IS_FLASH_TYPEERASE(pEraseInit->TypeErase));
 164:../../core/ST/STM32L4xx_HAL_Driver/Src/stm32l4xx_hal_flash_ex.c **** 
 165:../../core/ST/STM32L4xx_HAL_Driver/Src/stm32l4xx_hal_flash_ex.c ****   /* Wait for last operation to be completed */
 166:../../core/ST/STM32L4xx_HAL_Driver/Src/stm32l4xx_hal_flash_ex.c ****   status = FLASH_WaitForLastOperation((uint32_t)FLASH_TIMEOUT_VALUE);
 167:../../core/ST/STM32L4xx_HAL_Driver/Src/stm32l4xx_hal_flash_ex.c **** 
 168:../../core/ST/STM32L4xx_HAL_Driver/Src/stm32l4xx_hal_flash_ex.c ****   if (status == HAL_OK)
 169:../../core/ST/STM32L4xx_HAL_Driver/Src/stm32l4xx_hal_flash_ex.c ****   {
 170:../../core/ST/STM32L4xx_HAL_Driver/Src/stm32l4xx_hal_flash_ex.c ****     pFlash.ErrorCode = HAL_FLASH_ERROR_NONE;
 171:../../core/ST/STM32L4xx_HAL_Driver/Src/stm32l4xx_hal_flash_ex.c **** 
 172:../../core/ST/STM32L4xx_HAL_Driver/Src/stm32l4xx_hal_flash_ex.c ****     /* Deactivate the cache if they are activated to avoid data misbehavior */
 173:../../core/ST/STM32L4xx_HAL_Driver/Src/stm32l4xx_hal_flash_ex.c ****     if(READ_BIT(FLASH->ACR, FLASH_ACR_ICEN) != 0U)
 174:../../core/ST/STM32L4xx_HAL_Driver/Src/stm32l4xx_hal_flash_ex.c ****     {
 175:../../core/ST/STM32L4xx_HAL_Driver/Src/stm32l4xx_hal_flash_ex.c ****       /* Disable instruction cache  */
 176:../../core/ST/STM32L4xx_HAL_Driver/Src/stm32l4xx_hal_flash_ex.c ****       __HAL_FLASH_INSTRUCTION_CACHE_DISABLE();
 177:../../core/ST/STM32L4xx_HAL_Driver/Src/stm32l4xx_hal_flash_ex.c **** 
 178:../../core/ST/STM32L4xx_HAL_Driver/Src/stm32l4xx_hal_flash_ex.c ****       if(READ_BIT(FLASH->ACR, FLASH_ACR_DCEN) != 0U)
 179:../../core/ST/STM32L4xx_HAL_Driver/Src/stm32l4xx_hal_flash_ex.c ****       {
 180:../../core/ST/STM32L4xx_HAL_Driver/Src/stm32l4xx_hal_flash_ex.c ****         /* Disable data cache  */
 181:../../core/ST/STM32L4xx_HAL_Driver/Src/stm32l4xx_hal_flash_ex.c ****         __HAL_FLASH_DATA_CACHE_DISABLE();
 182:../../core/ST/STM32L4xx_HAL_Driver/Src/stm32l4xx_hal_flash_ex.c ****         pFlash.CacheToReactivate = FLASH_CACHE_ICACHE_DCACHE_ENABLED;
 183:../../core/ST/STM32L4xx_HAL_Driver/Src/stm32l4xx_hal_flash_ex.c ****       }
 184:../../core/ST/STM32L4xx_HAL_Driver/Src/stm32l4xx_hal_flash_ex.c ****       else
 185:../../core/ST/STM32L4xx_HAL_Driver/Src/stm32l4xx_hal_flash_ex.c ****       {
 186:../../core/ST/STM32L4xx_HAL_Driver/Src/stm32l4xx_hal_flash_ex.c ****         pFlash.CacheToReactivate = FLASH_CACHE_ICACHE_ENABLED;
 187:../../core/ST/STM32L4xx_HAL_Driver/Src/stm32l4xx_hal_flash_ex.c ****       }
 188:../../core/ST/STM32L4xx_HAL_Driver/Src/stm32l4xx_hal_flash_ex.c ****     }
 189:../../core/ST/STM32L4xx_HAL_Driver/Src/stm32l4xx_hal_flash_ex.c ****     else if(READ_BIT(FLASH->ACR, FLASH_ACR_DCEN) != 0U)
 190:../../core/ST/STM32L4xx_HAL_Driver/Src/stm32l4xx_hal_flash_ex.c ****     {
 191:../../core/ST/STM32L4xx_HAL_Driver/Src/stm32l4xx_hal_flash_ex.c ****       /* Disable data cache  */
 192:../../core/ST/STM32L4xx_HAL_Driver/Src/stm32l4xx_hal_flash_ex.c ****       __HAL_FLASH_DATA_CACHE_DISABLE();
 193:../../core/ST/STM32L4xx_HAL_Driver/Src/stm32l4xx_hal_flash_ex.c ****       pFlash.CacheToReactivate = FLASH_CACHE_DCACHE_ENABLED;
 194:../../core/ST/STM32L4xx_HAL_Driver/Src/stm32l4xx_hal_flash_ex.c ****     }
 195:../../core/ST/STM32L4xx_HAL_Driver/Src/stm32l4xx_hal_flash_ex.c ****     else
 196:../../core/ST/STM32L4xx_HAL_Driver/Src/stm32l4xx_hal_flash_ex.c ****     {
 197:../../core/ST/STM32L4xx_HAL_Driver/Src/stm32l4xx_hal_flash_ex.c ****       pFlash.CacheToReactivate = FLASH_CACHE_DISABLED;
 198:../../core/ST/STM32L4xx_HAL_Driver/Src/stm32l4xx_hal_flash_ex.c ****     }
 199:../../core/ST/STM32L4xx_HAL_Driver/Src/stm32l4xx_hal_flash_ex.c **** 
 200:../../core/ST/STM32L4xx_HAL_Driver/Src/stm32l4xx_hal_flash_ex.c ****     if (pEraseInit->TypeErase == FLASH_TYPEERASE_MASSERASE)
 201:../../core/ST/STM32L4xx_HAL_Driver/Src/stm32l4xx_hal_flash_ex.c ****     {
 202:../../core/ST/STM32L4xx_HAL_Driver/Src/stm32l4xx_hal_flash_ex.c ****       /* Mass erase to be done */
 203:../../core/ST/STM32L4xx_HAL_Driver/Src/stm32l4xx_hal_flash_ex.c ****       FLASH_MassErase(pEraseInit->Banks);
ARM GAS  /tmp/ccZN3aKc.s 			page 5


 204:../../core/ST/STM32L4xx_HAL_Driver/Src/stm32l4xx_hal_flash_ex.c **** 
 205:../../core/ST/STM32L4xx_HAL_Driver/Src/stm32l4xx_hal_flash_ex.c ****       /* Wait for last operation to be completed */
 206:../../core/ST/STM32L4xx_HAL_Driver/Src/stm32l4xx_hal_flash_ex.c ****       status = FLASH_WaitForLastOperation((uint32_t)FLASH_TIMEOUT_VALUE);
 207:../../core/ST/STM32L4xx_HAL_Driver/Src/stm32l4xx_hal_flash_ex.c **** 
 208:../../core/ST/STM32L4xx_HAL_Driver/Src/stm32l4xx_hal_flash_ex.c **** #if defined (STM32L471xx) || defined (STM32L475xx) || defined (STM32L476xx) || defined (STM32L485xx
 209:../../core/ST/STM32L4xx_HAL_Driver/Src/stm32l4xx_hal_flash_ex.c ****     defined (STM32L496xx) || defined (STM32L4A6xx) || \
 210:../../core/ST/STM32L4xx_HAL_Driver/Src/stm32l4xx_hal_flash_ex.c ****     defined (STM32L4R5xx) || defined (STM32L4R7xx) || defined (STM32L4R9xx) || defined (STM32L4S5xx
 211:../../core/ST/STM32L4xx_HAL_Driver/Src/stm32l4xx_hal_flash_ex.c ****       /* If the erase operation is completed, disable the MER1 and MER2 Bits */
 212:../../core/ST/STM32L4xx_HAL_Driver/Src/stm32l4xx_hal_flash_ex.c ****       CLEAR_BIT(FLASH->CR, (FLASH_CR_MER1 | FLASH_CR_MER2));
 213:../../core/ST/STM32L4xx_HAL_Driver/Src/stm32l4xx_hal_flash_ex.c **** #else
 214:../../core/ST/STM32L4xx_HAL_Driver/Src/stm32l4xx_hal_flash_ex.c ****       /* If the erase operation is completed, disable the MER1 Bit */
 215:../../core/ST/STM32L4xx_HAL_Driver/Src/stm32l4xx_hal_flash_ex.c ****       CLEAR_BIT(FLASH->CR, (FLASH_CR_MER1));
 216:../../core/ST/STM32L4xx_HAL_Driver/Src/stm32l4xx_hal_flash_ex.c **** #endif      
 217:../../core/ST/STM32L4xx_HAL_Driver/Src/stm32l4xx_hal_flash_ex.c ****     }
 218:../../core/ST/STM32L4xx_HAL_Driver/Src/stm32l4xx_hal_flash_ex.c ****     else
 219:../../core/ST/STM32L4xx_HAL_Driver/Src/stm32l4xx_hal_flash_ex.c ****     {
 220:../../core/ST/STM32L4xx_HAL_Driver/Src/stm32l4xx_hal_flash_ex.c ****       /*Initialization of PageError variable*/
 221:../../core/ST/STM32L4xx_HAL_Driver/Src/stm32l4xx_hal_flash_ex.c ****       *PageError = 0xFFFFFFFFU;
 222:../../core/ST/STM32L4xx_HAL_Driver/Src/stm32l4xx_hal_flash_ex.c ****       
 223:../../core/ST/STM32L4xx_HAL_Driver/Src/stm32l4xx_hal_flash_ex.c ****       for(page_index = pEraseInit->Page; page_index < (pEraseInit->Page + pEraseInit->NbPages); pag
 224:../../core/ST/STM32L4xx_HAL_Driver/Src/stm32l4xx_hal_flash_ex.c ****       {
 225:../../core/ST/STM32L4xx_HAL_Driver/Src/stm32l4xx_hal_flash_ex.c ****         FLASH_PageErase(page_index, pEraseInit->Banks);
 226:../../core/ST/STM32L4xx_HAL_Driver/Src/stm32l4xx_hal_flash_ex.c **** 
 227:../../core/ST/STM32L4xx_HAL_Driver/Src/stm32l4xx_hal_flash_ex.c ****         /* Wait for last operation to be completed */
 228:../../core/ST/STM32L4xx_HAL_Driver/Src/stm32l4xx_hal_flash_ex.c ****         status = FLASH_WaitForLastOperation((uint32_t)FLASH_TIMEOUT_VALUE);
 229:../../core/ST/STM32L4xx_HAL_Driver/Src/stm32l4xx_hal_flash_ex.c **** 
 230:../../core/ST/STM32L4xx_HAL_Driver/Src/stm32l4xx_hal_flash_ex.c ****         /* If the erase operation is completed, disable the PER Bit */
 231:../../core/ST/STM32L4xx_HAL_Driver/Src/stm32l4xx_hal_flash_ex.c ****         CLEAR_BIT(FLASH->CR, (FLASH_CR_PER | FLASH_CR_PNB));
 232:../../core/ST/STM32L4xx_HAL_Driver/Src/stm32l4xx_hal_flash_ex.c **** 
 233:../../core/ST/STM32L4xx_HAL_Driver/Src/stm32l4xx_hal_flash_ex.c ****         if (status != HAL_OK)
 234:../../core/ST/STM32L4xx_HAL_Driver/Src/stm32l4xx_hal_flash_ex.c ****         {
 235:../../core/ST/STM32L4xx_HAL_Driver/Src/stm32l4xx_hal_flash_ex.c ****           /* In case of error, stop erase procedure and return the faulty address */
 236:../../core/ST/STM32L4xx_HAL_Driver/Src/stm32l4xx_hal_flash_ex.c ****           *PageError = page_index;
 237:../../core/ST/STM32L4xx_HAL_Driver/Src/stm32l4xx_hal_flash_ex.c ****           break;
 238:../../core/ST/STM32L4xx_HAL_Driver/Src/stm32l4xx_hal_flash_ex.c ****         }
 239:../../core/ST/STM32L4xx_HAL_Driver/Src/stm32l4xx_hal_flash_ex.c ****       }
 240:../../core/ST/STM32L4xx_HAL_Driver/Src/stm32l4xx_hal_flash_ex.c ****     }
 241:../../core/ST/STM32L4xx_HAL_Driver/Src/stm32l4xx_hal_flash_ex.c ****     
 242:../../core/ST/STM32L4xx_HAL_Driver/Src/stm32l4xx_hal_flash_ex.c ****     /* Flush the caches to be sure of the data consistency */
 243:../../core/ST/STM32L4xx_HAL_Driver/Src/stm32l4xx_hal_flash_ex.c ****     FLASH_FlushCaches();
 244:../../core/ST/STM32L4xx_HAL_Driver/Src/stm32l4xx_hal_flash_ex.c ****   }
 245:../../core/ST/STM32L4xx_HAL_Driver/Src/stm32l4xx_hal_flash_ex.c **** 
 246:../../core/ST/STM32L4xx_HAL_Driver/Src/stm32l4xx_hal_flash_ex.c ****   /* Process Unlocked */
 247:../../core/ST/STM32L4xx_HAL_Driver/Src/stm32l4xx_hal_flash_ex.c ****   __HAL_UNLOCK(&pFlash);
 248:../../core/ST/STM32L4xx_HAL_Driver/Src/stm32l4xx_hal_flash_ex.c **** 
 249:../../core/ST/STM32L4xx_HAL_Driver/Src/stm32l4xx_hal_flash_ex.c ****   return status;
 250:../../core/ST/STM32L4xx_HAL_Driver/Src/stm32l4xx_hal_flash_ex.c **** }
 251:../../core/ST/STM32L4xx_HAL_Driver/Src/stm32l4xx_hal_flash_ex.c **** 
 252:../../core/ST/STM32L4xx_HAL_Driver/Src/stm32l4xx_hal_flash_ex.c **** /**
 253:../../core/ST/STM32L4xx_HAL_Driver/Src/stm32l4xx_hal_flash_ex.c ****   * @brief  Perform a mass erase or erase the specified FLASH memory pages with interrupt enabled.
 254:../../core/ST/STM32L4xx_HAL_Driver/Src/stm32l4xx_hal_flash_ex.c ****   * @param  pEraseInit: pointer to an FLASH_EraseInitTypeDef structure that
 255:../../core/ST/STM32L4xx_HAL_Driver/Src/stm32l4xx_hal_flash_ex.c ****   *         contains the configuration information for the erasing.
 256:../../core/ST/STM32L4xx_HAL_Driver/Src/stm32l4xx_hal_flash_ex.c ****   * 
 257:../../core/ST/STM32L4xx_HAL_Driver/Src/stm32l4xx_hal_flash_ex.c ****   * @retval HAL Status
 258:../../core/ST/STM32L4xx_HAL_Driver/Src/stm32l4xx_hal_flash_ex.c ****   */
 259:../../core/ST/STM32L4xx_HAL_Driver/Src/stm32l4xx_hal_flash_ex.c **** HAL_StatusTypeDef HAL_FLASHEx_Erase_IT(FLASH_EraseInitTypeDef *pEraseInit)
 260:../../core/ST/STM32L4xx_HAL_Driver/Src/stm32l4xx_hal_flash_ex.c **** {
ARM GAS  /tmp/ccZN3aKc.s 			page 6


 261:../../core/ST/STM32L4xx_HAL_Driver/Src/stm32l4xx_hal_flash_ex.c ****   HAL_StatusTypeDef status = HAL_OK;
 262:../../core/ST/STM32L4xx_HAL_Driver/Src/stm32l4xx_hal_flash_ex.c **** 
 263:../../core/ST/STM32L4xx_HAL_Driver/Src/stm32l4xx_hal_flash_ex.c ****   /* Process Locked */
 264:../../core/ST/STM32L4xx_HAL_Driver/Src/stm32l4xx_hal_flash_ex.c ****   __HAL_LOCK(&pFlash);
 265:../../core/ST/STM32L4xx_HAL_Driver/Src/stm32l4xx_hal_flash_ex.c **** 
 266:../../core/ST/STM32L4xx_HAL_Driver/Src/stm32l4xx_hal_flash_ex.c ****   /* Check the parameters */
 267:../../core/ST/STM32L4xx_HAL_Driver/Src/stm32l4xx_hal_flash_ex.c ****   assert_param(IS_FLASH_TYPEERASE(pEraseInit->TypeErase));
 268:../../core/ST/STM32L4xx_HAL_Driver/Src/stm32l4xx_hal_flash_ex.c **** 
 269:../../core/ST/STM32L4xx_HAL_Driver/Src/stm32l4xx_hal_flash_ex.c ****   pFlash.ErrorCode = HAL_FLASH_ERROR_NONE;
 270:../../core/ST/STM32L4xx_HAL_Driver/Src/stm32l4xx_hal_flash_ex.c **** 
 271:../../core/ST/STM32L4xx_HAL_Driver/Src/stm32l4xx_hal_flash_ex.c ****   /* Deactivate the cache if they are activated to avoid data misbehavior */
 272:../../core/ST/STM32L4xx_HAL_Driver/Src/stm32l4xx_hal_flash_ex.c ****   if(READ_BIT(FLASH->ACR, FLASH_ACR_ICEN) != 0U)
 273:../../core/ST/STM32L4xx_HAL_Driver/Src/stm32l4xx_hal_flash_ex.c ****   {
 274:../../core/ST/STM32L4xx_HAL_Driver/Src/stm32l4xx_hal_flash_ex.c ****     /* Disable instruction cache  */
 275:../../core/ST/STM32L4xx_HAL_Driver/Src/stm32l4xx_hal_flash_ex.c ****     __HAL_FLASH_INSTRUCTION_CACHE_DISABLE();
 276:../../core/ST/STM32L4xx_HAL_Driver/Src/stm32l4xx_hal_flash_ex.c ****     
 277:../../core/ST/STM32L4xx_HAL_Driver/Src/stm32l4xx_hal_flash_ex.c ****     if(READ_BIT(FLASH->ACR, FLASH_ACR_DCEN) != 0U)
 278:../../core/ST/STM32L4xx_HAL_Driver/Src/stm32l4xx_hal_flash_ex.c ****     {
 279:../../core/ST/STM32L4xx_HAL_Driver/Src/stm32l4xx_hal_flash_ex.c ****       /* Disable data cache  */
 280:../../core/ST/STM32L4xx_HAL_Driver/Src/stm32l4xx_hal_flash_ex.c ****       __HAL_FLASH_DATA_CACHE_DISABLE();
 281:../../core/ST/STM32L4xx_HAL_Driver/Src/stm32l4xx_hal_flash_ex.c ****       pFlash.CacheToReactivate = FLASH_CACHE_ICACHE_DCACHE_ENABLED;
 282:../../core/ST/STM32L4xx_HAL_Driver/Src/stm32l4xx_hal_flash_ex.c ****     }
 283:../../core/ST/STM32L4xx_HAL_Driver/Src/stm32l4xx_hal_flash_ex.c ****     else
 284:../../core/ST/STM32L4xx_HAL_Driver/Src/stm32l4xx_hal_flash_ex.c ****     {
 285:../../core/ST/STM32L4xx_HAL_Driver/Src/stm32l4xx_hal_flash_ex.c ****       pFlash.CacheToReactivate = FLASH_CACHE_ICACHE_ENABLED;
 286:../../core/ST/STM32L4xx_HAL_Driver/Src/stm32l4xx_hal_flash_ex.c ****     }
 287:../../core/ST/STM32L4xx_HAL_Driver/Src/stm32l4xx_hal_flash_ex.c ****   }
 288:../../core/ST/STM32L4xx_HAL_Driver/Src/stm32l4xx_hal_flash_ex.c ****   else if(READ_BIT(FLASH->ACR, FLASH_ACR_DCEN) != 0U)
 289:../../core/ST/STM32L4xx_HAL_Driver/Src/stm32l4xx_hal_flash_ex.c ****   {
 290:../../core/ST/STM32L4xx_HAL_Driver/Src/stm32l4xx_hal_flash_ex.c ****     /* Disable data cache  */
 291:../../core/ST/STM32L4xx_HAL_Driver/Src/stm32l4xx_hal_flash_ex.c ****     __HAL_FLASH_DATA_CACHE_DISABLE();
 292:../../core/ST/STM32L4xx_HAL_Driver/Src/stm32l4xx_hal_flash_ex.c ****     pFlash.CacheToReactivate = FLASH_CACHE_DCACHE_ENABLED;
 293:../../core/ST/STM32L4xx_HAL_Driver/Src/stm32l4xx_hal_flash_ex.c ****   }
 294:../../core/ST/STM32L4xx_HAL_Driver/Src/stm32l4xx_hal_flash_ex.c ****   else
 295:../../core/ST/STM32L4xx_HAL_Driver/Src/stm32l4xx_hal_flash_ex.c ****   {
 296:../../core/ST/STM32L4xx_HAL_Driver/Src/stm32l4xx_hal_flash_ex.c ****     pFlash.CacheToReactivate = FLASH_CACHE_DISABLED;
 297:../../core/ST/STM32L4xx_HAL_Driver/Src/stm32l4xx_hal_flash_ex.c ****   }
 298:../../core/ST/STM32L4xx_HAL_Driver/Src/stm32l4xx_hal_flash_ex.c **** 
 299:../../core/ST/STM32L4xx_HAL_Driver/Src/stm32l4xx_hal_flash_ex.c ****   /* Enable End of Operation and Error interrupts */
 300:../../core/ST/STM32L4xx_HAL_Driver/Src/stm32l4xx_hal_flash_ex.c ****   __HAL_FLASH_ENABLE_IT(FLASH_IT_EOP | FLASH_IT_OPERR);
 301:../../core/ST/STM32L4xx_HAL_Driver/Src/stm32l4xx_hal_flash_ex.c **** 
 302:../../core/ST/STM32L4xx_HAL_Driver/Src/stm32l4xx_hal_flash_ex.c ****   pFlash.Bank = pEraseInit->Banks;
 303:../../core/ST/STM32L4xx_HAL_Driver/Src/stm32l4xx_hal_flash_ex.c **** 
 304:../../core/ST/STM32L4xx_HAL_Driver/Src/stm32l4xx_hal_flash_ex.c ****   if (pEraseInit->TypeErase == FLASH_TYPEERASE_MASSERASE)
 305:../../core/ST/STM32L4xx_HAL_Driver/Src/stm32l4xx_hal_flash_ex.c ****   {
 306:../../core/ST/STM32L4xx_HAL_Driver/Src/stm32l4xx_hal_flash_ex.c ****     /* Mass erase to be done */
 307:../../core/ST/STM32L4xx_HAL_Driver/Src/stm32l4xx_hal_flash_ex.c ****     pFlash.ProcedureOnGoing = FLASH_PROC_MASS_ERASE;
 308:../../core/ST/STM32L4xx_HAL_Driver/Src/stm32l4xx_hal_flash_ex.c ****     FLASH_MassErase(pEraseInit->Banks);
 309:../../core/ST/STM32L4xx_HAL_Driver/Src/stm32l4xx_hal_flash_ex.c ****   }
 310:../../core/ST/STM32L4xx_HAL_Driver/Src/stm32l4xx_hal_flash_ex.c ****   else
 311:../../core/ST/STM32L4xx_HAL_Driver/Src/stm32l4xx_hal_flash_ex.c ****   {
 312:../../core/ST/STM32L4xx_HAL_Driver/Src/stm32l4xx_hal_flash_ex.c ****     /* Erase by page to be done */
 313:../../core/ST/STM32L4xx_HAL_Driver/Src/stm32l4xx_hal_flash_ex.c ****     pFlash.ProcedureOnGoing = FLASH_PROC_PAGE_ERASE;
 314:../../core/ST/STM32L4xx_HAL_Driver/Src/stm32l4xx_hal_flash_ex.c ****     pFlash.NbPagesToErase = pEraseInit->NbPages;
 315:../../core/ST/STM32L4xx_HAL_Driver/Src/stm32l4xx_hal_flash_ex.c ****     pFlash.Page = pEraseInit->Page;
 316:../../core/ST/STM32L4xx_HAL_Driver/Src/stm32l4xx_hal_flash_ex.c **** 
 317:../../core/ST/STM32L4xx_HAL_Driver/Src/stm32l4xx_hal_flash_ex.c ****     /*Erase 1st page and wait for IT */
ARM GAS  /tmp/ccZN3aKc.s 			page 7


 318:../../core/ST/STM32L4xx_HAL_Driver/Src/stm32l4xx_hal_flash_ex.c ****     FLASH_PageErase(pEraseInit->Page, pEraseInit->Banks);
 319:../../core/ST/STM32L4xx_HAL_Driver/Src/stm32l4xx_hal_flash_ex.c ****   }
 320:../../core/ST/STM32L4xx_HAL_Driver/Src/stm32l4xx_hal_flash_ex.c ****   
 321:../../core/ST/STM32L4xx_HAL_Driver/Src/stm32l4xx_hal_flash_ex.c ****   return status;
 322:../../core/ST/STM32L4xx_HAL_Driver/Src/stm32l4xx_hal_flash_ex.c **** }
 323:../../core/ST/STM32L4xx_HAL_Driver/Src/stm32l4xx_hal_flash_ex.c **** 
 324:../../core/ST/STM32L4xx_HAL_Driver/Src/stm32l4xx_hal_flash_ex.c **** /**
 325:../../core/ST/STM32L4xx_HAL_Driver/Src/stm32l4xx_hal_flash_ex.c ****   * @brief  Program Option bytes.
 326:../../core/ST/STM32L4xx_HAL_Driver/Src/stm32l4xx_hal_flash_ex.c ****   * @param  pOBInit: pointer to an FLASH_OBInitStruct structure that
 327:../../core/ST/STM32L4xx_HAL_Driver/Src/stm32l4xx_hal_flash_ex.c ****   *         contains the configuration information for the programming.
 328:../../core/ST/STM32L4xx_HAL_Driver/Src/stm32l4xx_hal_flash_ex.c ****   * 
 329:../../core/ST/STM32L4xx_HAL_Driver/Src/stm32l4xx_hal_flash_ex.c ****   * @retval HAL Status
 330:../../core/ST/STM32L4xx_HAL_Driver/Src/stm32l4xx_hal_flash_ex.c ****   */
 331:../../core/ST/STM32L4xx_HAL_Driver/Src/stm32l4xx_hal_flash_ex.c **** HAL_StatusTypeDef HAL_FLASHEx_OBProgram(FLASH_OBProgramInitTypeDef *pOBInit)
 332:../../core/ST/STM32L4xx_HAL_Driver/Src/stm32l4xx_hal_flash_ex.c **** {
 333:../../core/ST/STM32L4xx_HAL_Driver/Src/stm32l4xx_hal_flash_ex.c ****   HAL_StatusTypeDef status = HAL_OK;
 334:../../core/ST/STM32L4xx_HAL_Driver/Src/stm32l4xx_hal_flash_ex.c ****   
 335:../../core/ST/STM32L4xx_HAL_Driver/Src/stm32l4xx_hal_flash_ex.c ****   /* Process Locked */
 336:../../core/ST/STM32L4xx_HAL_Driver/Src/stm32l4xx_hal_flash_ex.c ****   __HAL_LOCK(&pFlash);
 337:../../core/ST/STM32L4xx_HAL_Driver/Src/stm32l4xx_hal_flash_ex.c **** 
 338:../../core/ST/STM32L4xx_HAL_Driver/Src/stm32l4xx_hal_flash_ex.c ****   /* Check the parameters */
 339:../../core/ST/STM32L4xx_HAL_Driver/Src/stm32l4xx_hal_flash_ex.c ****   assert_param(IS_OPTIONBYTE(pOBInit->OptionType));
 340:../../core/ST/STM32L4xx_HAL_Driver/Src/stm32l4xx_hal_flash_ex.c ****   
 341:../../core/ST/STM32L4xx_HAL_Driver/Src/stm32l4xx_hal_flash_ex.c ****   pFlash.ErrorCode = HAL_FLASH_ERROR_NONE;
 342:../../core/ST/STM32L4xx_HAL_Driver/Src/stm32l4xx_hal_flash_ex.c **** 
 343:../../core/ST/STM32L4xx_HAL_Driver/Src/stm32l4xx_hal_flash_ex.c ****   /* Write protection configuration */
 344:../../core/ST/STM32L4xx_HAL_Driver/Src/stm32l4xx_hal_flash_ex.c ****   if((pOBInit->OptionType & OPTIONBYTE_WRP) != 0U)
 345:../../core/ST/STM32L4xx_HAL_Driver/Src/stm32l4xx_hal_flash_ex.c ****   {
 346:../../core/ST/STM32L4xx_HAL_Driver/Src/stm32l4xx_hal_flash_ex.c ****     /* Configure of Write protection on the selected area */
 347:../../core/ST/STM32L4xx_HAL_Driver/Src/stm32l4xx_hal_flash_ex.c ****     if(FLASH_OB_WRPConfig(pOBInit->WRPArea, pOBInit->WRPStartOffset, pOBInit->WRPEndOffset) != HAL_
 348:../../core/ST/STM32L4xx_HAL_Driver/Src/stm32l4xx_hal_flash_ex.c ****     {
 349:../../core/ST/STM32L4xx_HAL_Driver/Src/stm32l4xx_hal_flash_ex.c ****       status = HAL_ERROR;
 350:../../core/ST/STM32L4xx_HAL_Driver/Src/stm32l4xx_hal_flash_ex.c ****     }
 351:../../core/ST/STM32L4xx_HAL_Driver/Src/stm32l4xx_hal_flash_ex.c ****     
 352:../../core/ST/STM32L4xx_HAL_Driver/Src/stm32l4xx_hal_flash_ex.c ****   }
 353:../../core/ST/STM32L4xx_HAL_Driver/Src/stm32l4xx_hal_flash_ex.c ****   
 354:../../core/ST/STM32L4xx_HAL_Driver/Src/stm32l4xx_hal_flash_ex.c ****   /* Read protection configuration */
 355:../../core/ST/STM32L4xx_HAL_Driver/Src/stm32l4xx_hal_flash_ex.c ****   if((pOBInit->OptionType & OPTIONBYTE_RDP) != 0U)
 356:../../core/ST/STM32L4xx_HAL_Driver/Src/stm32l4xx_hal_flash_ex.c ****   {
 357:../../core/ST/STM32L4xx_HAL_Driver/Src/stm32l4xx_hal_flash_ex.c ****     /* Configure the Read protection level */
 358:../../core/ST/STM32L4xx_HAL_Driver/Src/stm32l4xx_hal_flash_ex.c ****     if(FLASH_OB_RDPConfig(pOBInit->RDPLevel) != HAL_OK)
 359:../../core/ST/STM32L4xx_HAL_Driver/Src/stm32l4xx_hal_flash_ex.c ****     {
 360:../../core/ST/STM32L4xx_HAL_Driver/Src/stm32l4xx_hal_flash_ex.c ****       status = HAL_ERROR;
 361:../../core/ST/STM32L4xx_HAL_Driver/Src/stm32l4xx_hal_flash_ex.c ****     }
 362:../../core/ST/STM32L4xx_HAL_Driver/Src/stm32l4xx_hal_flash_ex.c ****   }
 363:../../core/ST/STM32L4xx_HAL_Driver/Src/stm32l4xx_hal_flash_ex.c ****   
 364:../../core/ST/STM32L4xx_HAL_Driver/Src/stm32l4xx_hal_flash_ex.c ****   /* User Configuration */
 365:../../core/ST/STM32L4xx_HAL_Driver/Src/stm32l4xx_hal_flash_ex.c ****   if((pOBInit->OptionType & OPTIONBYTE_USER) != 0U)
 366:../../core/ST/STM32L4xx_HAL_Driver/Src/stm32l4xx_hal_flash_ex.c ****   {
 367:../../core/ST/STM32L4xx_HAL_Driver/Src/stm32l4xx_hal_flash_ex.c ****     /* Configure the user option bytes */
 368:../../core/ST/STM32L4xx_HAL_Driver/Src/stm32l4xx_hal_flash_ex.c ****     if(FLASH_OB_UserConfig(pOBInit->USERType, pOBInit->USERConfig) != HAL_OK)
 369:../../core/ST/STM32L4xx_HAL_Driver/Src/stm32l4xx_hal_flash_ex.c ****     {
 370:../../core/ST/STM32L4xx_HAL_Driver/Src/stm32l4xx_hal_flash_ex.c ****       status = HAL_ERROR;
 371:../../core/ST/STM32L4xx_HAL_Driver/Src/stm32l4xx_hal_flash_ex.c ****     }
 372:../../core/ST/STM32L4xx_HAL_Driver/Src/stm32l4xx_hal_flash_ex.c ****   }
 373:../../core/ST/STM32L4xx_HAL_Driver/Src/stm32l4xx_hal_flash_ex.c ****   
 374:../../core/ST/STM32L4xx_HAL_Driver/Src/stm32l4xx_hal_flash_ex.c ****   /* PCROP Configuration */
ARM GAS  /tmp/ccZN3aKc.s 			page 8


 375:../../core/ST/STM32L4xx_HAL_Driver/Src/stm32l4xx_hal_flash_ex.c ****   if((pOBInit->OptionType & OPTIONBYTE_PCROP) != 0U)
 376:../../core/ST/STM32L4xx_HAL_Driver/Src/stm32l4xx_hal_flash_ex.c ****   {
 377:../../core/ST/STM32L4xx_HAL_Driver/Src/stm32l4xx_hal_flash_ex.c ****     if (pOBInit->PCROPStartAddr != pOBInit->PCROPEndAddr)
 378:../../core/ST/STM32L4xx_HAL_Driver/Src/stm32l4xx_hal_flash_ex.c ****     {
 379:../../core/ST/STM32L4xx_HAL_Driver/Src/stm32l4xx_hal_flash_ex.c ****       /* Configure the Proprietary code readout protection */
 380:../../core/ST/STM32L4xx_HAL_Driver/Src/stm32l4xx_hal_flash_ex.c ****       if(FLASH_OB_PCROPConfig(pOBInit->PCROPConfig, pOBInit->PCROPStartAddr, pOBInit->PCROPEndAddr)
 381:../../core/ST/STM32L4xx_HAL_Driver/Src/stm32l4xx_hal_flash_ex.c ****       {
 382:../../core/ST/STM32L4xx_HAL_Driver/Src/stm32l4xx_hal_flash_ex.c ****         status = HAL_ERROR;
 383:../../core/ST/STM32L4xx_HAL_Driver/Src/stm32l4xx_hal_flash_ex.c ****       }
 384:../../core/ST/STM32L4xx_HAL_Driver/Src/stm32l4xx_hal_flash_ex.c ****     }
 385:../../core/ST/STM32L4xx_HAL_Driver/Src/stm32l4xx_hal_flash_ex.c ****   }
 386:../../core/ST/STM32L4xx_HAL_Driver/Src/stm32l4xx_hal_flash_ex.c **** 
 387:../../core/ST/STM32L4xx_HAL_Driver/Src/stm32l4xx_hal_flash_ex.c ****   /* Process Unlocked */
 388:../../core/ST/STM32L4xx_HAL_Driver/Src/stm32l4xx_hal_flash_ex.c ****   __HAL_UNLOCK(&pFlash);
 389:../../core/ST/STM32L4xx_HAL_Driver/Src/stm32l4xx_hal_flash_ex.c **** 
 390:../../core/ST/STM32L4xx_HAL_Driver/Src/stm32l4xx_hal_flash_ex.c ****   return status;
 391:../../core/ST/STM32L4xx_HAL_Driver/Src/stm32l4xx_hal_flash_ex.c **** }
 392:../../core/ST/STM32L4xx_HAL_Driver/Src/stm32l4xx_hal_flash_ex.c **** 
 393:../../core/ST/STM32L4xx_HAL_Driver/Src/stm32l4xx_hal_flash_ex.c **** /**
 394:../../core/ST/STM32L4xx_HAL_Driver/Src/stm32l4xx_hal_flash_ex.c ****   * @brief  Get the Option bytes configuration.
 395:../../core/ST/STM32L4xx_HAL_Driver/Src/stm32l4xx_hal_flash_ex.c ****   * @param  pOBInit: pointer to an FLASH_OBInitStruct structure that contains the 
 396:../../core/ST/STM32L4xx_HAL_Driver/Src/stm32l4xx_hal_flash_ex.c ****   *                  configuration information.
 397:../../core/ST/STM32L4xx_HAL_Driver/Src/stm32l4xx_hal_flash_ex.c ****   * @note   The fields pOBInit->WRPArea and pOBInit->PCROPConfig should indicate 
 398:../../core/ST/STM32L4xx_HAL_Driver/Src/stm32l4xx_hal_flash_ex.c ****   *         which area is requested for the WRP and PCROP, else no information will be returned
 399:../../core/ST/STM32L4xx_HAL_Driver/Src/stm32l4xx_hal_flash_ex.c ****   * 
 400:../../core/ST/STM32L4xx_HAL_Driver/Src/stm32l4xx_hal_flash_ex.c ****   * @retval None
 401:../../core/ST/STM32L4xx_HAL_Driver/Src/stm32l4xx_hal_flash_ex.c ****   */
 402:../../core/ST/STM32L4xx_HAL_Driver/Src/stm32l4xx_hal_flash_ex.c **** void HAL_FLASHEx_OBGetConfig(FLASH_OBProgramInitTypeDef *pOBInit)
 403:../../core/ST/STM32L4xx_HAL_Driver/Src/stm32l4xx_hal_flash_ex.c **** {
 404:../../core/ST/STM32L4xx_HAL_Driver/Src/stm32l4xx_hal_flash_ex.c ****   pOBInit->OptionType = (OPTIONBYTE_RDP | OPTIONBYTE_USER);
 405:../../core/ST/STM32L4xx_HAL_Driver/Src/stm32l4xx_hal_flash_ex.c **** 
 406:../../core/ST/STM32L4xx_HAL_Driver/Src/stm32l4xx_hal_flash_ex.c **** #if defined (STM32L471xx) || defined (STM32L475xx) || defined (STM32L476xx) || defined (STM32L485xx
 407:../../core/ST/STM32L4xx_HAL_Driver/Src/stm32l4xx_hal_flash_ex.c ****     defined (STM32L496xx) || defined (STM32L4A6xx) || \
 408:../../core/ST/STM32L4xx_HAL_Driver/Src/stm32l4xx_hal_flash_ex.c ****     defined (STM32L4R5xx) || defined (STM32L4R7xx) || defined (STM32L4R9xx) || defined (STM32L4S5xx
 409:../../core/ST/STM32L4xx_HAL_Driver/Src/stm32l4xx_hal_flash_ex.c ****   if((pOBInit->WRPArea == OB_WRPAREA_BANK1_AREAA) || (pOBInit->WRPArea == OB_WRPAREA_BANK1_AREAB) |
 410:../../core/ST/STM32L4xx_HAL_Driver/Src/stm32l4xx_hal_flash_ex.c ****      (pOBInit->WRPArea == OB_WRPAREA_BANK2_AREAA) || (pOBInit->WRPArea == OB_WRPAREA_BANK2_AREAB))
 411:../../core/ST/STM32L4xx_HAL_Driver/Src/stm32l4xx_hal_flash_ex.c **** #else
 412:../../core/ST/STM32L4xx_HAL_Driver/Src/stm32l4xx_hal_flash_ex.c ****   if((pOBInit->WRPArea == OB_WRPAREA_BANK1_AREAA) || (pOBInit->WRPArea == OB_WRPAREA_BANK1_AREAB))
 413:../../core/ST/STM32L4xx_HAL_Driver/Src/stm32l4xx_hal_flash_ex.c **** #endif
 414:../../core/ST/STM32L4xx_HAL_Driver/Src/stm32l4xx_hal_flash_ex.c ****   {
 415:../../core/ST/STM32L4xx_HAL_Driver/Src/stm32l4xx_hal_flash_ex.c ****     pOBInit->OptionType |= OPTIONBYTE_WRP;
 416:../../core/ST/STM32L4xx_HAL_Driver/Src/stm32l4xx_hal_flash_ex.c ****     /* Get write protection on the selected area */
 417:../../core/ST/STM32L4xx_HAL_Driver/Src/stm32l4xx_hal_flash_ex.c ****     FLASH_OB_GetWRP(pOBInit->WRPArea, &(pOBInit->WRPStartOffset), &(pOBInit->WRPEndOffset));
 418:../../core/ST/STM32L4xx_HAL_Driver/Src/stm32l4xx_hal_flash_ex.c ****   }
 419:../../core/ST/STM32L4xx_HAL_Driver/Src/stm32l4xx_hal_flash_ex.c ****   
 420:../../core/ST/STM32L4xx_HAL_Driver/Src/stm32l4xx_hal_flash_ex.c ****   /* Get Read protection level */
 421:../../core/ST/STM32L4xx_HAL_Driver/Src/stm32l4xx_hal_flash_ex.c ****   pOBInit->RDPLevel = FLASH_OB_GetRDP();
 422:../../core/ST/STM32L4xx_HAL_Driver/Src/stm32l4xx_hal_flash_ex.c ****   
 423:../../core/ST/STM32L4xx_HAL_Driver/Src/stm32l4xx_hal_flash_ex.c ****   /* Get the user option bytes */
 424:../../core/ST/STM32L4xx_HAL_Driver/Src/stm32l4xx_hal_flash_ex.c ****   pOBInit->USERConfig = FLASH_OB_GetUser();
 425:../../core/ST/STM32L4xx_HAL_Driver/Src/stm32l4xx_hal_flash_ex.c ****   
 426:../../core/ST/STM32L4xx_HAL_Driver/Src/stm32l4xx_hal_flash_ex.c **** #if defined (STM32L471xx) || defined (STM32L475xx) || defined (STM32L476xx) || defined (STM32L485xx
 427:../../core/ST/STM32L4xx_HAL_Driver/Src/stm32l4xx_hal_flash_ex.c ****     defined (STM32L496xx) || defined (STM32L4A6xx) || \
 428:../../core/ST/STM32L4xx_HAL_Driver/Src/stm32l4xx_hal_flash_ex.c ****     defined (STM32L4R5xx) || defined (STM32L4R7xx) || defined (STM32L4R9xx) || defined (STM32L4S5xx
 429:../../core/ST/STM32L4xx_HAL_Driver/Src/stm32l4xx_hal_flash_ex.c ****   if((pOBInit->PCROPConfig == FLASH_BANK_1) || (pOBInit->PCROPConfig == FLASH_BANK_2))
 430:../../core/ST/STM32L4xx_HAL_Driver/Src/stm32l4xx_hal_flash_ex.c **** #else
 431:../../core/ST/STM32L4xx_HAL_Driver/Src/stm32l4xx_hal_flash_ex.c ****   if(pOBInit->PCROPConfig == FLASH_BANK_1)
ARM GAS  /tmp/ccZN3aKc.s 			page 9


 432:../../core/ST/STM32L4xx_HAL_Driver/Src/stm32l4xx_hal_flash_ex.c **** #endif    
 433:../../core/ST/STM32L4xx_HAL_Driver/Src/stm32l4xx_hal_flash_ex.c ****   {
 434:../../core/ST/STM32L4xx_HAL_Driver/Src/stm32l4xx_hal_flash_ex.c ****     pOBInit->OptionType |= OPTIONBYTE_PCROP;
 435:../../core/ST/STM32L4xx_HAL_Driver/Src/stm32l4xx_hal_flash_ex.c ****     /* Get the Proprietary code readout protection */
 436:../../core/ST/STM32L4xx_HAL_Driver/Src/stm32l4xx_hal_flash_ex.c ****     FLASH_OB_GetPCROP(&(pOBInit->PCROPConfig), &(pOBInit->PCROPStartAddr), &(pOBInit->PCROPEndAddr)
 437:../../core/ST/STM32L4xx_HAL_Driver/Src/stm32l4xx_hal_flash_ex.c ****   }
 438:../../core/ST/STM32L4xx_HAL_Driver/Src/stm32l4xx_hal_flash_ex.c **** }
 439:../../core/ST/STM32L4xx_HAL_Driver/Src/stm32l4xx_hal_flash_ex.c **** 
 440:../../core/ST/STM32L4xx_HAL_Driver/Src/stm32l4xx_hal_flash_ex.c **** /**
 441:../../core/ST/STM32L4xx_HAL_Driver/Src/stm32l4xx_hal_flash_ex.c ****   * @}
 442:../../core/ST/STM32L4xx_HAL_Driver/Src/stm32l4xx_hal_flash_ex.c ****   */ 
 443:../../core/ST/STM32L4xx_HAL_Driver/Src/stm32l4xx_hal_flash_ex.c **** 
 444:../../core/ST/STM32L4xx_HAL_Driver/Src/stm32l4xx_hal_flash_ex.c **** #if defined (FLASH_CFGR_LVEN)
 445:../../core/ST/STM32L4xx_HAL_Driver/Src/stm32l4xx_hal_flash_ex.c **** /** @defgroup FLASHEx_Exported_Functions_Group2 Extended specific configuration functions
 446:../../core/ST/STM32L4xx_HAL_Driver/Src/stm32l4xx_hal_flash_ex.c ****  *  @brief   Extended specific configuration functions
 447:../../core/ST/STM32L4xx_HAL_Driver/Src/stm32l4xx_hal_flash_ex.c ****  *
 448:../../core/ST/STM32L4xx_HAL_Driver/Src/stm32l4xx_hal_flash_ex.c **** @verbatim
 449:../../core/ST/STM32L4xx_HAL_Driver/Src/stm32l4xx_hal_flash_ex.c ****  ===============================================================================
 450:../../core/ST/STM32L4xx_HAL_Driver/Src/stm32l4xx_hal_flash_ex.c ****                 ##### Extended specific configuration functions #####
 451:../../core/ST/STM32L4xx_HAL_Driver/Src/stm32l4xx_hal_flash_ex.c ****  ===============================================================================
 452:../../core/ST/STM32L4xx_HAL_Driver/Src/stm32l4xx_hal_flash_ex.c ****     [..]
 453:../../core/ST/STM32L4xx_HAL_Driver/Src/stm32l4xx_hal_flash_ex.c ****     This subsection provides a set of functions allowing to manage the Extended FLASH
 454:../../core/ST/STM32L4xx_HAL_Driver/Src/stm32l4xx_hal_flash_ex.c ****     specific configurations.
 455:../../core/ST/STM32L4xx_HAL_Driver/Src/stm32l4xx_hal_flash_ex.c **** 
 456:../../core/ST/STM32L4xx_HAL_Driver/Src/stm32l4xx_hal_flash_ex.c **** @endverbatim
 457:../../core/ST/STM32L4xx_HAL_Driver/Src/stm32l4xx_hal_flash_ex.c ****   * @{
 458:../../core/ST/STM32L4xx_HAL_Driver/Src/stm32l4xx_hal_flash_ex.c ****   */
 459:../../core/ST/STM32L4xx_HAL_Driver/Src/stm32l4xx_hal_flash_ex.c **** 
 460:../../core/ST/STM32L4xx_HAL_Driver/Src/stm32l4xx_hal_flash_ex.c **** /**
 461:../../core/ST/STM32L4xx_HAL_Driver/Src/stm32l4xx_hal_flash_ex.c ****   * @brief  Configuration of the LVE pin of the Flash (managed by power controller
 462:../../core/ST/STM32L4xx_HAL_Driver/Src/stm32l4xx_hal_flash_ex.c ****   *         or forced to low in order to use an external SMPS)
 463:../../core/ST/STM32L4xx_HAL_Driver/Src/stm32l4xx_hal_flash_ex.c ****   * @param  ConfigLVE: Configuration of the LVE pin,
 464:../../core/ST/STM32L4xx_HAL_Driver/Src/stm32l4xx_hal_flash_ex.c ****   *              This parameter can be one of the following values:
 465:../../core/ST/STM32L4xx_HAL_Driver/Src/stm32l4xx_hal_flash_ex.c ****   *                @arg FLASH_LVE_PIN_CTRL: LVE FLASH pin controlled by power controller
 466:../../core/ST/STM32L4xx_HAL_Driver/Src/stm32l4xx_hal_flash_ex.c ****   *                @arg FLASH_LVE_PIN_FORCED: LVE FLASH pin enforced to low (external SMPS used)
 467:../../core/ST/STM32L4xx_HAL_Driver/Src/stm32l4xx_hal_flash_ex.c ****   *
 468:../../core/ST/STM32L4xx_HAL_Driver/Src/stm32l4xx_hal_flash_ex.c ****   * @note   Before enforcing the LVE pin to low, the SOC should be in low voltage
 469:../../core/ST/STM32L4xx_HAL_Driver/Src/stm32l4xx_hal_flash_ex.c ****   *         range 2 and the voltage VDD12 should be higher than 1.08V and SMPS is ON.
 470:../../core/ST/STM32L4xx_HAL_Driver/Src/stm32l4xx_hal_flash_ex.c ****   *
 471:../../core/ST/STM32L4xx_HAL_Driver/Src/stm32l4xx_hal_flash_ex.c ****   * @retval HAL Status
 472:../../core/ST/STM32L4xx_HAL_Driver/Src/stm32l4xx_hal_flash_ex.c ****   */
 473:../../core/ST/STM32L4xx_HAL_Driver/Src/stm32l4xx_hal_flash_ex.c **** HAL_StatusTypeDef HAL_FLASHEx_ConfigLVEPin(uint32_t ConfigLVE)
 474:../../core/ST/STM32L4xx_HAL_Driver/Src/stm32l4xx_hal_flash_ex.c **** {
 475:../../core/ST/STM32L4xx_HAL_Driver/Src/stm32l4xx_hal_flash_ex.c ****   HAL_StatusTypeDef status;
 476:../../core/ST/STM32L4xx_HAL_Driver/Src/stm32l4xx_hal_flash_ex.c **** 
 477:../../core/ST/STM32L4xx_HAL_Driver/Src/stm32l4xx_hal_flash_ex.c ****   /* Process Locked */
 478:../../core/ST/STM32L4xx_HAL_Driver/Src/stm32l4xx_hal_flash_ex.c ****   __HAL_LOCK(&pFlash);
 479:../../core/ST/STM32L4xx_HAL_Driver/Src/stm32l4xx_hal_flash_ex.c **** 
 480:../../core/ST/STM32L4xx_HAL_Driver/Src/stm32l4xx_hal_flash_ex.c ****   /* Check the parameters */
 481:../../core/ST/STM32L4xx_HAL_Driver/Src/stm32l4xx_hal_flash_ex.c ****   assert_param(IS_FLASH_LVE_PIN(ConfigLVE));
 482:../../core/ST/STM32L4xx_HAL_Driver/Src/stm32l4xx_hal_flash_ex.c **** 
 483:../../core/ST/STM32L4xx_HAL_Driver/Src/stm32l4xx_hal_flash_ex.c ****   /* Wait for last operation to be completed */
 484:../../core/ST/STM32L4xx_HAL_Driver/Src/stm32l4xx_hal_flash_ex.c ****   status = FLASH_WaitForLastOperation((uint32_t)FLASH_TIMEOUT_VALUE);
 485:../../core/ST/STM32L4xx_HAL_Driver/Src/stm32l4xx_hal_flash_ex.c **** 
 486:../../core/ST/STM32L4xx_HAL_Driver/Src/stm32l4xx_hal_flash_ex.c ****   if (status == HAL_OK)
 487:../../core/ST/STM32L4xx_HAL_Driver/Src/stm32l4xx_hal_flash_ex.c ****   {
 488:../../core/ST/STM32L4xx_HAL_Driver/Src/stm32l4xx_hal_flash_ex.c ****     /* Check that the voltage scaling is range 2 */
ARM GAS  /tmp/ccZN3aKc.s 			page 10


 489:../../core/ST/STM32L4xx_HAL_Driver/Src/stm32l4xx_hal_flash_ex.c ****     if (HAL_PWREx_GetVoltageRange() == PWR_REGULATOR_VOLTAGE_SCALE2)
 490:../../core/ST/STM32L4xx_HAL_Driver/Src/stm32l4xx_hal_flash_ex.c ****     {
 491:../../core/ST/STM32L4xx_HAL_Driver/Src/stm32l4xx_hal_flash_ex.c ****       /* Configure the LVEN bit */
 492:../../core/ST/STM32L4xx_HAL_Driver/Src/stm32l4xx_hal_flash_ex.c ****       MODIFY_REG(FLASH->CFGR, FLASH_CFGR_LVEN, ConfigLVE);
 493:../../core/ST/STM32L4xx_HAL_Driver/Src/stm32l4xx_hal_flash_ex.c ****  
 494:../../core/ST/STM32L4xx_HAL_Driver/Src/stm32l4xx_hal_flash_ex.c ****       /* Check that the bit has been correctly configured */
 495:../../core/ST/STM32L4xx_HAL_Driver/Src/stm32l4xx_hal_flash_ex.c ****       if (READ_BIT(FLASH->CFGR, FLASH_CFGR_LVEN) != ConfigLVE)
 496:../../core/ST/STM32L4xx_HAL_Driver/Src/stm32l4xx_hal_flash_ex.c ****       {
 497:../../core/ST/STM32L4xx_HAL_Driver/Src/stm32l4xx_hal_flash_ex.c ****         status = HAL_ERROR;
 498:../../core/ST/STM32L4xx_HAL_Driver/Src/stm32l4xx_hal_flash_ex.c ****       }
 499:../../core/ST/STM32L4xx_HAL_Driver/Src/stm32l4xx_hal_flash_ex.c ****     }
 500:../../core/ST/STM32L4xx_HAL_Driver/Src/stm32l4xx_hal_flash_ex.c ****     else
 501:../../core/ST/STM32L4xx_HAL_Driver/Src/stm32l4xx_hal_flash_ex.c ****     {
 502:../../core/ST/STM32L4xx_HAL_Driver/Src/stm32l4xx_hal_flash_ex.c ****       /* Not allow to force Flash LVE pin if not in voltage range 2 */
 503:../../core/ST/STM32L4xx_HAL_Driver/Src/stm32l4xx_hal_flash_ex.c ****       status = HAL_ERROR;
 504:../../core/ST/STM32L4xx_HAL_Driver/Src/stm32l4xx_hal_flash_ex.c ****     }
 505:../../core/ST/STM32L4xx_HAL_Driver/Src/stm32l4xx_hal_flash_ex.c ****   }
 506:../../core/ST/STM32L4xx_HAL_Driver/Src/stm32l4xx_hal_flash_ex.c **** 
 507:../../core/ST/STM32L4xx_HAL_Driver/Src/stm32l4xx_hal_flash_ex.c ****   /* Process Unlocked */
 508:../../core/ST/STM32L4xx_HAL_Driver/Src/stm32l4xx_hal_flash_ex.c ****   __HAL_UNLOCK(&pFlash);
 509:../../core/ST/STM32L4xx_HAL_Driver/Src/stm32l4xx_hal_flash_ex.c **** 
 510:../../core/ST/STM32L4xx_HAL_Driver/Src/stm32l4xx_hal_flash_ex.c ****   return status;
 511:../../core/ST/STM32L4xx_HAL_Driver/Src/stm32l4xx_hal_flash_ex.c **** }
 512:../../core/ST/STM32L4xx_HAL_Driver/Src/stm32l4xx_hal_flash_ex.c **** 
 513:../../core/ST/STM32L4xx_HAL_Driver/Src/stm32l4xx_hal_flash_ex.c **** /**
 514:../../core/ST/STM32L4xx_HAL_Driver/Src/stm32l4xx_hal_flash_ex.c ****   * @}
 515:../../core/ST/STM32L4xx_HAL_Driver/Src/stm32l4xx_hal_flash_ex.c ****   */
 516:../../core/ST/STM32L4xx_HAL_Driver/Src/stm32l4xx_hal_flash_ex.c **** #endif /* FLASH_CFGR_LVEN */
 517:../../core/ST/STM32L4xx_HAL_Driver/Src/stm32l4xx_hal_flash_ex.c **** 
 518:../../core/ST/STM32L4xx_HAL_Driver/Src/stm32l4xx_hal_flash_ex.c **** /**
 519:../../core/ST/STM32L4xx_HAL_Driver/Src/stm32l4xx_hal_flash_ex.c ****   * @}
 520:../../core/ST/STM32L4xx_HAL_Driver/Src/stm32l4xx_hal_flash_ex.c ****   */
 521:../../core/ST/STM32L4xx_HAL_Driver/Src/stm32l4xx_hal_flash_ex.c **** 
 522:../../core/ST/STM32L4xx_HAL_Driver/Src/stm32l4xx_hal_flash_ex.c **** /* Private functions ---------------------------------------------------------*/
 523:../../core/ST/STM32L4xx_HAL_Driver/Src/stm32l4xx_hal_flash_ex.c **** 
 524:../../core/ST/STM32L4xx_HAL_Driver/Src/stm32l4xx_hal_flash_ex.c **** /** @addtogroup FLASHEx_Private_Functions
 525:../../core/ST/STM32L4xx_HAL_Driver/Src/stm32l4xx_hal_flash_ex.c ****   * @{
 526:../../core/ST/STM32L4xx_HAL_Driver/Src/stm32l4xx_hal_flash_ex.c ****   */
 527:../../core/ST/STM32L4xx_HAL_Driver/Src/stm32l4xx_hal_flash_ex.c **** /**
 528:../../core/ST/STM32L4xx_HAL_Driver/Src/stm32l4xx_hal_flash_ex.c ****   * @brief  Mass erase of FLASH memory.
 529:../../core/ST/STM32L4xx_HAL_Driver/Src/stm32l4xx_hal_flash_ex.c ****   * @param  Banks: Banks to be erased
 530:../../core/ST/STM32L4xx_HAL_Driver/Src/stm32l4xx_hal_flash_ex.c ****   *          This parameter can be one of the following values:
 531:../../core/ST/STM32L4xx_HAL_Driver/Src/stm32l4xx_hal_flash_ex.c ****   *            @arg FLASH_BANK_1: Bank1 to be erased
 532:../../core/ST/STM32L4xx_HAL_Driver/Src/stm32l4xx_hal_flash_ex.c ****   *            @arg FLASH_BANK_2: Bank2 to be erased
 533:../../core/ST/STM32L4xx_HAL_Driver/Src/stm32l4xx_hal_flash_ex.c ****   *            @arg FLASH_BANK_BOTH: Bank1 and Bank2 to be erased
 534:../../core/ST/STM32L4xx_HAL_Driver/Src/stm32l4xx_hal_flash_ex.c ****   * @retval None
 535:../../core/ST/STM32L4xx_HAL_Driver/Src/stm32l4xx_hal_flash_ex.c ****   */
 536:../../core/ST/STM32L4xx_HAL_Driver/Src/stm32l4xx_hal_flash_ex.c **** static void FLASH_MassErase(uint32_t Banks)
 537:../../core/ST/STM32L4xx_HAL_Driver/Src/stm32l4xx_hal_flash_ex.c **** {
  27              		.loc 1 537 0
  28              		.cfi_startproc
  29              		@ args = 0, pretend = 0, frame = 0
  30              		@ frame_needed = 0, uses_anonymous_args = 0
  31              		@ link register save eliminated.
  32              	.LVL0:
 538:../../core/ST/STM32L4xx_HAL_Driver/Src/stm32l4xx_hal_flash_ex.c **** #if defined (STM32L4R5xx) || defined (STM32L4R7xx) || defined (STM32L4R9xx) || defined (STM32L4S5xx
 539:../../core/ST/STM32L4xx_HAL_Driver/Src/stm32l4xx_hal_flash_ex.c ****   if (READ_BIT(FLASH->OPTR, FLASH_OPTR_DBANK) != 0U)
ARM GAS  /tmp/ccZN3aKc.s 			page 11


 540:../../core/ST/STM32L4xx_HAL_Driver/Src/stm32l4xx_hal_flash_ex.c **** #endif
 541:../../core/ST/STM32L4xx_HAL_Driver/Src/stm32l4xx_hal_flash_ex.c ****   {
 542:../../core/ST/STM32L4xx_HAL_Driver/Src/stm32l4xx_hal_flash_ex.c ****     /* Check the parameters */
 543:../../core/ST/STM32L4xx_HAL_Driver/Src/stm32l4xx_hal_flash_ex.c ****     assert_param(IS_FLASH_BANK(Banks));
 544:../../core/ST/STM32L4xx_HAL_Driver/Src/stm32l4xx_hal_flash_ex.c **** 
 545:../../core/ST/STM32L4xx_HAL_Driver/Src/stm32l4xx_hal_flash_ex.c ****     /* Set the Mass Erase Bit for the bank 1 if requested */
 546:../../core/ST/STM32L4xx_HAL_Driver/Src/stm32l4xx_hal_flash_ex.c ****     if((Banks & FLASH_BANK_1) != 0U)
  33              		.loc 1 546 0
  34 0000 10F0010F 		tst	r0, #1
  35 0004 04D0     		beq	.L2
 547:../../core/ST/STM32L4xx_HAL_Driver/Src/stm32l4xx_hal_flash_ex.c ****     {
 548:../../core/ST/STM32L4xx_HAL_Driver/Src/stm32l4xx_hal_flash_ex.c ****       SET_BIT(FLASH->CR, FLASH_CR_MER1);
  36              		.loc 1 548 0
  37 0006 094A     		ldr	r2, .L4
  38 0008 5369     		ldr	r3, [r2, #20]
  39 000a 43F00403 		orr	r3, r3, #4
  40 000e 5361     		str	r3, [r2, #20]
  41              	.L2:
 549:../../core/ST/STM32L4xx_HAL_Driver/Src/stm32l4xx_hal_flash_ex.c ****     }
 550:../../core/ST/STM32L4xx_HAL_Driver/Src/stm32l4xx_hal_flash_ex.c ****     
 551:../../core/ST/STM32L4xx_HAL_Driver/Src/stm32l4xx_hal_flash_ex.c **** #if defined (STM32L471xx) || defined (STM32L475xx) || defined (STM32L476xx) || defined (STM32L485xx
 552:../../core/ST/STM32L4xx_HAL_Driver/Src/stm32l4xx_hal_flash_ex.c ****     defined (STM32L496xx) || defined (STM32L4A6xx) || \
 553:../../core/ST/STM32L4xx_HAL_Driver/Src/stm32l4xx_hal_flash_ex.c ****     defined (STM32L4R5xx) || defined (STM32L4R7xx) || defined (STM32L4R9xx) || defined (STM32L4S5xx
 554:../../core/ST/STM32L4xx_HAL_Driver/Src/stm32l4xx_hal_flash_ex.c ****     /* Set the Mass Erase Bit for the bank 2 if requested */
 555:../../core/ST/STM32L4xx_HAL_Driver/Src/stm32l4xx_hal_flash_ex.c ****     if((Banks & FLASH_BANK_2) != 0U)
  42              		.loc 1 555 0
  43 0010 10F0020F 		tst	r0, #2
  44 0014 04D0     		beq	.L3
 556:../../core/ST/STM32L4xx_HAL_Driver/Src/stm32l4xx_hal_flash_ex.c ****     {
 557:../../core/ST/STM32L4xx_HAL_Driver/Src/stm32l4xx_hal_flash_ex.c ****       SET_BIT(FLASH->CR, FLASH_CR_MER2);
  45              		.loc 1 557 0
  46 0016 054A     		ldr	r2, .L4
  47 0018 5369     		ldr	r3, [r2, #20]
  48 001a 43F40043 		orr	r3, r3, #32768
  49 001e 5361     		str	r3, [r2, #20]
  50              	.L3:
 558:../../core/ST/STM32L4xx_HAL_Driver/Src/stm32l4xx_hal_flash_ex.c ****     }
 559:../../core/ST/STM32L4xx_HAL_Driver/Src/stm32l4xx_hal_flash_ex.c **** #endif
 560:../../core/ST/STM32L4xx_HAL_Driver/Src/stm32l4xx_hal_flash_ex.c ****   }
 561:../../core/ST/STM32L4xx_HAL_Driver/Src/stm32l4xx_hal_flash_ex.c **** #if defined (STM32L4R5xx) || defined (STM32L4R7xx) || defined (STM32L4R9xx) || defined (STM32L4S5xx
 562:../../core/ST/STM32L4xx_HAL_Driver/Src/stm32l4xx_hal_flash_ex.c ****   else
 563:../../core/ST/STM32L4xx_HAL_Driver/Src/stm32l4xx_hal_flash_ex.c ****   {
 564:../../core/ST/STM32L4xx_HAL_Driver/Src/stm32l4xx_hal_flash_ex.c ****     SET_BIT(FLASH->CR, (FLASH_CR_MER1 | FLASH_CR_MER2));
 565:../../core/ST/STM32L4xx_HAL_Driver/Src/stm32l4xx_hal_flash_ex.c ****   }
 566:../../core/ST/STM32L4xx_HAL_Driver/Src/stm32l4xx_hal_flash_ex.c **** #endif
 567:../../core/ST/STM32L4xx_HAL_Driver/Src/stm32l4xx_hal_flash_ex.c **** 
 568:../../core/ST/STM32L4xx_HAL_Driver/Src/stm32l4xx_hal_flash_ex.c ****   /* Proceed to erase all sectors */
 569:../../core/ST/STM32L4xx_HAL_Driver/Src/stm32l4xx_hal_flash_ex.c ****   SET_BIT(FLASH->CR, FLASH_CR_STRT);
  51              		.loc 1 569 0
  52 0020 024A     		ldr	r2, .L4
  53 0022 5369     		ldr	r3, [r2, #20]
  54 0024 43F48033 		orr	r3, r3, #65536
  55 0028 5361     		str	r3, [r2, #20]
 570:../../core/ST/STM32L4xx_HAL_Driver/Src/stm32l4xx_hal_flash_ex.c **** }
  56              		.loc 1 570 0
  57 002a 7047     		bx	lr
  58              	.L5:
ARM GAS  /tmp/ccZN3aKc.s 			page 12


  59              		.align	2
  60              	.L4:
  61 002c 00200240 		.word	1073881088
  62              		.cfi_endproc
  63              	.LFE127:
  65              		.section	.text.FLASH_OB_GetWRP,"ax",%progbits
  66              		.align	1
  67              		.syntax unified
  68              		.thumb
  69              		.thumb_func
  70              		.fpu fpv4-sp-d16
  72              	FLASH_OB_GetWRP:
  73              	.LFB134:
 571:../../core/ST/STM32L4xx_HAL_Driver/Src/stm32l4xx_hal_flash_ex.c **** 
 572:../../core/ST/STM32L4xx_HAL_Driver/Src/stm32l4xx_hal_flash_ex.c **** /**
 573:../../core/ST/STM32L4xx_HAL_Driver/Src/stm32l4xx_hal_flash_ex.c ****   * @brief  Erase the specified FLASH memory page.
 574:../../core/ST/STM32L4xx_HAL_Driver/Src/stm32l4xx_hal_flash_ex.c ****   * @param  Page: FLASH page to erase
 575:../../core/ST/STM32L4xx_HAL_Driver/Src/stm32l4xx_hal_flash_ex.c ****   *         This parameter must be a value between 0 and (max number of pages in the bank - 1)     
 576:../../core/ST/STM32L4xx_HAL_Driver/Src/stm32l4xx_hal_flash_ex.c ****   * @param  Banks: Bank(s) where the page will be erased
 577:../../core/ST/STM32L4xx_HAL_Driver/Src/stm32l4xx_hal_flash_ex.c ****   *          This parameter can be one of the following values:
 578:../../core/ST/STM32L4xx_HAL_Driver/Src/stm32l4xx_hal_flash_ex.c ****   *            @arg FLASH_BANK_1: Page in bank 1 to be erased
 579:../../core/ST/STM32L4xx_HAL_Driver/Src/stm32l4xx_hal_flash_ex.c ****   *            @arg FLASH_BANK_2: Page in bank 2 to be erased
 580:../../core/ST/STM32L4xx_HAL_Driver/Src/stm32l4xx_hal_flash_ex.c ****   * @retval None
 581:../../core/ST/STM32L4xx_HAL_Driver/Src/stm32l4xx_hal_flash_ex.c ****   */
 582:../../core/ST/STM32L4xx_HAL_Driver/Src/stm32l4xx_hal_flash_ex.c **** void FLASH_PageErase(uint32_t Page, uint32_t Banks)
 583:../../core/ST/STM32L4xx_HAL_Driver/Src/stm32l4xx_hal_flash_ex.c **** {
 584:../../core/ST/STM32L4xx_HAL_Driver/Src/stm32l4xx_hal_flash_ex.c ****   /* Check the parameters */
 585:../../core/ST/STM32L4xx_HAL_Driver/Src/stm32l4xx_hal_flash_ex.c ****   assert_param(IS_FLASH_PAGE(Page));
 586:../../core/ST/STM32L4xx_HAL_Driver/Src/stm32l4xx_hal_flash_ex.c **** 
 587:../../core/ST/STM32L4xx_HAL_Driver/Src/stm32l4xx_hal_flash_ex.c **** #if defined (STM32L471xx) || defined (STM32L475xx) || defined (STM32L476xx) || defined (STM32L485xx
 588:../../core/ST/STM32L4xx_HAL_Driver/Src/stm32l4xx_hal_flash_ex.c ****     defined (STM32L496xx) || defined (STM32L4A6xx) || \
 589:../../core/ST/STM32L4xx_HAL_Driver/Src/stm32l4xx_hal_flash_ex.c ****     defined (STM32L4R5xx) || defined (STM32L4R7xx) || defined (STM32L4R9xx) || defined (STM32L4S5xx
 590:../../core/ST/STM32L4xx_HAL_Driver/Src/stm32l4xx_hal_flash_ex.c **** #if defined (STM32L4R5xx) || defined (STM32L4R7xx) || defined (STM32L4R9xx) || defined (STM32L4S5xx
 591:../../core/ST/STM32L4xx_HAL_Driver/Src/stm32l4xx_hal_flash_ex.c ****   if(READ_BIT(FLASH->OPTR, FLASH_OPTR_DBANK) == 0U)
 592:../../core/ST/STM32L4xx_HAL_Driver/Src/stm32l4xx_hal_flash_ex.c ****   {
 593:../../core/ST/STM32L4xx_HAL_Driver/Src/stm32l4xx_hal_flash_ex.c ****     CLEAR_BIT(FLASH->CR, FLASH_CR_BKER);
 594:../../core/ST/STM32L4xx_HAL_Driver/Src/stm32l4xx_hal_flash_ex.c ****   }
 595:../../core/ST/STM32L4xx_HAL_Driver/Src/stm32l4xx_hal_flash_ex.c ****   else
 596:../../core/ST/STM32L4xx_HAL_Driver/Src/stm32l4xx_hal_flash_ex.c **** #endif
 597:../../core/ST/STM32L4xx_HAL_Driver/Src/stm32l4xx_hal_flash_ex.c ****   {
 598:../../core/ST/STM32L4xx_HAL_Driver/Src/stm32l4xx_hal_flash_ex.c ****     assert_param(IS_FLASH_BANK_EXCLUSIVE(Banks));
 599:../../core/ST/STM32L4xx_HAL_Driver/Src/stm32l4xx_hal_flash_ex.c **** 
 600:../../core/ST/STM32L4xx_HAL_Driver/Src/stm32l4xx_hal_flash_ex.c ****     if((Banks & FLASH_BANK_1) != 0U)
 601:../../core/ST/STM32L4xx_HAL_Driver/Src/stm32l4xx_hal_flash_ex.c ****     {
 602:../../core/ST/STM32L4xx_HAL_Driver/Src/stm32l4xx_hal_flash_ex.c ****       CLEAR_BIT(FLASH->CR, FLASH_CR_BKER);
 603:../../core/ST/STM32L4xx_HAL_Driver/Src/stm32l4xx_hal_flash_ex.c ****     }
 604:../../core/ST/STM32L4xx_HAL_Driver/Src/stm32l4xx_hal_flash_ex.c ****     else
 605:../../core/ST/STM32L4xx_HAL_Driver/Src/stm32l4xx_hal_flash_ex.c ****     {
 606:../../core/ST/STM32L4xx_HAL_Driver/Src/stm32l4xx_hal_flash_ex.c ****       SET_BIT(FLASH->CR, FLASH_CR_BKER);
 607:../../core/ST/STM32L4xx_HAL_Driver/Src/stm32l4xx_hal_flash_ex.c ****     }
 608:../../core/ST/STM32L4xx_HAL_Driver/Src/stm32l4xx_hal_flash_ex.c ****   }
 609:../../core/ST/STM32L4xx_HAL_Driver/Src/stm32l4xx_hal_flash_ex.c **** #else
 610:../../core/ST/STM32L4xx_HAL_Driver/Src/stm32l4xx_hal_flash_ex.c ****   /* Prevent unused argument(s) compilation warning */
 611:../../core/ST/STM32L4xx_HAL_Driver/Src/stm32l4xx_hal_flash_ex.c ****   UNUSED(Banks);
 612:../../core/ST/STM32L4xx_HAL_Driver/Src/stm32l4xx_hal_flash_ex.c **** #endif
 613:../../core/ST/STM32L4xx_HAL_Driver/Src/stm32l4xx_hal_flash_ex.c **** 
 614:../../core/ST/STM32L4xx_HAL_Driver/Src/stm32l4xx_hal_flash_ex.c ****   /* Proceed to erase the page */
ARM GAS  /tmp/ccZN3aKc.s 			page 13


 615:../../core/ST/STM32L4xx_HAL_Driver/Src/stm32l4xx_hal_flash_ex.c ****   MODIFY_REG(FLASH->CR, FLASH_CR_PNB, ((Page & 0xFFU) << FLASH_CR_PNB_Pos));
 616:../../core/ST/STM32L4xx_HAL_Driver/Src/stm32l4xx_hal_flash_ex.c ****   SET_BIT(FLASH->CR, FLASH_CR_PER);
 617:../../core/ST/STM32L4xx_HAL_Driver/Src/stm32l4xx_hal_flash_ex.c ****   SET_BIT(FLASH->CR, FLASH_CR_STRT);
 618:../../core/ST/STM32L4xx_HAL_Driver/Src/stm32l4xx_hal_flash_ex.c **** }
 619:../../core/ST/STM32L4xx_HAL_Driver/Src/stm32l4xx_hal_flash_ex.c **** 
 620:../../core/ST/STM32L4xx_HAL_Driver/Src/stm32l4xx_hal_flash_ex.c **** /**
 621:../../core/ST/STM32L4xx_HAL_Driver/Src/stm32l4xx_hal_flash_ex.c ****   * @brief  Flush the instruction and data caches.
 622:../../core/ST/STM32L4xx_HAL_Driver/Src/stm32l4xx_hal_flash_ex.c ****   * @retval None
 623:../../core/ST/STM32L4xx_HAL_Driver/Src/stm32l4xx_hal_flash_ex.c ****   */
 624:../../core/ST/STM32L4xx_HAL_Driver/Src/stm32l4xx_hal_flash_ex.c **** void FLASH_FlushCaches(void)
 625:../../core/ST/STM32L4xx_HAL_Driver/Src/stm32l4xx_hal_flash_ex.c **** {
 626:../../core/ST/STM32L4xx_HAL_Driver/Src/stm32l4xx_hal_flash_ex.c ****   FLASH_CacheTypeDef cache = pFlash.CacheToReactivate;
 627:../../core/ST/STM32L4xx_HAL_Driver/Src/stm32l4xx_hal_flash_ex.c **** 
 628:../../core/ST/STM32L4xx_HAL_Driver/Src/stm32l4xx_hal_flash_ex.c ****   /* Flush instruction cache  */
 629:../../core/ST/STM32L4xx_HAL_Driver/Src/stm32l4xx_hal_flash_ex.c ****   if((cache == FLASH_CACHE_ICACHE_ENABLED) || 
 630:../../core/ST/STM32L4xx_HAL_Driver/Src/stm32l4xx_hal_flash_ex.c ****      (cache == FLASH_CACHE_ICACHE_DCACHE_ENABLED))
 631:../../core/ST/STM32L4xx_HAL_Driver/Src/stm32l4xx_hal_flash_ex.c ****   {
 632:../../core/ST/STM32L4xx_HAL_Driver/Src/stm32l4xx_hal_flash_ex.c ****     /* Reset instruction cache */
 633:../../core/ST/STM32L4xx_HAL_Driver/Src/stm32l4xx_hal_flash_ex.c ****     __HAL_FLASH_INSTRUCTION_CACHE_RESET();
 634:../../core/ST/STM32L4xx_HAL_Driver/Src/stm32l4xx_hal_flash_ex.c ****     /* Enable instruction cache */
 635:../../core/ST/STM32L4xx_HAL_Driver/Src/stm32l4xx_hal_flash_ex.c ****     __HAL_FLASH_INSTRUCTION_CACHE_ENABLE();
 636:../../core/ST/STM32L4xx_HAL_Driver/Src/stm32l4xx_hal_flash_ex.c ****   }
 637:../../core/ST/STM32L4xx_HAL_Driver/Src/stm32l4xx_hal_flash_ex.c ****   
 638:../../core/ST/STM32L4xx_HAL_Driver/Src/stm32l4xx_hal_flash_ex.c ****   /* Flush data cache */
 639:../../core/ST/STM32L4xx_HAL_Driver/Src/stm32l4xx_hal_flash_ex.c ****   if((cache == FLASH_CACHE_DCACHE_ENABLED) || 
 640:../../core/ST/STM32L4xx_HAL_Driver/Src/stm32l4xx_hal_flash_ex.c ****      (cache == FLASH_CACHE_ICACHE_DCACHE_ENABLED))
 641:../../core/ST/STM32L4xx_HAL_Driver/Src/stm32l4xx_hal_flash_ex.c ****   {
 642:../../core/ST/STM32L4xx_HAL_Driver/Src/stm32l4xx_hal_flash_ex.c ****     /* Reset data cache */
 643:../../core/ST/STM32L4xx_HAL_Driver/Src/stm32l4xx_hal_flash_ex.c ****     __HAL_FLASH_DATA_CACHE_RESET();
 644:../../core/ST/STM32L4xx_HAL_Driver/Src/stm32l4xx_hal_flash_ex.c ****     /* Enable data cache */
 645:../../core/ST/STM32L4xx_HAL_Driver/Src/stm32l4xx_hal_flash_ex.c ****     __HAL_FLASH_DATA_CACHE_ENABLE();
 646:../../core/ST/STM32L4xx_HAL_Driver/Src/stm32l4xx_hal_flash_ex.c ****   }
 647:../../core/ST/STM32L4xx_HAL_Driver/Src/stm32l4xx_hal_flash_ex.c ****   
 648:../../core/ST/STM32L4xx_HAL_Driver/Src/stm32l4xx_hal_flash_ex.c ****   /* Reset internal variable */
 649:../../core/ST/STM32L4xx_HAL_Driver/Src/stm32l4xx_hal_flash_ex.c ****   pFlash.CacheToReactivate = FLASH_CACHE_DISABLED;
 650:../../core/ST/STM32L4xx_HAL_Driver/Src/stm32l4xx_hal_flash_ex.c **** }
 651:../../core/ST/STM32L4xx_HAL_Driver/Src/stm32l4xx_hal_flash_ex.c **** 
 652:../../core/ST/STM32L4xx_HAL_Driver/Src/stm32l4xx_hal_flash_ex.c **** /**
 653:../../core/ST/STM32L4xx_HAL_Driver/Src/stm32l4xx_hal_flash_ex.c ****   * @brief  Configure the write protection of the desired pages.
 654:../../core/ST/STM32L4xx_HAL_Driver/Src/stm32l4xx_hal_flash_ex.c ****   *
 655:../../core/ST/STM32L4xx_HAL_Driver/Src/stm32l4xx_hal_flash_ex.c ****   * @note   When the memory read protection level is selected (RDP level = 1), 
 656:../../core/ST/STM32L4xx_HAL_Driver/Src/stm32l4xx_hal_flash_ex.c ****   *         it is not possible to program or erase Flash memory if the CPU debug 
 657:../../core/ST/STM32L4xx_HAL_Driver/Src/stm32l4xx_hal_flash_ex.c ****   *         features are connected (JTAG or single wire) or boot code is being 
 658:../../core/ST/STM32L4xx_HAL_Driver/Src/stm32l4xx_hal_flash_ex.c ****   *         executed from RAM or System flash, even if WRP is not activated. 
 659:../../core/ST/STM32L4xx_HAL_Driver/Src/stm32l4xx_hal_flash_ex.c ****   * @note   To configure the WRP options, the option lock bit OPTLOCK must be 
 660:../../core/ST/STM32L4xx_HAL_Driver/Src/stm32l4xx_hal_flash_ex.c ****   *         cleared with the call of the HAL_FLASH_OB_Unlock() function.
 661:../../core/ST/STM32L4xx_HAL_Driver/Src/stm32l4xx_hal_flash_ex.c ****   * @note   To validate the WRP options, the option bytes must be reloaded 
 662:../../core/ST/STM32L4xx_HAL_Driver/Src/stm32l4xx_hal_flash_ex.c ****   *         through the call of the HAL_FLASH_OB_Launch() function.
 663:../../core/ST/STM32L4xx_HAL_Driver/Src/stm32l4xx_hal_flash_ex.c ****   *
 664:../../core/ST/STM32L4xx_HAL_Driver/Src/stm32l4xx_hal_flash_ex.c ****   * @param  WRPArea: specifies the area to be configured.
 665:../../core/ST/STM32L4xx_HAL_Driver/Src/stm32l4xx_hal_flash_ex.c ****   *          This parameter can be one of the following values:
 666:../../core/ST/STM32L4xx_HAL_Driver/Src/stm32l4xx_hal_flash_ex.c ****   *            @arg OB_WRPAREA_BANK1_AREAA: Flash Bank 1 Area A                      
 667:../../core/ST/STM32L4xx_HAL_Driver/Src/stm32l4xx_hal_flash_ex.c ****   *            @arg OB_WRPAREA_BANK1_AREAB: Flash Bank 1 Area B                      
 668:../../core/ST/STM32L4xx_HAL_Driver/Src/stm32l4xx_hal_flash_ex.c ****   *            @arg OB_WRPAREA_BANK2_AREAA: Flash Bank 2 Area A  (don't apply for STM32L43x/STM32L4
 669:../../core/ST/STM32L4xx_HAL_Driver/Src/stm32l4xx_hal_flash_ex.c ****   *            @arg OB_WRPAREA_BANK2_AREAB: Flash Bank 2 Area B  (don't apply for STM32L43x/STM32L4
 670:../../core/ST/STM32L4xx_HAL_Driver/Src/stm32l4xx_hal_flash_ex.c ****   *
 671:../../core/ST/STM32L4xx_HAL_Driver/Src/stm32l4xx_hal_flash_ex.c ****   * @param  WRPStartOffset: specifies the start page of the write protected area
ARM GAS  /tmp/ccZN3aKc.s 			page 14


 672:../../core/ST/STM32L4xx_HAL_Driver/Src/stm32l4xx_hal_flash_ex.c ****   *          This parameter can be page number between 0 and (max number of pages in the bank - 1) 
 673:../../core/ST/STM32L4xx_HAL_Driver/Src/stm32l4xx_hal_flash_ex.c ****   *
 674:../../core/ST/STM32L4xx_HAL_Driver/Src/stm32l4xx_hal_flash_ex.c ****   * @param  WRDPEndOffset: specifies the end page of the write protected area
 675:../../core/ST/STM32L4xx_HAL_Driver/Src/stm32l4xx_hal_flash_ex.c ****   *          This parameter can be page number between WRPStartOffset and (max number of pages in t
 676:../../core/ST/STM32L4xx_HAL_Driver/Src/stm32l4xx_hal_flash_ex.c ****   *
 677:../../core/ST/STM32L4xx_HAL_Driver/Src/stm32l4xx_hal_flash_ex.c ****   * @retval HAL Status
 678:../../core/ST/STM32L4xx_HAL_Driver/Src/stm32l4xx_hal_flash_ex.c ****   */
 679:../../core/ST/STM32L4xx_HAL_Driver/Src/stm32l4xx_hal_flash_ex.c **** static HAL_StatusTypeDef FLASH_OB_WRPConfig(uint32_t WRPArea, uint32_t WRPStartOffset, uint32_t WRD
 680:../../core/ST/STM32L4xx_HAL_Driver/Src/stm32l4xx_hal_flash_ex.c **** {
 681:../../core/ST/STM32L4xx_HAL_Driver/Src/stm32l4xx_hal_flash_ex.c ****   HAL_StatusTypeDef status;
 682:../../core/ST/STM32L4xx_HAL_Driver/Src/stm32l4xx_hal_flash_ex.c **** 
 683:../../core/ST/STM32L4xx_HAL_Driver/Src/stm32l4xx_hal_flash_ex.c ****   /* Check the parameters */
 684:../../core/ST/STM32L4xx_HAL_Driver/Src/stm32l4xx_hal_flash_ex.c ****   assert_param(IS_OB_WRPAREA(WRPArea));
 685:../../core/ST/STM32L4xx_HAL_Driver/Src/stm32l4xx_hal_flash_ex.c ****   assert_param(IS_FLASH_PAGE(WRPStartOffset));
 686:../../core/ST/STM32L4xx_HAL_Driver/Src/stm32l4xx_hal_flash_ex.c ****   assert_param(IS_FLASH_PAGE(WRDPEndOffset));
 687:../../core/ST/STM32L4xx_HAL_Driver/Src/stm32l4xx_hal_flash_ex.c **** 
 688:../../core/ST/STM32L4xx_HAL_Driver/Src/stm32l4xx_hal_flash_ex.c ****   /* Wait for last operation to be completed */
 689:../../core/ST/STM32L4xx_HAL_Driver/Src/stm32l4xx_hal_flash_ex.c ****   status = FLASH_WaitForLastOperation((uint32_t)FLASH_TIMEOUT_VALUE);
 690:../../core/ST/STM32L4xx_HAL_Driver/Src/stm32l4xx_hal_flash_ex.c **** 
 691:../../core/ST/STM32L4xx_HAL_Driver/Src/stm32l4xx_hal_flash_ex.c ****   if(status == HAL_OK)
 692:../../core/ST/STM32L4xx_HAL_Driver/Src/stm32l4xx_hal_flash_ex.c ****   {
 693:../../core/ST/STM32L4xx_HAL_Driver/Src/stm32l4xx_hal_flash_ex.c ****     /* Configure the write protected area */
 694:../../core/ST/STM32L4xx_HAL_Driver/Src/stm32l4xx_hal_flash_ex.c ****     if(WRPArea == OB_WRPAREA_BANK1_AREAA)
 695:../../core/ST/STM32L4xx_HAL_Driver/Src/stm32l4xx_hal_flash_ex.c ****     {
 696:../../core/ST/STM32L4xx_HAL_Driver/Src/stm32l4xx_hal_flash_ex.c ****       MODIFY_REG(FLASH->WRP1AR, (FLASH_WRP1AR_WRP1A_STRT | FLASH_WRP1AR_WRP1A_END), 
 697:../../core/ST/STM32L4xx_HAL_Driver/Src/stm32l4xx_hal_flash_ex.c ****                  (WRPStartOffset | (WRDPEndOffset << 16)));
 698:../../core/ST/STM32L4xx_HAL_Driver/Src/stm32l4xx_hal_flash_ex.c ****     }
 699:../../core/ST/STM32L4xx_HAL_Driver/Src/stm32l4xx_hal_flash_ex.c ****     else if(WRPArea == OB_WRPAREA_BANK1_AREAB)
 700:../../core/ST/STM32L4xx_HAL_Driver/Src/stm32l4xx_hal_flash_ex.c ****     {
 701:../../core/ST/STM32L4xx_HAL_Driver/Src/stm32l4xx_hal_flash_ex.c ****       MODIFY_REG(FLASH->WRP1BR, (FLASH_WRP1BR_WRP1B_STRT | FLASH_WRP1BR_WRP1B_END), 
 702:../../core/ST/STM32L4xx_HAL_Driver/Src/stm32l4xx_hal_flash_ex.c ****                  (WRPStartOffset | (WRDPEndOffset << 16)));
 703:../../core/ST/STM32L4xx_HAL_Driver/Src/stm32l4xx_hal_flash_ex.c ****     }
 704:../../core/ST/STM32L4xx_HAL_Driver/Src/stm32l4xx_hal_flash_ex.c **** #if defined (STM32L471xx) || defined (STM32L475xx) || defined (STM32L476xx) || defined (STM32L485xx
 705:../../core/ST/STM32L4xx_HAL_Driver/Src/stm32l4xx_hal_flash_ex.c ****     defined (STM32L496xx) || defined (STM32L4A6xx) || \
 706:../../core/ST/STM32L4xx_HAL_Driver/Src/stm32l4xx_hal_flash_ex.c ****     defined (STM32L4R5xx) || defined (STM32L4R7xx) || defined (STM32L4R9xx) || defined (STM32L4S5xx
 707:../../core/ST/STM32L4xx_HAL_Driver/Src/stm32l4xx_hal_flash_ex.c ****     else if(WRPArea == OB_WRPAREA_BANK2_AREAA)
 708:../../core/ST/STM32L4xx_HAL_Driver/Src/stm32l4xx_hal_flash_ex.c ****     {
 709:../../core/ST/STM32L4xx_HAL_Driver/Src/stm32l4xx_hal_flash_ex.c ****       MODIFY_REG(FLASH->WRP2AR, (FLASH_WRP2AR_WRP2A_STRT | FLASH_WRP2AR_WRP2A_END), 
 710:../../core/ST/STM32L4xx_HAL_Driver/Src/stm32l4xx_hal_flash_ex.c ****                  (WRPStartOffset | (WRDPEndOffset << 16)));
 711:../../core/ST/STM32L4xx_HAL_Driver/Src/stm32l4xx_hal_flash_ex.c ****     }
 712:../../core/ST/STM32L4xx_HAL_Driver/Src/stm32l4xx_hal_flash_ex.c ****     else if(WRPArea == OB_WRPAREA_BANK2_AREAB)
 713:../../core/ST/STM32L4xx_HAL_Driver/Src/stm32l4xx_hal_flash_ex.c ****     {
 714:../../core/ST/STM32L4xx_HAL_Driver/Src/stm32l4xx_hal_flash_ex.c ****       MODIFY_REG(FLASH->WRP2BR, (FLASH_WRP2BR_WRP2B_STRT | FLASH_WRP2BR_WRP2B_END), 
 715:../../core/ST/STM32L4xx_HAL_Driver/Src/stm32l4xx_hal_flash_ex.c ****                  (WRPStartOffset | (WRDPEndOffset << 16)));
 716:../../core/ST/STM32L4xx_HAL_Driver/Src/stm32l4xx_hal_flash_ex.c ****     }
 717:../../core/ST/STM32L4xx_HAL_Driver/Src/stm32l4xx_hal_flash_ex.c **** #endif
 718:../../core/ST/STM32L4xx_HAL_Driver/Src/stm32l4xx_hal_flash_ex.c ****     else
 719:../../core/ST/STM32L4xx_HAL_Driver/Src/stm32l4xx_hal_flash_ex.c ****     {
 720:../../core/ST/STM32L4xx_HAL_Driver/Src/stm32l4xx_hal_flash_ex.c ****       /* Nothing to do */
 721:../../core/ST/STM32L4xx_HAL_Driver/Src/stm32l4xx_hal_flash_ex.c ****     }
 722:../../core/ST/STM32L4xx_HAL_Driver/Src/stm32l4xx_hal_flash_ex.c ****     
 723:../../core/ST/STM32L4xx_HAL_Driver/Src/stm32l4xx_hal_flash_ex.c ****     /* Set OPTSTRT Bit */
 724:../../core/ST/STM32L4xx_HAL_Driver/Src/stm32l4xx_hal_flash_ex.c ****     SET_BIT(FLASH->CR, FLASH_CR_OPTSTRT);
 725:../../core/ST/STM32L4xx_HAL_Driver/Src/stm32l4xx_hal_flash_ex.c ****     
 726:../../core/ST/STM32L4xx_HAL_Driver/Src/stm32l4xx_hal_flash_ex.c ****     /* Wait for last operation to be completed */
 727:../../core/ST/STM32L4xx_HAL_Driver/Src/stm32l4xx_hal_flash_ex.c ****     status = FLASH_WaitForLastOperation((uint32_t)FLASH_TIMEOUT_VALUE);
 728:../../core/ST/STM32L4xx_HAL_Driver/Src/stm32l4xx_hal_flash_ex.c **** 
ARM GAS  /tmp/ccZN3aKc.s 			page 15


 729:../../core/ST/STM32L4xx_HAL_Driver/Src/stm32l4xx_hal_flash_ex.c ****     /* If the option byte program operation is completed, disable the OPTSTRT Bit */
 730:../../core/ST/STM32L4xx_HAL_Driver/Src/stm32l4xx_hal_flash_ex.c ****     CLEAR_BIT(FLASH->CR, FLASH_CR_OPTSTRT);
 731:../../core/ST/STM32L4xx_HAL_Driver/Src/stm32l4xx_hal_flash_ex.c ****   }
 732:../../core/ST/STM32L4xx_HAL_Driver/Src/stm32l4xx_hal_flash_ex.c ****   
 733:../../core/ST/STM32L4xx_HAL_Driver/Src/stm32l4xx_hal_flash_ex.c ****   return status;
 734:../../core/ST/STM32L4xx_HAL_Driver/Src/stm32l4xx_hal_flash_ex.c **** }
 735:../../core/ST/STM32L4xx_HAL_Driver/Src/stm32l4xx_hal_flash_ex.c **** 
 736:../../core/ST/STM32L4xx_HAL_Driver/Src/stm32l4xx_hal_flash_ex.c **** /**
 737:../../core/ST/STM32L4xx_HAL_Driver/Src/stm32l4xx_hal_flash_ex.c ****   * @brief  Set the read protection level.
 738:../../core/ST/STM32L4xx_HAL_Driver/Src/stm32l4xx_hal_flash_ex.c ****   *    
 739:../../core/ST/STM32L4xx_HAL_Driver/Src/stm32l4xx_hal_flash_ex.c ****   * @note   To configure the RDP level, the option lock bit OPTLOCK must be 
 740:../../core/ST/STM32L4xx_HAL_Driver/Src/stm32l4xx_hal_flash_ex.c ****   *         cleared with the call of the HAL_FLASH_OB_Unlock() function.
 741:../../core/ST/STM32L4xx_HAL_Driver/Src/stm32l4xx_hal_flash_ex.c ****   * @note   To validate the RDP level, the option bytes must be reloaded 
 742:../../core/ST/STM32L4xx_HAL_Driver/Src/stm32l4xx_hal_flash_ex.c ****   *         through the call of the HAL_FLASH_OB_Launch() function.
 743:../../core/ST/STM32L4xx_HAL_Driver/Src/stm32l4xx_hal_flash_ex.c ****   * @note   !!! Warning : When enabling OB_RDP level 2 it's no more possible 
 744:../../core/ST/STM32L4xx_HAL_Driver/Src/stm32l4xx_hal_flash_ex.c ****   *         to go back to level 1 or 0 !!!
 745:../../core/ST/STM32L4xx_HAL_Driver/Src/stm32l4xx_hal_flash_ex.c ****   *    
 746:../../core/ST/STM32L4xx_HAL_Driver/Src/stm32l4xx_hal_flash_ex.c ****   * @param  RDPLevel: specifies the read protection level.
 747:../../core/ST/STM32L4xx_HAL_Driver/Src/stm32l4xx_hal_flash_ex.c ****   *         This parameter can be one of the following values:
 748:../../core/ST/STM32L4xx_HAL_Driver/Src/stm32l4xx_hal_flash_ex.c ****   *            @arg OB_RDP_LEVEL_0: No protection
 749:../../core/ST/STM32L4xx_HAL_Driver/Src/stm32l4xx_hal_flash_ex.c ****   *            @arg OB_RDP_LEVEL_1: Read protection of the memory
 750:../../core/ST/STM32L4xx_HAL_Driver/Src/stm32l4xx_hal_flash_ex.c ****   *            @arg OB_RDP_LEVEL_2: Full chip protection
 751:../../core/ST/STM32L4xx_HAL_Driver/Src/stm32l4xx_hal_flash_ex.c ****   *   
 752:../../core/ST/STM32L4xx_HAL_Driver/Src/stm32l4xx_hal_flash_ex.c ****   * @retval HAL status
 753:../../core/ST/STM32L4xx_HAL_Driver/Src/stm32l4xx_hal_flash_ex.c ****   */
 754:../../core/ST/STM32L4xx_HAL_Driver/Src/stm32l4xx_hal_flash_ex.c **** static HAL_StatusTypeDef FLASH_OB_RDPConfig(uint32_t RDPLevel)
 755:../../core/ST/STM32L4xx_HAL_Driver/Src/stm32l4xx_hal_flash_ex.c **** {
 756:../../core/ST/STM32L4xx_HAL_Driver/Src/stm32l4xx_hal_flash_ex.c ****   HAL_StatusTypeDef status;
 757:../../core/ST/STM32L4xx_HAL_Driver/Src/stm32l4xx_hal_flash_ex.c **** 
 758:../../core/ST/STM32L4xx_HAL_Driver/Src/stm32l4xx_hal_flash_ex.c ****   /* Check the parameters */
 759:../../core/ST/STM32L4xx_HAL_Driver/Src/stm32l4xx_hal_flash_ex.c ****   assert_param(IS_OB_RDP_LEVEL(RDPLevel));
 760:../../core/ST/STM32L4xx_HAL_Driver/Src/stm32l4xx_hal_flash_ex.c ****     
 761:../../core/ST/STM32L4xx_HAL_Driver/Src/stm32l4xx_hal_flash_ex.c ****   /* Wait for last operation to be completed */
 762:../../core/ST/STM32L4xx_HAL_Driver/Src/stm32l4xx_hal_flash_ex.c ****   status = FLASH_WaitForLastOperation((uint32_t)FLASH_TIMEOUT_VALUE);
 763:../../core/ST/STM32L4xx_HAL_Driver/Src/stm32l4xx_hal_flash_ex.c **** 
 764:../../core/ST/STM32L4xx_HAL_Driver/Src/stm32l4xx_hal_flash_ex.c ****   if(status == HAL_OK)
 765:../../core/ST/STM32L4xx_HAL_Driver/Src/stm32l4xx_hal_flash_ex.c ****   { 
 766:../../core/ST/STM32L4xx_HAL_Driver/Src/stm32l4xx_hal_flash_ex.c ****     /* Configure the RDP level in the option bytes register */
 767:../../core/ST/STM32L4xx_HAL_Driver/Src/stm32l4xx_hal_flash_ex.c ****     MODIFY_REG(FLASH->OPTR, FLASH_OPTR_RDP, RDPLevel);
 768:../../core/ST/STM32L4xx_HAL_Driver/Src/stm32l4xx_hal_flash_ex.c ****     
 769:../../core/ST/STM32L4xx_HAL_Driver/Src/stm32l4xx_hal_flash_ex.c ****     /* Set OPTSTRT Bit */
 770:../../core/ST/STM32L4xx_HAL_Driver/Src/stm32l4xx_hal_flash_ex.c ****     SET_BIT(FLASH->CR, FLASH_CR_OPTSTRT);
 771:../../core/ST/STM32L4xx_HAL_Driver/Src/stm32l4xx_hal_flash_ex.c ****     
 772:../../core/ST/STM32L4xx_HAL_Driver/Src/stm32l4xx_hal_flash_ex.c ****     /* Wait for last operation to be completed */
 773:../../core/ST/STM32L4xx_HAL_Driver/Src/stm32l4xx_hal_flash_ex.c ****     status = FLASH_WaitForLastOperation((uint32_t)FLASH_TIMEOUT_VALUE);
 774:../../core/ST/STM32L4xx_HAL_Driver/Src/stm32l4xx_hal_flash_ex.c **** 
 775:../../core/ST/STM32L4xx_HAL_Driver/Src/stm32l4xx_hal_flash_ex.c ****     /* If the option byte program operation is completed, disable the OPTSTRT Bit */
 776:../../core/ST/STM32L4xx_HAL_Driver/Src/stm32l4xx_hal_flash_ex.c ****     CLEAR_BIT(FLASH->CR, FLASH_CR_OPTSTRT);
 777:../../core/ST/STM32L4xx_HAL_Driver/Src/stm32l4xx_hal_flash_ex.c ****   }
 778:../../core/ST/STM32L4xx_HAL_Driver/Src/stm32l4xx_hal_flash_ex.c **** 
 779:../../core/ST/STM32L4xx_HAL_Driver/Src/stm32l4xx_hal_flash_ex.c ****   return status;            
 780:../../core/ST/STM32L4xx_HAL_Driver/Src/stm32l4xx_hal_flash_ex.c **** }
 781:../../core/ST/STM32L4xx_HAL_Driver/Src/stm32l4xx_hal_flash_ex.c **** 
 782:../../core/ST/STM32L4xx_HAL_Driver/Src/stm32l4xx_hal_flash_ex.c **** /**
 783:../../core/ST/STM32L4xx_HAL_Driver/Src/stm32l4xx_hal_flash_ex.c ****   * @brief  Program the FLASH User Option Byte.    
 784:../../core/ST/STM32L4xx_HAL_Driver/Src/stm32l4xx_hal_flash_ex.c ****   *   
 785:../../core/ST/STM32L4xx_HAL_Driver/Src/stm32l4xx_hal_flash_ex.c ****   * @note   To configure the user option bytes, the option lock bit OPTLOCK must
ARM GAS  /tmp/ccZN3aKc.s 			page 16


 786:../../core/ST/STM32L4xx_HAL_Driver/Src/stm32l4xx_hal_flash_ex.c ****   *         be cleared with the call of the HAL_FLASH_OB_Unlock() function.
 787:../../core/ST/STM32L4xx_HAL_Driver/Src/stm32l4xx_hal_flash_ex.c ****   * @note   To validate the user option bytes, the option bytes must be reloaded 
 788:../../core/ST/STM32L4xx_HAL_Driver/Src/stm32l4xx_hal_flash_ex.c ****   *         through the call of the HAL_FLASH_OB_Launch() function.
 789:../../core/ST/STM32L4xx_HAL_Driver/Src/stm32l4xx_hal_flash_ex.c ****   *   
 790:../../core/ST/STM32L4xx_HAL_Driver/Src/stm32l4xx_hal_flash_ex.c ****   * @param  UserType: The FLASH User Option Bytes to be modified 
 791:../../core/ST/STM32L4xx_HAL_Driver/Src/stm32l4xx_hal_flash_ex.c ****   * @param  UserConfig: The FLASH User Option Bytes values: 
 792:../../core/ST/STM32L4xx_HAL_Driver/Src/stm32l4xx_hal_flash_ex.c ****   *         BOR_LEV(Bit8-10), nRST_STOP(Bit12), nRST_STDBY(Bit13), IWDG_SW(Bit16),
 793:../../core/ST/STM32L4xx_HAL_Driver/Src/stm32l4xx_hal_flash_ex.c ****   *         IWDG_STOP(Bit17), IWDG_STDBY(Bit18), WWDG_SW(Bit19), BFB2(Bit20), 
 794:../../core/ST/STM32L4xx_HAL_Driver/Src/stm32l4xx_hal_flash_ex.c ****   *         DUALBANK(Bit21), nBOOT1(Bit23), SRAM2_PE(Bit24) and SRAM2_RST(Bit25). 
 795:../../core/ST/STM32L4xx_HAL_Driver/Src/stm32l4xx_hal_flash_ex.c ****   *   
 796:../../core/ST/STM32L4xx_HAL_Driver/Src/stm32l4xx_hal_flash_ex.c ****   * @retval HAL status
 797:../../core/ST/STM32L4xx_HAL_Driver/Src/stm32l4xx_hal_flash_ex.c ****   */
 798:../../core/ST/STM32L4xx_HAL_Driver/Src/stm32l4xx_hal_flash_ex.c **** static HAL_StatusTypeDef FLASH_OB_UserConfig(uint32_t UserType, uint32_t UserConfig)
 799:../../core/ST/STM32L4xx_HAL_Driver/Src/stm32l4xx_hal_flash_ex.c **** {
 800:../../core/ST/STM32L4xx_HAL_Driver/Src/stm32l4xx_hal_flash_ex.c ****   uint32_t optr_reg_val = 0;
 801:../../core/ST/STM32L4xx_HAL_Driver/Src/stm32l4xx_hal_flash_ex.c ****   uint32_t optr_reg_mask = 0;
 802:../../core/ST/STM32L4xx_HAL_Driver/Src/stm32l4xx_hal_flash_ex.c ****   HAL_StatusTypeDef status;
 803:../../core/ST/STM32L4xx_HAL_Driver/Src/stm32l4xx_hal_flash_ex.c **** 
 804:../../core/ST/STM32L4xx_HAL_Driver/Src/stm32l4xx_hal_flash_ex.c ****   /* Check the parameters */
 805:../../core/ST/STM32L4xx_HAL_Driver/Src/stm32l4xx_hal_flash_ex.c ****   assert_param(IS_OB_USER_TYPE(UserType));
 806:../../core/ST/STM32L4xx_HAL_Driver/Src/stm32l4xx_hal_flash_ex.c ****   
 807:../../core/ST/STM32L4xx_HAL_Driver/Src/stm32l4xx_hal_flash_ex.c ****   /* Wait for last operation to be completed */
 808:../../core/ST/STM32L4xx_HAL_Driver/Src/stm32l4xx_hal_flash_ex.c ****   status = FLASH_WaitForLastOperation((uint32_t)FLASH_TIMEOUT_VALUE);
 809:../../core/ST/STM32L4xx_HAL_Driver/Src/stm32l4xx_hal_flash_ex.c **** 
 810:../../core/ST/STM32L4xx_HAL_Driver/Src/stm32l4xx_hal_flash_ex.c ****   if(status == HAL_OK)
 811:../../core/ST/STM32L4xx_HAL_Driver/Src/stm32l4xx_hal_flash_ex.c ****   { 
 812:../../core/ST/STM32L4xx_HAL_Driver/Src/stm32l4xx_hal_flash_ex.c ****     if((UserType & OB_USER_BOR_LEV) != 0U)
 813:../../core/ST/STM32L4xx_HAL_Driver/Src/stm32l4xx_hal_flash_ex.c ****     {
 814:../../core/ST/STM32L4xx_HAL_Driver/Src/stm32l4xx_hal_flash_ex.c ****       /* BOR level option byte should be modified */
 815:../../core/ST/STM32L4xx_HAL_Driver/Src/stm32l4xx_hal_flash_ex.c ****       assert_param(IS_OB_USER_BOR_LEVEL(UserConfig & FLASH_OPTR_BOR_LEV));
 816:../../core/ST/STM32L4xx_HAL_Driver/Src/stm32l4xx_hal_flash_ex.c ****     
 817:../../core/ST/STM32L4xx_HAL_Driver/Src/stm32l4xx_hal_flash_ex.c ****       /* Set value and mask for BOR level option byte */
 818:../../core/ST/STM32L4xx_HAL_Driver/Src/stm32l4xx_hal_flash_ex.c ****       optr_reg_val |= (UserConfig & FLASH_OPTR_BOR_LEV);
 819:../../core/ST/STM32L4xx_HAL_Driver/Src/stm32l4xx_hal_flash_ex.c ****       optr_reg_mask |= FLASH_OPTR_BOR_LEV;
 820:../../core/ST/STM32L4xx_HAL_Driver/Src/stm32l4xx_hal_flash_ex.c ****     }
 821:../../core/ST/STM32L4xx_HAL_Driver/Src/stm32l4xx_hal_flash_ex.c **** 
 822:../../core/ST/STM32L4xx_HAL_Driver/Src/stm32l4xx_hal_flash_ex.c ****     if((UserType & OB_USER_nRST_STOP) != 0U)
 823:../../core/ST/STM32L4xx_HAL_Driver/Src/stm32l4xx_hal_flash_ex.c ****     {
 824:../../core/ST/STM32L4xx_HAL_Driver/Src/stm32l4xx_hal_flash_ex.c ****       /* nRST_STOP option byte should be modified */
 825:../../core/ST/STM32L4xx_HAL_Driver/Src/stm32l4xx_hal_flash_ex.c ****       assert_param(IS_OB_USER_STOP(UserConfig & FLASH_OPTR_nRST_STOP));
 826:../../core/ST/STM32L4xx_HAL_Driver/Src/stm32l4xx_hal_flash_ex.c ****     
 827:../../core/ST/STM32L4xx_HAL_Driver/Src/stm32l4xx_hal_flash_ex.c ****       /* Set value and mask for nRST_STOP option byte */
 828:../../core/ST/STM32L4xx_HAL_Driver/Src/stm32l4xx_hal_flash_ex.c ****       optr_reg_val |= (UserConfig & FLASH_OPTR_nRST_STOP);
 829:../../core/ST/STM32L4xx_HAL_Driver/Src/stm32l4xx_hal_flash_ex.c ****       optr_reg_mask |= FLASH_OPTR_nRST_STOP;
 830:../../core/ST/STM32L4xx_HAL_Driver/Src/stm32l4xx_hal_flash_ex.c ****     }
 831:../../core/ST/STM32L4xx_HAL_Driver/Src/stm32l4xx_hal_flash_ex.c **** 
 832:../../core/ST/STM32L4xx_HAL_Driver/Src/stm32l4xx_hal_flash_ex.c ****     if((UserType & OB_USER_nRST_STDBY) != 0U)
 833:../../core/ST/STM32L4xx_HAL_Driver/Src/stm32l4xx_hal_flash_ex.c ****     {
 834:../../core/ST/STM32L4xx_HAL_Driver/Src/stm32l4xx_hal_flash_ex.c ****       /* nRST_STDBY option byte should be modified */
 835:../../core/ST/STM32L4xx_HAL_Driver/Src/stm32l4xx_hal_flash_ex.c ****       assert_param(IS_OB_USER_STANDBY(UserConfig & FLASH_OPTR_nRST_STDBY));
 836:../../core/ST/STM32L4xx_HAL_Driver/Src/stm32l4xx_hal_flash_ex.c ****     
 837:../../core/ST/STM32L4xx_HAL_Driver/Src/stm32l4xx_hal_flash_ex.c ****       /* Set value and mask for nRST_STDBY option byte */
 838:../../core/ST/STM32L4xx_HAL_Driver/Src/stm32l4xx_hal_flash_ex.c ****       optr_reg_val |= (UserConfig & FLASH_OPTR_nRST_STDBY);
 839:../../core/ST/STM32L4xx_HAL_Driver/Src/stm32l4xx_hal_flash_ex.c ****       optr_reg_mask |= FLASH_OPTR_nRST_STDBY;
 840:../../core/ST/STM32L4xx_HAL_Driver/Src/stm32l4xx_hal_flash_ex.c ****     }
 841:../../core/ST/STM32L4xx_HAL_Driver/Src/stm32l4xx_hal_flash_ex.c **** 
 842:../../core/ST/STM32L4xx_HAL_Driver/Src/stm32l4xx_hal_flash_ex.c ****     if((UserType & OB_USER_nRST_SHDW) != 0U)
ARM GAS  /tmp/ccZN3aKc.s 			page 17


 843:../../core/ST/STM32L4xx_HAL_Driver/Src/stm32l4xx_hal_flash_ex.c ****     {
 844:../../core/ST/STM32L4xx_HAL_Driver/Src/stm32l4xx_hal_flash_ex.c ****       /* nRST_SHDW option byte should be modified */
 845:../../core/ST/STM32L4xx_HAL_Driver/Src/stm32l4xx_hal_flash_ex.c ****       assert_param(IS_OB_USER_SHUTDOWN(UserConfig & FLASH_OPTR_nRST_SHDW));
 846:../../core/ST/STM32L4xx_HAL_Driver/Src/stm32l4xx_hal_flash_ex.c ****     
 847:../../core/ST/STM32L4xx_HAL_Driver/Src/stm32l4xx_hal_flash_ex.c ****       /* Set value and mask for nRST_SHDW option byte */
 848:../../core/ST/STM32L4xx_HAL_Driver/Src/stm32l4xx_hal_flash_ex.c ****       optr_reg_val |= (UserConfig & FLASH_OPTR_nRST_SHDW);
 849:../../core/ST/STM32L4xx_HAL_Driver/Src/stm32l4xx_hal_flash_ex.c ****       optr_reg_mask |= FLASH_OPTR_nRST_SHDW;
 850:../../core/ST/STM32L4xx_HAL_Driver/Src/stm32l4xx_hal_flash_ex.c ****     }
 851:../../core/ST/STM32L4xx_HAL_Driver/Src/stm32l4xx_hal_flash_ex.c **** 
 852:../../core/ST/STM32L4xx_HAL_Driver/Src/stm32l4xx_hal_flash_ex.c ****     if((UserType & OB_USER_IWDG_SW) != 0U)
 853:../../core/ST/STM32L4xx_HAL_Driver/Src/stm32l4xx_hal_flash_ex.c ****     {
 854:../../core/ST/STM32L4xx_HAL_Driver/Src/stm32l4xx_hal_flash_ex.c ****       /* IWDG_SW option byte should be modified */
 855:../../core/ST/STM32L4xx_HAL_Driver/Src/stm32l4xx_hal_flash_ex.c ****       assert_param(IS_OB_USER_IWDG(UserConfig & FLASH_OPTR_IWDG_SW));
 856:../../core/ST/STM32L4xx_HAL_Driver/Src/stm32l4xx_hal_flash_ex.c ****     
 857:../../core/ST/STM32L4xx_HAL_Driver/Src/stm32l4xx_hal_flash_ex.c ****       /* Set value and mask for IWDG_SW option byte */
 858:../../core/ST/STM32L4xx_HAL_Driver/Src/stm32l4xx_hal_flash_ex.c ****       optr_reg_val |= (UserConfig & FLASH_OPTR_IWDG_SW);
 859:../../core/ST/STM32L4xx_HAL_Driver/Src/stm32l4xx_hal_flash_ex.c ****       optr_reg_mask |= FLASH_OPTR_IWDG_SW;
 860:../../core/ST/STM32L4xx_HAL_Driver/Src/stm32l4xx_hal_flash_ex.c ****     }
 861:../../core/ST/STM32L4xx_HAL_Driver/Src/stm32l4xx_hal_flash_ex.c **** 
 862:../../core/ST/STM32L4xx_HAL_Driver/Src/stm32l4xx_hal_flash_ex.c ****     if((UserType & OB_USER_IWDG_STOP) != 0U)
 863:../../core/ST/STM32L4xx_HAL_Driver/Src/stm32l4xx_hal_flash_ex.c ****     {
 864:../../core/ST/STM32L4xx_HAL_Driver/Src/stm32l4xx_hal_flash_ex.c ****       /* IWDG_STOP option byte should be modified */
 865:../../core/ST/STM32L4xx_HAL_Driver/Src/stm32l4xx_hal_flash_ex.c ****       assert_param(IS_OB_USER_IWDG_STOP(UserConfig & FLASH_OPTR_IWDG_STOP));
 866:../../core/ST/STM32L4xx_HAL_Driver/Src/stm32l4xx_hal_flash_ex.c ****     
 867:../../core/ST/STM32L4xx_HAL_Driver/Src/stm32l4xx_hal_flash_ex.c ****       /* Set value and mask for IWDG_STOP option byte */
 868:../../core/ST/STM32L4xx_HAL_Driver/Src/stm32l4xx_hal_flash_ex.c ****       optr_reg_val |= (UserConfig & FLASH_OPTR_IWDG_STOP);
 869:../../core/ST/STM32L4xx_HAL_Driver/Src/stm32l4xx_hal_flash_ex.c ****       optr_reg_mask |= FLASH_OPTR_IWDG_STOP;
 870:../../core/ST/STM32L4xx_HAL_Driver/Src/stm32l4xx_hal_flash_ex.c ****     }
 871:../../core/ST/STM32L4xx_HAL_Driver/Src/stm32l4xx_hal_flash_ex.c **** 
 872:../../core/ST/STM32L4xx_HAL_Driver/Src/stm32l4xx_hal_flash_ex.c ****     if((UserType & OB_USER_IWDG_STDBY) != 0U)
 873:../../core/ST/STM32L4xx_HAL_Driver/Src/stm32l4xx_hal_flash_ex.c ****     {
 874:../../core/ST/STM32L4xx_HAL_Driver/Src/stm32l4xx_hal_flash_ex.c ****       /* IWDG_STDBY option byte should be modified */
 875:../../core/ST/STM32L4xx_HAL_Driver/Src/stm32l4xx_hal_flash_ex.c ****       assert_param(IS_OB_USER_IWDG_STDBY(UserConfig & FLASH_OPTR_IWDG_STDBY));
 876:../../core/ST/STM32L4xx_HAL_Driver/Src/stm32l4xx_hal_flash_ex.c ****     
 877:../../core/ST/STM32L4xx_HAL_Driver/Src/stm32l4xx_hal_flash_ex.c ****       /* Set value and mask for IWDG_STDBY option byte */
 878:../../core/ST/STM32L4xx_HAL_Driver/Src/stm32l4xx_hal_flash_ex.c ****       optr_reg_val |= (UserConfig & FLASH_OPTR_IWDG_STDBY);
 879:../../core/ST/STM32L4xx_HAL_Driver/Src/stm32l4xx_hal_flash_ex.c ****       optr_reg_mask |= FLASH_OPTR_IWDG_STDBY;
 880:../../core/ST/STM32L4xx_HAL_Driver/Src/stm32l4xx_hal_flash_ex.c ****     }
 881:../../core/ST/STM32L4xx_HAL_Driver/Src/stm32l4xx_hal_flash_ex.c **** 
 882:../../core/ST/STM32L4xx_HAL_Driver/Src/stm32l4xx_hal_flash_ex.c ****     if((UserType & OB_USER_WWDG_SW) != 0U)
 883:../../core/ST/STM32L4xx_HAL_Driver/Src/stm32l4xx_hal_flash_ex.c ****     {
 884:../../core/ST/STM32L4xx_HAL_Driver/Src/stm32l4xx_hal_flash_ex.c ****       /* WWDG_SW option byte should be modified */
 885:../../core/ST/STM32L4xx_HAL_Driver/Src/stm32l4xx_hal_flash_ex.c ****       assert_param(IS_OB_USER_WWDG(UserConfig & FLASH_OPTR_WWDG_SW));
 886:../../core/ST/STM32L4xx_HAL_Driver/Src/stm32l4xx_hal_flash_ex.c ****     
 887:../../core/ST/STM32L4xx_HAL_Driver/Src/stm32l4xx_hal_flash_ex.c ****       /* Set value and mask for WWDG_SW option byte */
 888:../../core/ST/STM32L4xx_HAL_Driver/Src/stm32l4xx_hal_flash_ex.c ****       optr_reg_val |= (UserConfig & FLASH_OPTR_WWDG_SW);
 889:../../core/ST/STM32L4xx_HAL_Driver/Src/stm32l4xx_hal_flash_ex.c ****       optr_reg_mask |= FLASH_OPTR_WWDG_SW;
 890:../../core/ST/STM32L4xx_HAL_Driver/Src/stm32l4xx_hal_flash_ex.c ****     }
 891:../../core/ST/STM32L4xx_HAL_Driver/Src/stm32l4xx_hal_flash_ex.c **** 
 892:../../core/ST/STM32L4xx_HAL_Driver/Src/stm32l4xx_hal_flash_ex.c **** #if defined (STM32L471xx) || defined (STM32L475xx) || defined (STM32L476xx) || defined (STM32L485xx
 893:../../core/ST/STM32L4xx_HAL_Driver/Src/stm32l4xx_hal_flash_ex.c ****     defined (STM32L496xx) || defined (STM32L4A6xx) || \
 894:../../core/ST/STM32L4xx_HAL_Driver/Src/stm32l4xx_hal_flash_ex.c ****     defined (STM32L4R5xx) || defined (STM32L4R7xx) || defined (STM32L4R9xx) || defined (STM32L4S5xx
 895:../../core/ST/STM32L4xx_HAL_Driver/Src/stm32l4xx_hal_flash_ex.c ****     if((UserType & OB_USER_BFB2) != 0U)
 896:../../core/ST/STM32L4xx_HAL_Driver/Src/stm32l4xx_hal_flash_ex.c ****     {
 897:../../core/ST/STM32L4xx_HAL_Driver/Src/stm32l4xx_hal_flash_ex.c ****       /* BFB2 option byte should be modified */
 898:../../core/ST/STM32L4xx_HAL_Driver/Src/stm32l4xx_hal_flash_ex.c ****       assert_param(IS_OB_USER_BFB2(UserConfig & FLASH_OPTR_BFB2));
 899:../../core/ST/STM32L4xx_HAL_Driver/Src/stm32l4xx_hal_flash_ex.c ****     
ARM GAS  /tmp/ccZN3aKc.s 			page 18


 900:../../core/ST/STM32L4xx_HAL_Driver/Src/stm32l4xx_hal_flash_ex.c ****       /* Set value and mask for BFB2 option byte */
 901:../../core/ST/STM32L4xx_HAL_Driver/Src/stm32l4xx_hal_flash_ex.c ****       optr_reg_val |= (UserConfig & FLASH_OPTR_BFB2);
 902:../../core/ST/STM32L4xx_HAL_Driver/Src/stm32l4xx_hal_flash_ex.c ****       optr_reg_mask |= FLASH_OPTR_BFB2;
 903:../../core/ST/STM32L4xx_HAL_Driver/Src/stm32l4xx_hal_flash_ex.c ****     }
 904:../../core/ST/STM32L4xx_HAL_Driver/Src/stm32l4xx_hal_flash_ex.c **** 
 905:../../core/ST/STM32L4xx_HAL_Driver/Src/stm32l4xx_hal_flash_ex.c ****     if((UserType & OB_USER_DUALBANK) != 0U)
 906:../../core/ST/STM32L4xx_HAL_Driver/Src/stm32l4xx_hal_flash_ex.c ****     {
 907:../../core/ST/STM32L4xx_HAL_Driver/Src/stm32l4xx_hal_flash_ex.c **** #if defined (STM32L4R5xx) || defined (STM32L4R7xx) || defined (STM32L4R9xx) || defined (STM32L4S5xx
 908:../../core/ST/STM32L4xx_HAL_Driver/Src/stm32l4xx_hal_flash_ex.c ****       /* DUALBANK option byte should be modified */
 909:../../core/ST/STM32L4xx_HAL_Driver/Src/stm32l4xx_hal_flash_ex.c ****       assert_param(IS_OB_USER_DUALBANK(UserConfig & FLASH_OPTR_DB1M));
 910:../../core/ST/STM32L4xx_HAL_Driver/Src/stm32l4xx_hal_flash_ex.c ****     
 911:../../core/ST/STM32L4xx_HAL_Driver/Src/stm32l4xx_hal_flash_ex.c ****       /* Set value and mask for DUALBANK option byte */
 912:../../core/ST/STM32L4xx_HAL_Driver/Src/stm32l4xx_hal_flash_ex.c ****       optr_reg_val |= (UserConfig & FLASH_OPTR_DB1M);
 913:../../core/ST/STM32L4xx_HAL_Driver/Src/stm32l4xx_hal_flash_ex.c ****       optr_reg_mask |= FLASH_OPTR_DB1M;
 914:../../core/ST/STM32L4xx_HAL_Driver/Src/stm32l4xx_hal_flash_ex.c **** #else
 915:../../core/ST/STM32L4xx_HAL_Driver/Src/stm32l4xx_hal_flash_ex.c ****       /* DUALBANK option byte should be modified */
 916:../../core/ST/STM32L4xx_HAL_Driver/Src/stm32l4xx_hal_flash_ex.c ****       assert_param(IS_OB_USER_DUALBANK(UserConfig & FLASH_OPTR_DUALBANK));
 917:../../core/ST/STM32L4xx_HAL_Driver/Src/stm32l4xx_hal_flash_ex.c ****     
 918:../../core/ST/STM32L4xx_HAL_Driver/Src/stm32l4xx_hal_flash_ex.c ****       /* Set value and mask for DUALBANK option byte */
 919:../../core/ST/STM32L4xx_HAL_Driver/Src/stm32l4xx_hal_flash_ex.c ****       optr_reg_val |= (UserConfig & FLASH_OPTR_DUALBANK);
 920:../../core/ST/STM32L4xx_HAL_Driver/Src/stm32l4xx_hal_flash_ex.c ****       optr_reg_mask |= FLASH_OPTR_DUALBANK;
 921:../../core/ST/STM32L4xx_HAL_Driver/Src/stm32l4xx_hal_flash_ex.c **** #endif
 922:../../core/ST/STM32L4xx_HAL_Driver/Src/stm32l4xx_hal_flash_ex.c ****     }
 923:../../core/ST/STM32L4xx_HAL_Driver/Src/stm32l4xx_hal_flash_ex.c **** #endif
 924:../../core/ST/STM32L4xx_HAL_Driver/Src/stm32l4xx_hal_flash_ex.c ****     
 925:../../core/ST/STM32L4xx_HAL_Driver/Src/stm32l4xx_hal_flash_ex.c ****     if((UserType & OB_USER_nBOOT1) != 0U)
 926:../../core/ST/STM32L4xx_HAL_Driver/Src/stm32l4xx_hal_flash_ex.c ****     {
 927:../../core/ST/STM32L4xx_HAL_Driver/Src/stm32l4xx_hal_flash_ex.c ****       /* nBOOT1 option byte should be modified */
 928:../../core/ST/STM32L4xx_HAL_Driver/Src/stm32l4xx_hal_flash_ex.c ****       assert_param(IS_OB_USER_BOOT1(UserConfig & FLASH_OPTR_nBOOT1));
 929:../../core/ST/STM32L4xx_HAL_Driver/Src/stm32l4xx_hal_flash_ex.c ****     
 930:../../core/ST/STM32L4xx_HAL_Driver/Src/stm32l4xx_hal_flash_ex.c ****       /* Set value and mask for nBOOT1 option byte */
 931:../../core/ST/STM32L4xx_HAL_Driver/Src/stm32l4xx_hal_flash_ex.c ****       optr_reg_val |= (UserConfig & FLASH_OPTR_nBOOT1);
 932:../../core/ST/STM32L4xx_HAL_Driver/Src/stm32l4xx_hal_flash_ex.c ****       optr_reg_mask |= FLASH_OPTR_nBOOT1;
 933:../../core/ST/STM32L4xx_HAL_Driver/Src/stm32l4xx_hal_flash_ex.c ****     }
 934:../../core/ST/STM32L4xx_HAL_Driver/Src/stm32l4xx_hal_flash_ex.c **** 
 935:../../core/ST/STM32L4xx_HAL_Driver/Src/stm32l4xx_hal_flash_ex.c ****     if((UserType & OB_USER_SRAM2_PE) != 0U)
 936:../../core/ST/STM32L4xx_HAL_Driver/Src/stm32l4xx_hal_flash_ex.c ****     {
 937:../../core/ST/STM32L4xx_HAL_Driver/Src/stm32l4xx_hal_flash_ex.c ****       /* SRAM2_PE option byte should be modified */
 938:../../core/ST/STM32L4xx_HAL_Driver/Src/stm32l4xx_hal_flash_ex.c ****       assert_param(IS_OB_USER_SRAM2_PARITY(UserConfig & FLASH_OPTR_SRAM2_PE));
 939:../../core/ST/STM32L4xx_HAL_Driver/Src/stm32l4xx_hal_flash_ex.c ****     
 940:../../core/ST/STM32L4xx_HAL_Driver/Src/stm32l4xx_hal_flash_ex.c ****       /* Set value and mask for SRAM2_PE option byte */
 941:../../core/ST/STM32L4xx_HAL_Driver/Src/stm32l4xx_hal_flash_ex.c ****       optr_reg_val |= (UserConfig & FLASH_OPTR_SRAM2_PE);
 942:../../core/ST/STM32L4xx_HAL_Driver/Src/stm32l4xx_hal_flash_ex.c ****       optr_reg_mask |= FLASH_OPTR_SRAM2_PE;
 943:../../core/ST/STM32L4xx_HAL_Driver/Src/stm32l4xx_hal_flash_ex.c ****     }
 944:../../core/ST/STM32L4xx_HAL_Driver/Src/stm32l4xx_hal_flash_ex.c **** 
 945:../../core/ST/STM32L4xx_HAL_Driver/Src/stm32l4xx_hal_flash_ex.c ****     if((UserType & OB_USER_SRAM2_RST) != 0U)
 946:../../core/ST/STM32L4xx_HAL_Driver/Src/stm32l4xx_hal_flash_ex.c ****     {
 947:../../core/ST/STM32L4xx_HAL_Driver/Src/stm32l4xx_hal_flash_ex.c ****       /* SRAM2_RST option byte should be modified */
 948:../../core/ST/STM32L4xx_HAL_Driver/Src/stm32l4xx_hal_flash_ex.c ****       assert_param(IS_OB_USER_SRAM2_RST(UserConfig & FLASH_OPTR_SRAM2_RST));
 949:../../core/ST/STM32L4xx_HAL_Driver/Src/stm32l4xx_hal_flash_ex.c ****     
 950:../../core/ST/STM32L4xx_HAL_Driver/Src/stm32l4xx_hal_flash_ex.c ****       /* Set value and mask for SRAM2_RST option byte */
 951:../../core/ST/STM32L4xx_HAL_Driver/Src/stm32l4xx_hal_flash_ex.c ****       optr_reg_val |= (UserConfig & FLASH_OPTR_SRAM2_RST);
 952:../../core/ST/STM32L4xx_HAL_Driver/Src/stm32l4xx_hal_flash_ex.c ****       optr_reg_mask |= FLASH_OPTR_SRAM2_RST;
 953:../../core/ST/STM32L4xx_HAL_Driver/Src/stm32l4xx_hal_flash_ex.c ****     }
 954:../../core/ST/STM32L4xx_HAL_Driver/Src/stm32l4xx_hal_flash_ex.c **** 
 955:../../core/ST/STM32L4xx_HAL_Driver/Src/stm32l4xx_hal_flash_ex.c **** #if defined (STM32L412xx) || defined (STM32L422xx) || defined (STM32L431xx) || defined (STM32L432xx
 956:../../core/ST/STM32L4xx_HAL_Driver/Src/stm32l4xx_hal_flash_ex.c ****     defined (STM32L442xx) || defined (STM32L443xx) || defined (STM32L451xx) || defined (STM32L452xx
ARM GAS  /tmp/ccZN3aKc.s 			page 19


 957:../../core/ST/STM32L4xx_HAL_Driver/Src/stm32l4xx_hal_flash_ex.c ****     defined (STM32L496xx) || defined (STM32L4A6xx) || \
 958:../../core/ST/STM32L4xx_HAL_Driver/Src/stm32l4xx_hal_flash_ex.c ****     defined (STM32L4R5xx) || defined (STM32L4R7xx) || defined (STM32L4R9xx) || defined (STM32L4S5xx
 959:../../core/ST/STM32L4xx_HAL_Driver/Src/stm32l4xx_hal_flash_ex.c ****     if((UserType & OB_USER_nSWBOOT0) != 0U)
 960:../../core/ST/STM32L4xx_HAL_Driver/Src/stm32l4xx_hal_flash_ex.c ****     {
 961:../../core/ST/STM32L4xx_HAL_Driver/Src/stm32l4xx_hal_flash_ex.c ****       /* nSWBOOT0 option byte should be modified */
 962:../../core/ST/STM32L4xx_HAL_Driver/Src/stm32l4xx_hal_flash_ex.c ****       assert_param(IS_OB_USER_SWBOOT0(UserConfig & FLASH_OPTR_nSWBOOT0));
 963:../../core/ST/STM32L4xx_HAL_Driver/Src/stm32l4xx_hal_flash_ex.c ****     
 964:../../core/ST/STM32L4xx_HAL_Driver/Src/stm32l4xx_hal_flash_ex.c ****       /* Set value and mask for nSWBOOT0 option byte */
 965:../../core/ST/STM32L4xx_HAL_Driver/Src/stm32l4xx_hal_flash_ex.c ****       optr_reg_val |= (UserConfig & FLASH_OPTR_nSWBOOT0);
 966:../../core/ST/STM32L4xx_HAL_Driver/Src/stm32l4xx_hal_flash_ex.c ****       optr_reg_mask |= FLASH_OPTR_nSWBOOT0;
 967:../../core/ST/STM32L4xx_HAL_Driver/Src/stm32l4xx_hal_flash_ex.c ****     }
 968:../../core/ST/STM32L4xx_HAL_Driver/Src/stm32l4xx_hal_flash_ex.c **** 
 969:../../core/ST/STM32L4xx_HAL_Driver/Src/stm32l4xx_hal_flash_ex.c ****     if((UserType & OB_USER_nBOOT0) != 0U)
 970:../../core/ST/STM32L4xx_HAL_Driver/Src/stm32l4xx_hal_flash_ex.c ****     {
 971:../../core/ST/STM32L4xx_HAL_Driver/Src/stm32l4xx_hal_flash_ex.c ****       /* nBOOT0 option byte should be modified */
 972:../../core/ST/STM32L4xx_HAL_Driver/Src/stm32l4xx_hal_flash_ex.c ****       assert_param(IS_OB_USER_BOOT0(UserConfig & FLASH_OPTR_nBOOT0));
 973:../../core/ST/STM32L4xx_HAL_Driver/Src/stm32l4xx_hal_flash_ex.c ****     
 974:../../core/ST/STM32L4xx_HAL_Driver/Src/stm32l4xx_hal_flash_ex.c ****       /* Set value and mask for nBOOT0 option byte */
 975:../../core/ST/STM32L4xx_HAL_Driver/Src/stm32l4xx_hal_flash_ex.c ****       optr_reg_val |= (UserConfig & FLASH_OPTR_nBOOT0);
 976:../../core/ST/STM32L4xx_HAL_Driver/Src/stm32l4xx_hal_flash_ex.c ****       optr_reg_mask |= FLASH_OPTR_nBOOT0;
 977:../../core/ST/STM32L4xx_HAL_Driver/Src/stm32l4xx_hal_flash_ex.c ****     }
 978:../../core/ST/STM32L4xx_HAL_Driver/Src/stm32l4xx_hal_flash_ex.c **** #endif
 979:../../core/ST/STM32L4xx_HAL_Driver/Src/stm32l4xx_hal_flash_ex.c ****     
 980:../../core/ST/STM32L4xx_HAL_Driver/Src/stm32l4xx_hal_flash_ex.c ****     /* Configure the option bytes register */
 981:../../core/ST/STM32L4xx_HAL_Driver/Src/stm32l4xx_hal_flash_ex.c ****     MODIFY_REG(FLASH->OPTR, optr_reg_mask, optr_reg_val);
 982:../../core/ST/STM32L4xx_HAL_Driver/Src/stm32l4xx_hal_flash_ex.c ****     
 983:../../core/ST/STM32L4xx_HAL_Driver/Src/stm32l4xx_hal_flash_ex.c ****     /* Set OPTSTRT Bit */
 984:../../core/ST/STM32L4xx_HAL_Driver/Src/stm32l4xx_hal_flash_ex.c ****     SET_BIT(FLASH->CR, FLASH_CR_OPTSTRT);
 985:../../core/ST/STM32L4xx_HAL_Driver/Src/stm32l4xx_hal_flash_ex.c ****     
 986:../../core/ST/STM32L4xx_HAL_Driver/Src/stm32l4xx_hal_flash_ex.c ****     /* Wait for last operation to be completed */
 987:../../core/ST/STM32L4xx_HAL_Driver/Src/stm32l4xx_hal_flash_ex.c ****     status = FLASH_WaitForLastOperation((uint32_t)FLASH_TIMEOUT_VALUE);
 988:../../core/ST/STM32L4xx_HAL_Driver/Src/stm32l4xx_hal_flash_ex.c **** 
 989:../../core/ST/STM32L4xx_HAL_Driver/Src/stm32l4xx_hal_flash_ex.c ****     /* If the option byte program operation is completed, disable the OPTSTRT Bit */
 990:../../core/ST/STM32L4xx_HAL_Driver/Src/stm32l4xx_hal_flash_ex.c ****     CLEAR_BIT(FLASH->CR, FLASH_CR_OPTSTRT);
 991:../../core/ST/STM32L4xx_HAL_Driver/Src/stm32l4xx_hal_flash_ex.c ****   }
 992:../../core/ST/STM32L4xx_HAL_Driver/Src/stm32l4xx_hal_flash_ex.c **** 
 993:../../core/ST/STM32L4xx_HAL_Driver/Src/stm32l4xx_hal_flash_ex.c ****   return status;            
 994:../../core/ST/STM32L4xx_HAL_Driver/Src/stm32l4xx_hal_flash_ex.c **** }
 995:../../core/ST/STM32L4xx_HAL_Driver/Src/stm32l4xx_hal_flash_ex.c **** 
 996:../../core/ST/STM32L4xx_HAL_Driver/Src/stm32l4xx_hal_flash_ex.c **** /**
 997:../../core/ST/STM32L4xx_HAL_Driver/Src/stm32l4xx_hal_flash_ex.c ****   * @brief  Configure the Proprietary code readout protection of the desired addresses.
 998:../../core/ST/STM32L4xx_HAL_Driver/Src/stm32l4xx_hal_flash_ex.c ****   *
 999:../../core/ST/STM32L4xx_HAL_Driver/Src/stm32l4xx_hal_flash_ex.c ****   * @note   To configure the PCROP options, the option lock bit OPTLOCK must be 
1000:../../core/ST/STM32L4xx_HAL_Driver/Src/stm32l4xx_hal_flash_ex.c ****   *         cleared with the call of the HAL_FLASH_OB_Unlock() function.
1001:../../core/ST/STM32L4xx_HAL_Driver/Src/stm32l4xx_hal_flash_ex.c ****   * @note   To validate the PCROP options, the option bytes must be reloaded 
1002:../../core/ST/STM32L4xx_HAL_Driver/Src/stm32l4xx_hal_flash_ex.c ****   *         through the call of the HAL_FLASH_OB_Launch() function.
1003:../../core/ST/STM32L4xx_HAL_Driver/Src/stm32l4xx_hal_flash_ex.c ****   *
1004:../../core/ST/STM32L4xx_HAL_Driver/Src/stm32l4xx_hal_flash_ex.c ****   * @param  PCROPConfig: specifies the configuration (Bank to be configured and PCROP_RDP option).
1005:../../core/ST/STM32L4xx_HAL_Driver/Src/stm32l4xx_hal_flash_ex.c ****   *          This parameter must be a combination of FLASH_BANK_1 or FLASH_BANK_2 
1006:../../core/ST/STM32L4xx_HAL_Driver/Src/stm32l4xx_hal_flash_ex.c ****   *          with OB_PCROP_RDP_NOT_ERASE or OB_PCROP_RDP_ERASE
1007:../../core/ST/STM32L4xx_HAL_Driver/Src/stm32l4xx_hal_flash_ex.c ****   *
1008:../../core/ST/STM32L4xx_HAL_Driver/Src/stm32l4xx_hal_flash_ex.c ****   * @param  PCROPStartAddr: specifies the start address of the Proprietary code readout protection
1009:../../core/ST/STM32L4xx_HAL_Driver/Src/stm32l4xx_hal_flash_ex.c ****   *          This parameter can be an address between begin and end of the bank 
1010:../../core/ST/STM32L4xx_HAL_Driver/Src/stm32l4xx_hal_flash_ex.c ****   *
1011:../../core/ST/STM32L4xx_HAL_Driver/Src/stm32l4xx_hal_flash_ex.c ****   * @param  PCROPEndAddr: specifies the end address of the Proprietary code readout protection
1012:../../core/ST/STM32L4xx_HAL_Driver/Src/stm32l4xx_hal_flash_ex.c ****   *          This parameter can be an address between PCROPStartAddr and end of the bank 
1013:../../core/ST/STM32L4xx_HAL_Driver/Src/stm32l4xx_hal_flash_ex.c ****   *
ARM GAS  /tmp/ccZN3aKc.s 			page 20


1014:../../core/ST/STM32L4xx_HAL_Driver/Src/stm32l4xx_hal_flash_ex.c ****   * @retval HAL Status
1015:../../core/ST/STM32L4xx_HAL_Driver/Src/stm32l4xx_hal_flash_ex.c ****   */
1016:../../core/ST/STM32L4xx_HAL_Driver/Src/stm32l4xx_hal_flash_ex.c **** static HAL_StatusTypeDef FLASH_OB_PCROPConfig(uint32_t PCROPConfig, uint32_t PCROPStartAddr, uint32
1017:../../core/ST/STM32L4xx_HAL_Driver/Src/stm32l4xx_hal_flash_ex.c **** {
1018:../../core/ST/STM32L4xx_HAL_Driver/Src/stm32l4xx_hal_flash_ex.c ****   HAL_StatusTypeDef status;
1019:../../core/ST/STM32L4xx_HAL_Driver/Src/stm32l4xx_hal_flash_ex.c ****   uint32_t reg_value;
1020:../../core/ST/STM32L4xx_HAL_Driver/Src/stm32l4xx_hal_flash_ex.c ****   uint32_t bank1_addr;
1021:../../core/ST/STM32L4xx_HAL_Driver/Src/stm32l4xx_hal_flash_ex.c **** #if defined (STM32L471xx) || defined (STM32L475xx) || defined (STM32L476xx) || defined (STM32L485xx
1022:../../core/ST/STM32L4xx_HAL_Driver/Src/stm32l4xx_hal_flash_ex.c ****     defined (STM32L496xx) || defined (STM32L4A6xx) || \
1023:../../core/ST/STM32L4xx_HAL_Driver/Src/stm32l4xx_hal_flash_ex.c ****     defined (STM32L4R5xx) || defined (STM32L4R7xx) || defined (STM32L4R9xx) || defined (STM32L4S5xx
1024:../../core/ST/STM32L4xx_HAL_Driver/Src/stm32l4xx_hal_flash_ex.c ****   uint32_t bank2_addr;
1025:../../core/ST/STM32L4xx_HAL_Driver/Src/stm32l4xx_hal_flash_ex.c **** #endif
1026:../../core/ST/STM32L4xx_HAL_Driver/Src/stm32l4xx_hal_flash_ex.c **** 
1027:../../core/ST/STM32L4xx_HAL_Driver/Src/stm32l4xx_hal_flash_ex.c ****   /* Check the parameters */
1028:../../core/ST/STM32L4xx_HAL_Driver/Src/stm32l4xx_hal_flash_ex.c ****   assert_param(IS_FLASH_BANK_EXCLUSIVE(PCROPConfig & FLASH_BANK_BOTH));
1029:../../core/ST/STM32L4xx_HAL_Driver/Src/stm32l4xx_hal_flash_ex.c ****   assert_param(IS_OB_PCROP_RDP(PCROPConfig & FLASH_PCROP1ER_PCROP_RDP));
1030:../../core/ST/STM32L4xx_HAL_Driver/Src/stm32l4xx_hal_flash_ex.c ****   assert_param(IS_FLASH_MAIN_MEM_ADDRESS(PCROPStartAddr));
1031:../../core/ST/STM32L4xx_HAL_Driver/Src/stm32l4xx_hal_flash_ex.c ****   assert_param(IS_FLASH_MAIN_MEM_ADDRESS(PCROPEndAddr));
1032:../../core/ST/STM32L4xx_HAL_Driver/Src/stm32l4xx_hal_flash_ex.c **** 
1033:../../core/ST/STM32L4xx_HAL_Driver/Src/stm32l4xx_hal_flash_ex.c ****   /* Wait for last operation to be completed */
1034:../../core/ST/STM32L4xx_HAL_Driver/Src/stm32l4xx_hal_flash_ex.c ****   status = FLASH_WaitForLastOperation((uint32_t)FLASH_TIMEOUT_VALUE);
1035:../../core/ST/STM32L4xx_HAL_Driver/Src/stm32l4xx_hal_flash_ex.c **** 
1036:../../core/ST/STM32L4xx_HAL_Driver/Src/stm32l4xx_hal_flash_ex.c ****   if(status == HAL_OK)
1037:../../core/ST/STM32L4xx_HAL_Driver/Src/stm32l4xx_hal_flash_ex.c ****   {
1038:../../core/ST/STM32L4xx_HAL_Driver/Src/stm32l4xx_hal_flash_ex.c **** #if defined (STM32L471xx) || defined (STM32L475xx) || defined (STM32L476xx) || defined (STM32L485xx
1039:../../core/ST/STM32L4xx_HAL_Driver/Src/stm32l4xx_hal_flash_ex.c ****     defined (STM32L496xx) || defined (STM32L4A6xx) || \
1040:../../core/ST/STM32L4xx_HAL_Driver/Src/stm32l4xx_hal_flash_ex.c ****     defined (STM32L4R5xx) || defined (STM32L4R7xx) || defined (STM32L4R9xx) || defined (STM32L4S5xx
1041:../../core/ST/STM32L4xx_HAL_Driver/Src/stm32l4xx_hal_flash_ex.c ****     /* Get the information about the bank swapping */
1042:../../core/ST/STM32L4xx_HAL_Driver/Src/stm32l4xx_hal_flash_ex.c ****     if (READ_BIT(SYSCFG->MEMRMP, SYSCFG_MEMRMP_FB_MODE) == 0U)
1043:../../core/ST/STM32L4xx_HAL_Driver/Src/stm32l4xx_hal_flash_ex.c ****     {
1044:../../core/ST/STM32L4xx_HAL_Driver/Src/stm32l4xx_hal_flash_ex.c ****       bank1_addr = FLASH_BASE;
1045:../../core/ST/STM32L4xx_HAL_Driver/Src/stm32l4xx_hal_flash_ex.c ****       bank2_addr = FLASH_BASE + FLASH_BANK_SIZE;
1046:../../core/ST/STM32L4xx_HAL_Driver/Src/stm32l4xx_hal_flash_ex.c ****     }
1047:../../core/ST/STM32L4xx_HAL_Driver/Src/stm32l4xx_hal_flash_ex.c ****     else
1048:../../core/ST/STM32L4xx_HAL_Driver/Src/stm32l4xx_hal_flash_ex.c ****     {
1049:../../core/ST/STM32L4xx_HAL_Driver/Src/stm32l4xx_hal_flash_ex.c ****       bank1_addr = FLASH_BASE + FLASH_BANK_SIZE;
1050:../../core/ST/STM32L4xx_HAL_Driver/Src/stm32l4xx_hal_flash_ex.c ****       bank2_addr = FLASH_BASE;
1051:../../core/ST/STM32L4xx_HAL_Driver/Src/stm32l4xx_hal_flash_ex.c ****     }
1052:../../core/ST/STM32L4xx_HAL_Driver/Src/stm32l4xx_hal_flash_ex.c **** #else
1053:../../core/ST/STM32L4xx_HAL_Driver/Src/stm32l4xx_hal_flash_ex.c ****     bank1_addr = FLASH_BASE;
1054:../../core/ST/STM32L4xx_HAL_Driver/Src/stm32l4xx_hal_flash_ex.c **** #endif
1055:../../core/ST/STM32L4xx_HAL_Driver/Src/stm32l4xx_hal_flash_ex.c ****     
1056:../../core/ST/STM32L4xx_HAL_Driver/Src/stm32l4xx_hal_flash_ex.c **** #if defined (STM32L4R5xx) || defined (STM32L4R7xx) || defined (STM32L4R9xx) || defined (STM32L4S5xx
1057:../../core/ST/STM32L4xx_HAL_Driver/Src/stm32l4xx_hal_flash_ex.c ****     if (READ_BIT(FLASH->OPTR, FLASH_OPTR_DBANK) == 0U)
1058:../../core/ST/STM32L4xx_HAL_Driver/Src/stm32l4xx_hal_flash_ex.c ****     {
1059:../../core/ST/STM32L4xx_HAL_Driver/Src/stm32l4xx_hal_flash_ex.c ****       /* Configure the Proprietary code readout protection */
1060:../../core/ST/STM32L4xx_HAL_Driver/Src/stm32l4xx_hal_flash_ex.c ****       if((PCROPConfig & FLASH_BANK_BOTH) == FLASH_BANK_1)
1061:../../core/ST/STM32L4xx_HAL_Driver/Src/stm32l4xx_hal_flash_ex.c ****       {
1062:../../core/ST/STM32L4xx_HAL_Driver/Src/stm32l4xx_hal_flash_ex.c ****         reg_value = ((PCROPStartAddr - FLASH_BASE) >> 4);
1063:../../core/ST/STM32L4xx_HAL_Driver/Src/stm32l4xx_hal_flash_ex.c ****         MODIFY_REG(FLASH->PCROP1SR, FLASH_PCROP1SR_PCROP1_STRT, reg_value);
1064:../../core/ST/STM32L4xx_HAL_Driver/Src/stm32l4xx_hal_flash_ex.c ****         
1065:../../core/ST/STM32L4xx_HAL_Driver/Src/stm32l4xx_hal_flash_ex.c ****         reg_value = ((PCROPEndAddr - FLASH_BASE) >> 4);
1066:../../core/ST/STM32L4xx_HAL_Driver/Src/stm32l4xx_hal_flash_ex.c ****         MODIFY_REG(FLASH->PCROP1ER, FLASH_PCROP1ER_PCROP1_END, reg_value);
1067:../../core/ST/STM32L4xx_HAL_Driver/Src/stm32l4xx_hal_flash_ex.c ****       }
1068:../../core/ST/STM32L4xx_HAL_Driver/Src/stm32l4xx_hal_flash_ex.c ****       else if((PCROPConfig & FLASH_BANK_BOTH) == FLASH_BANK_2)
1069:../../core/ST/STM32L4xx_HAL_Driver/Src/stm32l4xx_hal_flash_ex.c ****       {
1070:../../core/ST/STM32L4xx_HAL_Driver/Src/stm32l4xx_hal_flash_ex.c ****         reg_value = ((PCROPStartAddr - FLASH_BASE) >> 4);
ARM GAS  /tmp/ccZN3aKc.s 			page 21


1071:../../core/ST/STM32L4xx_HAL_Driver/Src/stm32l4xx_hal_flash_ex.c ****         MODIFY_REG(FLASH->PCROP2SR, FLASH_PCROP2SR_PCROP2_STRT, reg_value);
1072:../../core/ST/STM32L4xx_HAL_Driver/Src/stm32l4xx_hal_flash_ex.c ****         
1073:../../core/ST/STM32L4xx_HAL_Driver/Src/stm32l4xx_hal_flash_ex.c ****         reg_value = ((PCROPEndAddr - FLASH_BASE) >> 4);
1074:../../core/ST/STM32L4xx_HAL_Driver/Src/stm32l4xx_hal_flash_ex.c ****         MODIFY_REG(FLASH->PCROP2ER, FLASH_PCROP2ER_PCROP2_END, reg_value);
1075:../../core/ST/STM32L4xx_HAL_Driver/Src/stm32l4xx_hal_flash_ex.c ****       }
1076:../../core/ST/STM32L4xx_HAL_Driver/Src/stm32l4xx_hal_flash_ex.c ****       else
1077:../../core/ST/STM32L4xx_HAL_Driver/Src/stm32l4xx_hal_flash_ex.c ****       {
1078:../../core/ST/STM32L4xx_HAL_Driver/Src/stm32l4xx_hal_flash_ex.c ****         /* Nothing to do */
1079:../../core/ST/STM32L4xx_HAL_Driver/Src/stm32l4xx_hal_flash_ex.c ****       }
1080:../../core/ST/STM32L4xx_HAL_Driver/Src/stm32l4xx_hal_flash_ex.c ****     }
1081:../../core/ST/STM32L4xx_HAL_Driver/Src/stm32l4xx_hal_flash_ex.c ****     else
1082:../../core/ST/STM32L4xx_HAL_Driver/Src/stm32l4xx_hal_flash_ex.c **** #endif
1083:../../core/ST/STM32L4xx_HAL_Driver/Src/stm32l4xx_hal_flash_ex.c ****     {
1084:../../core/ST/STM32L4xx_HAL_Driver/Src/stm32l4xx_hal_flash_ex.c ****       /* Configure the Proprietary code readout protection */
1085:../../core/ST/STM32L4xx_HAL_Driver/Src/stm32l4xx_hal_flash_ex.c ****       if((PCROPConfig & FLASH_BANK_BOTH) == FLASH_BANK_1)
1086:../../core/ST/STM32L4xx_HAL_Driver/Src/stm32l4xx_hal_flash_ex.c ****       {
1087:../../core/ST/STM32L4xx_HAL_Driver/Src/stm32l4xx_hal_flash_ex.c ****         reg_value = ((PCROPStartAddr - bank1_addr) >> 3);
1088:../../core/ST/STM32L4xx_HAL_Driver/Src/stm32l4xx_hal_flash_ex.c ****         MODIFY_REG(FLASH->PCROP1SR, FLASH_PCROP1SR_PCROP1_STRT, reg_value);
1089:../../core/ST/STM32L4xx_HAL_Driver/Src/stm32l4xx_hal_flash_ex.c ****         
1090:../../core/ST/STM32L4xx_HAL_Driver/Src/stm32l4xx_hal_flash_ex.c ****         reg_value = ((PCROPEndAddr - bank1_addr) >> 3);
1091:../../core/ST/STM32L4xx_HAL_Driver/Src/stm32l4xx_hal_flash_ex.c ****         MODIFY_REG(FLASH->PCROP1ER, FLASH_PCROP1ER_PCROP1_END, reg_value);
1092:../../core/ST/STM32L4xx_HAL_Driver/Src/stm32l4xx_hal_flash_ex.c ****       }
1093:../../core/ST/STM32L4xx_HAL_Driver/Src/stm32l4xx_hal_flash_ex.c **** #if defined (STM32L471xx) || defined (STM32L475xx) || defined (STM32L476xx) || defined (STM32L485xx
1094:../../core/ST/STM32L4xx_HAL_Driver/Src/stm32l4xx_hal_flash_ex.c ****     defined (STM32L496xx) || defined (STM32L4A6xx) || \
1095:../../core/ST/STM32L4xx_HAL_Driver/Src/stm32l4xx_hal_flash_ex.c ****     defined (STM32L4R5xx) || defined (STM32L4R7xx) || defined (STM32L4R9xx) || defined (STM32L4S5xx
1096:../../core/ST/STM32L4xx_HAL_Driver/Src/stm32l4xx_hal_flash_ex.c ****       else if((PCROPConfig & FLASH_BANK_BOTH) == FLASH_BANK_2)
1097:../../core/ST/STM32L4xx_HAL_Driver/Src/stm32l4xx_hal_flash_ex.c ****       {
1098:../../core/ST/STM32L4xx_HAL_Driver/Src/stm32l4xx_hal_flash_ex.c ****         reg_value = ((PCROPStartAddr - bank2_addr) >> 3);
1099:../../core/ST/STM32L4xx_HAL_Driver/Src/stm32l4xx_hal_flash_ex.c ****         MODIFY_REG(FLASH->PCROP2SR, FLASH_PCROP2SR_PCROP2_STRT, reg_value);
1100:../../core/ST/STM32L4xx_HAL_Driver/Src/stm32l4xx_hal_flash_ex.c ****         
1101:../../core/ST/STM32L4xx_HAL_Driver/Src/stm32l4xx_hal_flash_ex.c ****         reg_value = ((PCROPEndAddr - bank2_addr) >> 3);
1102:../../core/ST/STM32L4xx_HAL_Driver/Src/stm32l4xx_hal_flash_ex.c ****         MODIFY_REG(FLASH->PCROP2ER, FLASH_PCROP2ER_PCROP2_END, reg_value);
1103:../../core/ST/STM32L4xx_HAL_Driver/Src/stm32l4xx_hal_flash_ex.c ****       }
1104:../../core/ST/STM32L4xx_HAL_Driver/Src/stm32l4xx_hal_flash_ex.c **** #endif
1105:../../core/ST/STM32L4xx_HAL_Driver/Src/stm32l4xx_hal_flash_ex.c ****       else
1106:../../core/ST/STM32L4xx_HAL_Driver/Src/stm32l4xx_hal_flash_ex.c ****       {
1107:../../core/ST/STM32L4xx_HAL_Driver/Src/stm32l4xx_hal_flash_ex.c ****         /* Nothing to do */
1108:../../core/ST/STM32L4xx_HAL_Driver/Src/stm32l4xx_hal_flash_ex.c ****       }
1109:../../core/ST/STM32L4xx_HAL_Driver/Src/stm32l4xx_hal_flash_ex.c ****     }
1110:../../core/ST/STM32L4xx_HAL_Driver/Src/stm32l4xx_hal_flash_ex.c ****     
1111:../../core/ST/STM32L4xx_HAL_Driver/Src/stm32l4xx_hal_flash_ex.c ****     MODIFY_REG(FLASH->PCROP1ER, FLASH_PCROP1ER_PCROP_RDP, (PCROPConfig & FLASH_PCROP1ER_PCROP_RDP))
1112:../../core/ST/STM32L4xx_HAL_Driver/Src/stm32l4xx_hal_flash_ex.c ****     
1113:../../core/ST/STM32L4xx_HAL_Driver/Src/stm32l4xx_hal_flash_ex.c ****     /* Set OPTSTRT Bit */
1114:../../core/ST/STM32L4xx_HAL_Driver/Src/stm32l4xx_hal_flash_ex.c ****     SET_BIT(FLASH->CR, FLASH_CR_OPTSTRT);
1115:../../core/ST/STM32L4xx_HAL_Driver/Src/stm32l4xx_hal_flash_ex.c ****     
1116:../../core/ST/STM32L4xx_HAL_Driver/Src/stm32l4xx_hal_flash_ex.c ****     /* Wait for last operation to be completed */
1117:../../core/ST/STM32L4xx_HAL_Driver/Src/stm32l4xx_hal_flash_ex.c ****     status = FLASH_WaitForLastOperation((uint32_t)FLASH_TIMEOUT_VALUE);
1118:../../core/ST/STM32L4xx_HAL_Driver/Src/stm32l4xx_hal_flash_ex.c **** 
1119:../../core/ST/STM32L4xx_HAL_Driver/Src/stm32l4xx_hal_flash_ex.c ****     /* If the option byte program operation is completed, disable the OPTSTRT Bit */
1120:../../core/ST/STM32L4xx_HAL_Driver/Src/stm32l4xx_hal_flash_ex.c ****     CLEAR_BIT(FLASH->CR, FLASH_CR_OPTSTRT);
1121:../../core/ST/STM32L4xx_HAL_Driver/Src/stm32l4xx_hal_flash_ex.c ****   }
1122:../../core/ST/STM32L4xx_HAL_Driver/Src/stm32l4xx_hal_flash_ex.c ****   
1123:../../core/ST/STM32L4xx_HAL_Driver/Src/stm32l4xx_hal_flash_ex.c ****   return status;
1124:../../core/ST/STM32L4xx_HAL_Driver/Src/stm32l4xx_hal_flash_ex.c **** }
1125:../../core/ST/STM32L4xx_HAL_Driver/Src/stm32l4xx_hal_flash_ex.c **** 
1126:../../core/ST/STM32L4xx_HAL_Driver/Src/stm32l4xx_hal_flash_ex.c **** /**
1127:../../core/ST/STM32L4xx_HAL_Driver/Src/stm32l4xx_hal_flash_ex.c ****   * @brief  Return the FLASH Write Protection Option Bytes value.
ARM GAS  /tmp/ccZN3aKc.s 			page 22


1128:../../core/ST/STM32L4xx_HAL_Driver/Src/stm32l4xx_hal_flash_ex.c ****   *
1129:../../core/ST/STM32L4xx_HAL_Driver/Src/stm32l4xx_hal_flash_ex.c ****   * @param[in]  WRPArea: specifies the area to be returned.
1130:../../core/ST/STM32L4xx_HAL_Driver/Src/stm32l4xx_hal_flash_ex.c ****   *          This parameter can be one of the following values:
1131:../../core/ST/STM32L4xx_HAL_Driver/Src/stm32l4xx_hal_flash_ex.c ****   *            @arg OB_WRPAREA_BANK1_AREAA: Flash Bank 1 Area A                      
1132:../../core/ST/STM32L4xx_HAL_Driver/Src/stm32l4xx_hal_flash_ex.c ****   *            @arg OB_WRPAREA_BANK1_AREAB: Flash Bank 1 Area B                      
1133:../../core/ST/STM32L4xx_HAL_Driver/Src/stm32l4xx_hal_flash_ex.c ****   *            @arg OB_WRPAREA_BANK2_AREAA: Flash Bank 2 Area A (don't apply to STM32L43x/STM32L44x
1134:../../core/ST/STM32L4xx_HAL_Driver/Src/stm32l4xx_hal_flash_ex.c ****   *            @arg OB_WRPAREA_BANK2_AREAB: Flash Bank 2 Area B (don't apply to STM32L43x/STM32L44x
1135:../../core/ST/STM32L4xx_HAL_Driver/Src/stm32l4xx_hal_flash_ex.c ****   *
1136:../../core/ST/STM32L4xx_HAL_Driver/Src/stm32l4xx_hal_flash_ex.c ****   * @param[out]  WRPStartOffset: specifies the address where to copied the start page 
1137:../../core/ST/STM32L4xx_HAL_Driver/Src/stm32l4xx_hal_flash_ex.c ****   *                         of the write protected area
1138:../../core/ST/STM32L4xx_HAL_Driver/Src/stm32l4xx_hal_flash_ex.c ****   *
1139:../../core/ST/STM32L4xx_HAL_Driver/Src/stm32l4xx_hal_flash_ex.c ****   * @param[out]  WRDPEndOffset: specifies the address where to copied the end page of 
1140:../../core/ST/STM32L4xx_HAL_Driver/Src/stm32l4xx_hal_flash_ex.c ****   *                        the write protected area
1141:../../core/ST/STM32L4xx_HAL_Driver/Src/stm32l4xx_hal_flash_ex.c ****   *
1142:../../core/ST/STM32L4xx_HAL_Driver/Src/stm32l4xx_hal_flash_ex.c ****   * @retval None
1143:../../core/ST/STM32L4xx_HAL_Driver/Src/stm32l4xx_hal_flash_ex.c ****   */
1144:../../core/ST/STM32L4xx_HAL_Driver/Src/stm32l4xx_hal_flash_ex.c **** static void FLASH_OB_GetWRP(uint32_t WRPArea, uint32_t * WRPStartOffset, uint32_t * WRDPEndOffset)
1145:../../core/ST/STM32L4xx_HAL_Driver/Src/stm32l4xx_hal_flash_ex.c **** {
  74              		.loc 1 1145 0
  75              		.cfi_startproc
  76              		@ args = 0, pretend = 0, frame = 0
  77              		@ frame_needed = 0, uses_anonymous_args = 0
  78              		@ link register save eliminated.
  79              	.LVL1:
1146:../../core/ST/STM32L4xx_HAL_Driver/Src/stm32l4xx_hal_flash_ex.c ****   /* Get the configuration of the write protected area */
1147:../../core/ST/STM32L4xx_HAL_Driver/Src/stm32l4xx_hal_flash_ex.c ****   if(WRPArea == OB_WRPAREA_BANK1_AREAA)
  80              		.loc 1 1147 0
  81 0000 30B1     		cbz	r0, .L11
1148:../../core/ST/STM32L4xx_HAL_Driver/Src/stm32l4xx_hal_flash_ex.c ****   {
1149:../../core/ST/STM32L4xx_HAL_Driver/Src/stm32l4xx_hal_flash_ex.c ****     *WRPStartOffset = READ_BIT(FLASH->WRP1AR, FLASH_WRP1AR_WRP1A_STRT);
1150:../../core/ST/STM32L4xx_HAL_Driver/Src/stm32l4xx_hal_flash_ex.c ****     *WRDPEndOffset = (READ_BIT(FLASH->WRP1AR, FLASH_WRP1AR_WRP1A_END) >> 16);
1151:../../core/ST/STM32L4xx_HAL_Driver/Src/stm32l4xx_hal_flash_ex.c ****   }
1152:../../core/ST/STM32L4xx_HAL_Driver/Src/stm32l4xx_hal_flash_ex.c ****   else if(WRPArea == OB_WRPAREA_BANK1_AREAB)
  82              		.loc 1 1152 0
  83 0002 0128     		cmp	r0, #1
  84 0004 0DD0     		beq	.L12
1153:../../core/ST/STM32L4xx_HAL_Driver/Src/stm32l4xx_hal_flash_ex.c ****   {
1154:../../core/ST/STM32L4xx_HAL_Driver/Src/stm32l4xx_hal_flash_ex.c ****     *WRPStartOffset = READ_BIT(FLASH->WRP1BR, FLASH_WRP1BR_WRP1B_STRT);
1155:../../core/ST/STM32L4xx_HAL_Driver/Src/stm32l4xx_hal_flash_ex.c ****     *WRDPEndOffset = (READ_BIT(FLASH->WRP1BR, FLASH_WRP1BR_WRP1B_END) >> 16);
1156:../../core/ST/STM32L4xx_HAL_Driver/Src/stm32l4xx_hal_flash_ex.c ****   }
1157:../../core/ST/STM32L4xx_HAL_Driver/Src/stm32l4xx_hal_flash_ex.c **** #if defined (STM32L471xx) || defined (STM32L475xx) || defined (STM32L476xx) || defined (STM32L485xx
1158:../../core/ST/STM32L4xx_HAL_Driver/Src/stm32l4xx_hal_flash_ex.c ****     defined (STM32L496xx) || defined (STM32L4A6xx) || \
1159:../../core/ST/STM32L4xx_HAL_Driver/Src/stm32l4xx_hal_flash_ex.c ****     defined (STM32L4R5xx) || defined (STM32L4R7xx) || defined (STM32L4R9xx) || defined (STM32L4S5xx
1160:../../core/ST/STM32L4xx_HAL_Driver/Src/stm32l4xx_hal_flash_ex.c ****   else if(WRPArea == OB_WRPAREA_BANK2_AREAA)
  85              		.loc 1 1160 0
  86 0006 0228     		cmp	r0, #2
  87 0008 14D0     		beq	.L13
1161:../../core/ST/STM32L4xx_HAL_Driver/Src/stm32l4xx_hal_flash_ex.c ****   {
1162:../../core/ST/STM32L4xx_HAL_Driver/Src/stm32l4xx_hal_flash_ex.c ****     *WRPStartOffset = READ_BIT(FLASH->WRP2AR, FLASH_WRP2AR_WRP2A_STRT);
1163:../../core/ST/STM32L4xx_HAL_Driver/Src/stm32l4xx_hal_flash_ex.c ****     *WRDPEndOffset = (READ_BIT(FLASH->WRP2AR, FLASH_WRP2AR_WRP2A_END) >> 16);
1164:../../core/ST/STM32L4xx_HAL_Driver/Src/stm32l4xx_hal_flash_ex.c ****   }
1165:../../core/ST/STM32L4xx_HAL_Driver/Src/stm32l4xx_hal_flash_ex.c ****   else if(WRPArea == OB_WRPAREA_BANK2_AREAB)
  88              		.loc 1 1165 0
  89 000a 0428     		cmp	r0, #4
  90 000c 1BD0     		beq	.L14
  91              	.LVL2:
  92              	.L6:
ARM GAS  /tmp/ccZN3aKc.s 			page 23


1166:../../core/ST/STM32L4xx_HAL_Driver/Src/stm32l4xx_hal_flash_ex.c ****   {
1167:../../core/ST/STM32L4xx_HAL_Driver/Src/stm32l4xx_hal_flash_ex.c ****     *WRPStartOffset = READ_BIT(FLASH->WRP2BR, FLASH_WRP2BR_WRP2B_STRT);
1168:../../core/ST/STM32L4xx_HAL_Driver/Src/stm32l4xx_hal_flash_ex.c ****     *WRDPEndOffset = (READ_BIT(FLASH->WRP2BR, FLASH_WRP2BR_WRP2B_END) >> 16);
1169:../../core/ST/STM32L4xx_HAL_Driver/Src/stm32l4xx_hal_flash_ex.c ****   }
1170:../../core/ST/STM32L4xx_HAL_Driver/Src/stm32l4xx_hal_flash_ex.c **** #endif
1171:../../core/ST/STM32L4xx_HAL_Driver/Src/stm32l4xx_hal_flash_ex.c ****   else
1172:../../core/ST/STM32L4xx_HAL_Driver/Src/stm32l4xx_hal_flash_ex.c ****   {
1173:../../core/ST/STM32L4xx_HAL_Driver/Src/stm32l4xx_hal_flash_ex.c ****     /* Nothing to do */
1174:../../core/ST/STM32L4xx_HAL_Driver/Src/stm32l4xx_hal_flash_ex.c ****   }
1175:../../core/ST/STM32L4xx_HAL_Driver/Src/stm32l4xx_hal_flash_ex.c **** }
  93              		.loc 1 1175 0
  94 000e 7047     		bx	lr
  95              	.LVL3:
  96              	.L11:
1149:../../core/ST/STM32L4xx_HAL_Driver/Src/stm32l4xx_hal_flash_ex.c ****     *WRDPEndOffset = (READ_BIT(FLASH->WRP1AR, FLASH_WRP1AR_WRP1A_END) >> 16);
  97              		.loc 1 1149 0
  98 0010 1148     		ldr	r0, .L15
  99              	.LVL4:
 100 0012 C36A     		ldr	r3, [r0, #44]
 101 0014 DBB2     		uxtb	r3, r3
 102 0016 0B60     		str	r3, [r1]
1150:../../core/ST/STM32L4xx_HAL_Driver/Src/stm32l4xx_hal_flash_ex.c ****   }
 103              		.loc 1 1150 0
 104 0018 C36A     		ldr	r3, [r0, #44]
 105 001a C3F30743 		ubfx	r3, r3, #16, #8
 106 001e 1360     		str	r3, [r2]
 107 0020 7047     		bx	lr
 108              	.LVL5:
 109              	.L12:
1154:../../core/ST/STM32L4xx_HAL_Driver/Src/stm32l4xx_hal_flash_ex.c ****     *WRDPEndOffset = (READ_BIT(FLASH->WRP1BR, FLASH_WRP1BR_WRP1B_END) >> 16);
 110              		.loc 1 1154 0
 111 0022 0D48     		ldr	r0, .L15
 112              	.LVL6:
 113 0024 036B     		ldr	r3, [r0, #48]
 114 0026 DBB2     		uxtb	r3, r3
 115 0028 0B60     		str	r3, [r1]
1155:../../core/ST/STM32L4xx_HAL_Driver/Src/stm32l4xx_hal_flash_ex.c ****   }
 116              		.loc 1 1155 0
 117 002a 036B     		ldr	r3, [r0, #48]
 118 002c C3F30743 		ubfx	r3, r3, #16, #8
 119 0030 1360     		str	r3, [r2]
 120 0032 7047     		bx	lr
 121              	.LVL7:
 122              	.L13:
1162:../../core/ST/STM32L4xx_HAL_Driver/Src/stm32l4xx_hal_flash_ex.c ****     *WRDPEndOffset = (READ_BIT(FLASH->WRP2AR, FLASH_WRP2AR_WRP2A_END) >> 16);
 123              		.loc 1 1162 0
 124 0034 0848     		ldr	r0, .L15
 125              	.LVL8:
 126 0036 C36C     		ldr	r3, [r0, #76]
 127 0038 DBB2     		uxtb	r3, r3
 128 003a 0B60     		str	r3, [r1]
1163:../../core/ST/STM32L4xx_HAL_Driver/Src/stm32l4xx_hal_flash_ex.c ****   }
 129              		.loc 1 1163 0
 130 003c C36C     		ldr	r3, [r0, #76]
 131 003e C3F30743 		ubfx	r3, r3, #16, #8
 132 0042 1360     		str	r3, [r2]
 133 0044 7047     		bx	lr
ARM GAS  /tmp/ccZN3aKc.s 			page 24


 134              	.LVL9:
 135              	.L14:
1167:../../core/ST/STM32L4xx_HAL_Driver/Src/stm32l4xx_hal_flash_ex.c ****     *WRDPEndOffset = (READ_BIT(FLASH->WRP2BR, FLASH_WRP2BR_WRP2B_END) >> 16);
 136              		.loc 1 1167 0
 137 0046 0448     		ldr	r0, .L15
 138              	.LVL10:
 139 0048 036D     		ldr	r3, [r0, #80]
 140 004a DBB2     		uxtb	r3, r3
 141 004c 0B60     		str	r3, [r1]
1168:../../core/ST/STM32L4xx_HAL_Driver/Src/stm32l4xx_hal_flash_ex.c ****   }
 142              		.loc 1 1168 0
 143 004e 036D     		ldr	r3, [r0, #80]
 144 0050 C3F30743 		ubfx	r3, r3, #16, #8
 145 0054 1360     		str	r3, [r2]
 146              		.loc 1 1175 0
 147 0056 DAE7     		b	.L6
 148              	.L16:
 149              		.align	2
 150              	.L15:
 151 0058 00200240 		.word	1073881088
 152              		.cfi_endproc
 153              	.LFE134:
 155              		.section	.text.FLASH_OB_GetRDP,"ax",%progbits
 156              		.align	1
 157              		.syntax unified
 158              		.thumb
 159              		.thumb_func
 160              		.fpu fpv4-sp-d16
 162              	FLASH_OB_GetRDP:
 163              	.LFB135:
1176:../../core/ST/STM32L4xx_HAL_Driver/Src/stm32l4xx_hal_flash_ex.c **** 
1177:../../core/ST/STM32L4xx_HAL_Driver/Src/stm32l4xx_hal_flash_ex.c **** /**
1178:../../core/ST/STM32L4xx_HAL_Driver/Src/stm32l4xx_hal_flash_ex.c ****   * @brief  Return the FLASH Read Protection level.
1179:../../core/ST/STM32L4xx_HAL_Driver/Src/stm32l4xx_hal_flash_ex.c ****   * @retval FLASH ReadOut Protection Status:
1180:../../core/ST/STM32L4xx_HAL_Driver/Src/stm32l4xx_hal_flash_ex.c ****   *         This return value can be one of the following values:
1181:../../core/ST/STM32L4xx_HAL_Driver/Src/stm32l4xx_hal_flash_ex.c ****   *            @arg OB_RDP_LEVEL_0: No protection
1182:../../core/ST/STM32L4xx_HAL_Driver/Src/stm32l4xx_hal_flash_ex.c ****   *            @arg OB_RDP_LEVEL_1: Read protection of the memory
1183:../../core/ST/STM32L4xx_HAL_Driver/Src/stm32l4xx_hal_flash_ex.c ****   *            @arg OB_RDP_LEVEL_2: Full chip protection
1184:../../core/ST/STM32L4xx_HAL_Driver/Src/stm32l4xx_hal_flash_ex.c ****   */
1185:../../core/ST/STM32L4xx_HAL_Driver/Src/stm32l4xx_hal_flash_ex.c **** static uint32_t FLASH_OB_GetRDP(void)
1186:../../core/ST/STM32L4xx_HAL_Driver/Src/stm32l4xx_hal_flash_ex.c **** {
 164              		.loc 1 1186 0
 165              		.cfi_startproc
 166              		@ args = 0, pretend = 0, frame = 0
 167              		@ frame_needed = 0, uses_anonymous_args = 0
 168              		@ link register save eliminated.
1187:../../core/ST/STM32L4xx_HAL_Driver/Src/stm32l4xx_hal_flash_ex.c ****   uint32_t rdp_level = READ_BIT(FLASH->OPTR, FLASH_OPTR_RDP);
 169              		.loc 1 1187 0
 170 0000 064B     		ldr	r3, .L21
 171 0002 1B6A     		ldr	r3, [r3, #32]
 172 0004 DBB2     		uxtb	r3, r3
 173              	.LVL11:
1188:../../core/ST/STM32L4xx_HAL_Driver/Src/stm32l4xx_hal_flash_ex.c **** 
1189:../../core/ST/STM32L4xx_HAL_Driver/Src/stm32l4xx_hal_flash_ex.c ****   if ((rdp_level != OB_RDP_LEVEL_0) && (rdp_level != OB_RDP_LEVEL_2))
 174              		.loc 1 1189 0
 175 0006 AA2B     		cmp	r3, #170
 176 0008 01D0     		beq	.L18
ARM GAS  /tmp/ccZN3aKc.s 			page 25


 177              		.loc 1 1189 0 is_stmt 0 discriminator 1
 178 000a CC2B     		cmp	r3, #204
 179 000c 03D1     		bne	.L20
 180              	.L18:
1190:../../core/ST/STM32L4xx_HAL_Driver/Src/stm32l4xx_hal_flash_ex.c ****   {
1191:../../core/ST/STM32L4xx_HAL_Driver/Src/stm32l4xx_hal_flash_ex.c ****     return (OB_RDP_LEVEL_1);
1192:../../core/ST/STM32L4xx_HAL_Driver/Src/stm32l4xx_hal_flash_ex.c ****   }
1193:../../core/ST/STM32L4xx_HAL_Driver/Src/stm32l4xx_hal_flash_ex.c ****   else
1194:../../core/ST/STM32L4xx_HAL_Driver/Src/stm32l4xx_hal_flash_ex.c ****   {
1195:../../core/ST/STM32L4xx_HAL_Driver/Src/stm32l4xx_hal_flash_ex.c ****     return (READ_BIT(FLASH->OPTR, FLASH_OPTR_RDP));
 181              		.loc 1 1195 0 is_stmt 1
 182 000e 034B     		ldr	r3, .L21
 183              	.LVL12:
 184 0010 186A     		ldr	r0, [r3, #32]
 185 0012 C0B2     		uxtb	r0, r0
 186 0014 7047     		bx	lr
 187              	.LVL13:
 188              	.L20:
1191:../../core/ST/STM32L4xx_HAL_Driver/Src/stm32l4xx_hal_flash_ex.c ****   }
 189              		.loc 1 1191 0
 190 0016 BB20     		movs	r0, #187
1196:../../core/ST/STM32L4xx_HAL_Driver/Src/stm32l4xx_hal_flash_ex.c ****   }
1197:../../core/ST/STM32L4xx_HAL_Driver/Src/stm32l4xx_hal_flash_ex.c **** }
 191              		.loc 1 1197 0
 192 0018 7047     		bx	lr
 193              	.L22:
 194 001a 00BF     		.align	2
 195              	.L21:
 196 001c 00200240 		.word	1073881088
 197              		.cfi_endproc
 198              	.LFE135:
 200              		.section	.text.FLASH_OB_GetUser,"ax",%progbits
 201              		.align	1
 202              		.syntax unified
 203              		.thumb
 204              		.thumb_func
 205              		.fpu fpv4-sp-d16
 207              	FLASH_OB_GetUser:
 208              	.LFB136:
1198:../../core/ST/STM32L4xx_HAL_Driver/Src/stm32l4xx_hal_flash_ex.c **** 
1199:../../core/ST/STM32L4xx_HAL_Driver/Src/stm32l4xx_hal_flash_ex.c **** /**
1200:../../core/ST/STM32L4xx_HAL_Driver/Src/stm32l4xx_hal_flash_ex.c ****   * @brief  Return the FLASH User Option Byte value.
1201:../../core/ST/STM32L4xx_HAL_Driver/Src/stm32l4xx_hal_flash_ex.c ****   * @retval The FLASH User Option Bytes values: 
1202:../../core/ST/STM32L4xx_HAL_Driver/Src/stm32l4xx_hal_flash_ex.c ****   *      For STM32L47x/STM32L48x devices :
1203:../../core/ST/STM32L4xx_HAL_Driver/Src/stm32l4xx_hal_flash_ex.c ****   *         BOR_LEV(Bit8-10), nRST_STOP(Bit12), nRST_STDBY(Bit13), nRST_SHDW(Bit14), 
1204:../../core/ST/STM32L4xx_HAL_Driver/Src/stm32l4xx_hal_flash_ex.c ****   *         IWDG_SW(Bit16), IWDG_STOP(Bit17), IWDG_STDBY(Bit18), WWDG_SW(Bit19),  
1205:../../core/ST/STM32L4xx_HAL_Driver/Src/stm32l4xx_hal_flash_ex.c ****   *         BFB2(Bit20), DUALBANK(Bit21), nBOOT1(Bit23), SRAM2_PE(Bit24) and SRAM2_RST(Bit25). 
1206:../../core/ST/STM32L4xx_HAL_Driver/Src/stm32l4xx_hal_flash_ex.c ****   *      For STM32L43x/STM32L44x devices :
1207:../../core/ST/STM32L4xx_HAL_Driver/Src/stm32l4xx_hal_flash_ex.c ****   *         BOR_LEV(Bit8-10), nRST_STOP(Bit12), nRST_STDBY(Bit13), nRST_SHDW(Bit14),
1208:../../core/ST/STM32L4xx_HAL_Driver/Src/stm32l4xx_hal_flash_ex.c ****   *         IWDG_SW(Bit16), IWDG_STOP(Bit17), IWDG_STDBY(Bit18), WWDG_SW(Bit19),  
1209:../../core/ST/STM32L4xx_HAL_Driver/Src/stm32l4xx_hal_flash_ex.c ****   *         nBOOT1(Bit23), SRAM2_PE(Bit24), SRAM2_RST(Bit25), nSWBOOT0(Bit26) and nBOOT0(Bit27). 
1210:../../core/ST/STM32L4xx_HAL_Driver/Src/stm32l4xx_hal_flash_ex.c ****   */
1211:../../core/ST/STM32L4xx_HAL_Driver/Src/stm32l4xx_hal_flash_ex.c **** static uint32_t FLASH_OB_GetUser(void)
1212:../../core/ST/STM32L4xx_HAL_Driver/Src/stm32l4xx_hal_flash_ex.c **** {
 209              		.loc 1 1212 0
 210              		.cfi_startproc
 211              		@ args = 0, pretend = 0, frame = 0
ARM GAS  /tmp/ccZN3aKc.s 			page 26


 212              		@ frame_needed = 0, uses_anonymous_args = 0
 213              		@ link register save eliminated.
1213:../../core/ST/STM32L4xx_HAL_Driver/Src/stm32l4xx_hal_flash_ex.c ****   uint32_t user_config = READ_REG(FLASH->OPTR);
 214              		.loc 1 1213 0
 215 0000 024B     		ldr	r3, .L24
 216 0002 186A     		ldr	r0, [r3, #32]
 217              	.LVL14:
1214:../../core/ST/STM32L4xx_HAL_Driver/Src/stm32l4xx_hal_flash_ex.c ****   CLEAR_BIT(user_config, FLASH_OPTR_RDP);
1215:../../core/ST/STM32L4xx_HAL_Driver/Src/stm32l4xx_hal_flash_ex.c ****   
1216:../../core/ST/STM32L4xx_HAL_Driver/Src/stm32l4xx_hal_flash_ex.c ****   return user_config;
1217:../../core/ST/STM32L4xx_HAL_Driver/Src/stm32l4xx_hal_flash_ex.c **** }
 218              		.loc 1 1217 0
 219 0004 20F0FF00 		bic	r0, r0, #255
 220              	.LVL15:
 221 0008 7047     		bx	lr
 222              	.L25:
 223 000a 00BF     		.align	2
 224              	.L24:
 225 000c 00200240 		.word	1073881088
 226              		.cfi_endproc
 227              	.LFE136:
 229              		.section	.text.FLASH_OB_GetPCROP,"ax",%progbits
 230              		.align	1
 231              		.syntax unified
 232              		.thumb
 233              		.thumb_func
 234              		.fpu fpv4-sp-d16
 236              	FLASH_OB_GetPCROP:
 237              	.LFB137:
1218:../../core/ST/STM32L4xx_HAL_Driver/Src/stm32l4xx_hal_flash_ex.c **** 
1219:../../core/ST/STM32L4xx_HAL_Driver/Src/stm32l4xx_hal_flash_ex.c **** /**
1220:../../core/ST/STM32L4xx_HAL_Driver/Src/stm32l4xx_hal_flash_ex.c ****   * @brief  Return the FLASH Write Protection Option Bytes value.
1221:../../core/ST/STM32L4xx_HAL_Driver/Src/stm32l4xx_hal_flash_ex.c ****   *
1222:../../core/ST/STM32L4xx_HAL_Driver/Src/stm32l4xx_hal_flash_ex.c ****   * @param PCROPConfig [inout]: specifies the configuration (Bank to be configured and PCROP_RDP op
1223:../../core/ST/STM32L4xx_HAL_Driver/Src/stm32l4xx_hal_flash_ex.c ****   *          This parameter must be a combination of FLASH_BANK_1 or FLASH_BANK_2 
1224:../../core/ST/STM32L4xx_HAL_Driver/Src/stm32l4xx_hal_flash_ex.c ****   *          with OB_PCROP_RDP_NOT_ERASE or OB_PCROP_RDP_ERASE
1225:../../core/ST/STM32L4xx_HAL_Driver/Src/stm32l4xx_hal_flash_ex.c ****   *
1226:../../core/ST/STM32L4xx_HAL_Driver/Src/stm32l4xx_hal_flash_ex.c ****   * @param PCROPStartAddr [out]: specifies the address where to copied the start address 
1227:../../core/ST/STM32L4xx_HAL_Driver/Src/stm32l4xx_hal_flash_ex.c ****   *                         of the Proprietary code readout protection
1228:../../core/ST/STM32L4xx_HAL_Driver/Src/stm32l4xx_hal_flash_ex.c ****   *
1229:../../core/ST/STM32L4xx_HAL_Driver/Src/stm32l4xx_hal_flash_ex.c ****   * @param PCROPEndAddr [out]: specifies the address where to copied the end address of 
1230:../../core/ST/STM32L4xx_HAL_Driver/Src/stm32l4xx_hal_flash_ex.c ****   *                       the Proprietary code readout protection
1231:../../core/ST/STM32L4xx_HAL_Driver/Src/stm32l4xx_hal_flash_ex.c ****   *
1232:../../core/ST/STM32L4xx_HAL_Driver/Src/stm32l4xx_hal_flash_ex.c ****   * @retval None
1233:../../core/ST/STM32L4xx_HAL_Driver/Src/stm32l4xx_hal_flash_ex.c ****   */
1234:../../core/ST/STM32L4xx_HAL_Driver/Src/stm32l4xx_hal_flash_ex.c **** static void FLASH_OB_GetPCROP(uint32_t * PCROPConfig, uint32_t * PCROPStartAddr, uint32_t * PCROPEn
1235:../../core/ST/STM32L4xx_HAL_Driver/Src/stm32l4xx_hal_flash_ex.c **** {
 238              		.loc 1 1235 0
 239              		.cfi_startproc
 240              		@ args = 0, pretend = 0, frame = 0
 241              		@ frame_needed = 0, uses_anonymous_args = 0
 242              		@ link register save eliminated.
 243              	.LVL16:
 244 0000 70B4     		push	{r4, r5, r6}
 245              	.LCFI0:
 246              		.cfi_def_cfa_offset 12
 247              		.cfi_offset 4, -12
ARM GAS  /tmp/ccZN3aKc.s 			page 27


 248              		.cfi_offset 5, -8
 249              		.cfi_offset 6, -4
1236:../../core/ST/STM32L4xx_HAL_Driver/Src/stm32l4xx_hal_flash_ex.c ****   uint32_t reg_value;
1237:../../core/ST/STM32L4xx_HAL_Driver/Src/stm32l4xx_hal_flash_ex.c ****   uint32_t bank1_addr;
1238:../../core/ST/STM32L4xx_HAL_Driver/Src/stm32l4xx_hal_flash_ex.c **** #if defined (STM32L471xx) || defined (STM32L475xx) || defined (STM32L476xx) || defined (STM32L485xx
1239:../../core/ST/STM32L4xx_HAL_Driver/Src/stm32l4xx_hal_flash_ex.c ****     defined (STM32L496xx) || defined (STM32L4A6xx) || \
1240:../../core/ST/STM32L4xx_HAL_Driver/Src/stm32l4xx_hal_flash_ex.c ****     defined (STM32L4R5xx) || defined (STM32L4R7xx) || defined (STM32L4R9xx) || defined (STM32L4S5xx
1241:../../core/ST/STM32L4xx_HAL_Driver/Src/stm32l4xx_hal_flash_ex.c ****   uint32_t bank2_addr;
1242:../../core/ST/STM32L4xx_HAL_Driver/Src/stm32l4xx_hal_flash_ex.c **** #endif
1243:../../core/ST/STM32L4xx_HAL_Driver/Src/stm32l4xx_hal_flash_ex.c ****   
1244:../../core/ST/STM32L4xx_HAL_Driver/Src/stm32l4xx_hal_flash_ex.c **** #if defined (STM32L471xx) || defined (STM32L475xx) || defined (STM32L476xx) || defined (STM32L485xx
1245:../../core/ST/STM32L4xx_HAL_Driver/Src/stm32l4xx_hal_flash_ex.c ****     defined (STM32L496xx) || defined (STM32L4A6xx) || \
1246:../../core/ST/STM32L4xx_HAL_Driver/Src/stm32l4xx_hal_flash_ex.c ****     defined (STM32L4R5xx) || defined (STM32L4R7xx) || defined (STM32L4R9xx) || defined (STM32L4S5xx
1247:../../core/ST/STM32L4xx_HAL_Driver/Src/stm32l4xx_hal_flash_ex.c ****   /* Get the information about the bank swapping */
1248:../../core/ST/STM32L4xx_HAL_Driver/Src/stm32l4xx_hal_flash_ex.c ****   if (READ_BIT(SYSCFG->MEMRMP, SYSCFG_MEMRMP_FB_MODE) == 0U)
 250              		.loc 1 1248 0
 251 0002 294B     		ldr	r3, .L36
 252 0004 1B68     		ldr	r3, [r3]
 253 0006 13F4807F 		tst	r3, #256
 254 000a 1CD1     		bne	.L27
 255              	.LVL17:
1249:../../core/ST/STM32L4xx_HAL_Driver/Src/stm32l4xx_hal_flash_ex.c ****   {
1250:../../core/ST/STM32L4xx_HAL_Driver/Src/stm32l4xx_hal_flash_ex.c ****     bank1_addr = FLASH_BASE;
1251:../../core/ST/STM32L4xx_HAL_Driver/Src/stm32l4xx_hal_flash_ex.c ****     bank2_addr = FLASH_BASE + FLASH_BANK_SIZE;
 256              		.loc 1 1251 0
 257 000c 274B     		ldr	r3, .L36+4
 258 000e 1B68     		ldr	r3, [r3]
 259 0010 4FF6FF74 		movw	r4, #65535
 260 0014 A342     		cmp	r3, r4
 261 0016 24D0     		beq	.L31
 262              		.loc 1 1251 0 is_stmt 0 discriminator 1
 263 0018 254D     		ldr	r5, .L36+8
 264 001a 05EA4325 		and	r5, r5, r3, lsl #9
 265 001e 05F10065 		add	r5, r5, #134217728
1250:../../core/ST/STM32L4xx_HAL_Driver/Src/stm32l4xx_hal_flash_ex.c ****     bank2_addr = FLASH_BASE + FLASH_BANK_SIZE;
 266              		.loc 1 1250 0 is_stmt 1 discriminator 1
 267 0022 4FF00064 		mov	r4, #134217728
 268              	.LVL18:
 269              	.L28:
1252:../../core/ST/STM32L4xx_HAL_Driver/Src/stm32l4xx_hal_flash_ex.c ****   }
1253:../../core/ST/STM32L4xx_HAL_Driver/Src/stm32l4xx_hal_flash_ex.c ****   else
1254:../../core/ST/STM32L4xx_HAL_Driver/Src/stm32l4xx_hal_flash_ex.c ****   {
1255:../../core/ST/STM32L4xx_HAL_Driver/Src/stm32l4xx_hal_flash_ex.c ****     bank1_addr = FLASH_BASE + FLASH_BANK_SIZE;
1256:../../core/ST/STM32L4xx_HAL_Driver/Src/stm32l4xx_hal_flash_ex.c ****     bank2_addr = FLASH_BASE;
1257:../../core/ST/STM32L4xx_HAL_Driver/Src/stm32l4xx_hal_flash_ex.c ****   }
1258:../../core/ST/STM32L4xx_HAL_Driver/Src/stm32l4xx_hal_flash_ex.c **** #else
1259:../../core/ST/STM32L4xx_HAL_Driver/Src/stm32l4xx_hal_flash_ex.c ****   bank1_addr = FLASH_BASE;
1260:../../core/ST/STM32L4xx_HAL_Driver/Src/stm32l4xx_hal_flash_ex.c **** #endif
1261:../../core/ST/STM32L4xx_HAL_Driver/Src/stm32l4xx_hal_flash_ex.c ****   
1262:../../core/ST/STM32L4xx_HAL_Driver/Src/stm32l4xx_hal_flash_ex.c **** #if defined (STM32L4R5xx) || defined (STM32L4R7xx) || defined (STM32L4R9xx) || defined (STM32L4S5xx
1263:../../core/ST/STM32L4xx_HAL_Driver/Src/stm32l4xx_hal_flash_ex.c ****   if (READ_BIT(FLASH->OPTR, FLASH_OPTR_DBANK) == 0U)
1264:../../core/ST/STM32L4xx_HAL_Driver/Src/stm32l4xx_hal_flash_ex.c ****   {
1265:../../core/ST/STM32L4xx_HAL_Driver/Src/stm32l4xx_hal_flash_ex.c ****     if(((*PCROPConfig) & FLASH_BANK_BOTH) == FLASH_BANK_1)
1266:../../core/ST/STM32L4xx_HAL_Driver/Src/stm32l4xx_hal_flash_ex.c ****     {
1267:../../core/ST/STM32L4xx_HAL_Driver/Src/stm32l4xx_hal_flash_ex.c ****       reg_value       = (READ_REG(FLASH->PCROP1SR) & FLASH_PCROP1SR_PCROP1_STRT);
1268:../../core/ST/STM32L4xx_HAL_Driver/Src/stm32l4xx_hal_flash_ex.c ****       *PCROPStartAddr = (reg_value << 4) + FLASH_BASE;
1269:../../core/ST/STM32L4xx_HAL_Driver/Src/stm32l4xx_hal_flash_ex.c ****       
ARM GAS  /tmp/ccZN3aKc.s 			page 28


1270:../../core/ST/STM32L4xx_HAL_Driver/Src/stm32l4xx_hal_flash_ex.c ****       reg_value     = (READ_REG(FLASH->PCROP1ER) & FLASH_PCROP1ER_PCROP1_END);
1271:../../core/ST/STM32L4xx_HAL_Driver/Src/stm32l4xx_hal_flash_ex.c ****       *PCROPEndAddr = (reg_value << 4) + FLASH_BASE;
1272:../../core/ST/STM32L4xx_HAL_Driver/Src/stm32l4xx_hal_flash_ex.c ****     }
1273:../../core/ST/STM32L4xx_HAL_Driver/Src/stm32l4xx_hal_flash_ex.c ****     else if(((*PCROPConfig) & FLASH_BANK_BOTH) == FLASH_BANK_2)
1274:../../core/ST/STM32L4xx_HAL_Driver/Src/stm32l4xx_hal_flash_ex.c ****     {
1275:../../core/ST/STM32L4xx_HAL_Driver/Src/stm32l4xx_hal_flash_ex.c ****       reg_value       = (READ_REG(FLASH->PCROP2SR) & FLASH_PCROP2SR_PCROP2_STRT);
1276:../../core/ST/STM32L4xx_HAL_Driver/Src/stm32l4xx_hal_flash_ex.c ****       *PCROPStartAddr = (reg_value << 4) + FLASH_BASE;
1277:../../core/ST/STM32L4xx_HAL_Driver/Src/stm32l4xx_hal_flash_ex.c ****       
1278:../../core/ST/STM32L4xx_HAL_Driver/Src/stm32l4xx_hal_flash_ex.c ****       reg_value     = (READ_REG(FLASH->PCROP2ER) & FLASH_PCROP2ER_PCROP2_END);
1279:../../core/ST/STM32L4xx_HAL_Driver/Src/stm32l4xx_hal_flash_ex.c ****       *PCROPEndAddr = (reg_value << 4) + FLASH_BASE;
1280:../../core/ST/STM32L4xx_HAL_Driver/Src/stm32l4xx_hal_flash_ex.c ****     }
1281:../../core/ST/STM32L4xx_HAL_Driver/Src/stm32l4xx_hal_flash_ex.c ****     else
1282:../../core/ST/STM32L4xx_HAL_Driver/Src/stm32l4xx_hal_flash_ex.c ****     {
1283:../../core/ST/STM32L4xx_HAL_Driver/Src/stm32l4xx_hal_flash_ex.c ****       /* Nothing to do */
1284:../../core/ST/STM32L4xx_HAL_Driver/Src/stm32l4xx_hal_flash_ex.c ****     }
1285:../../core/ST/STM32L4xx_HAL_Driver/Src/stm32l4xx_hal_flash_ex.c ****   }
1286:../../core/ST/STM32L4xx_HAL_Driver/Src/stm32l4xx_hal_flash_ex.c ****   else
1287:../../core/ST/STM32L4xx_HAL_Driver/Src/stm32l4xx_hal_flash_ex.c **** #endif
1288:../../core/ST/STM32L4xx_HAL_Driver/Src/stm32l4xx_hal_flash_ex.c ****   {
1289:../../core/ST/STM32L4xx_HAL_Driver/Src/stm32l4xx_hal_flash_ex.c ****     if(((*PCROPConfig) & FLASH_BANK_BOTH) == FLASH_BANK_1)
 270              		.loc 1 1289 0
 271 0026 0368     		ldr	r3, [r0]
 272 0028 03F00303 		and	r3, r3, #3
 273 002c 012B     		cmp	r3, #1
 274 002e 20D0     		beq	.L34
1290:../../core/ST/STM32L4xx_HAL_Driver/Src/stm32l4xx_hal_flash_ex.c ****     {
1291:../../core/ST/STM32L4xx_HAL_Driver/Src/stm32l4xx_hal_flash_ex.c ****       reg_value       = (READ_REG(FLASH->PCROP1SR) & FLASH_PCROP1SR_PCROP1_STRT);
1292:../../core/ST/STM32L4xx_HAL_Driver/Src/stm32l4xx_hal_flash_ex.c ****       *PCROPStartAddr = (reg_value << 3) + bank1_addr;
1293:../../core/ST/STM32L4xx_HAL_Driver/Src/stm32l4xx_hal_flash_ex.c ****       
1294:../../core/ST/STM32L4xx_HAL_Driver/Src/stm32l4xx_hal_flash_ex.c ****       reg_value     = (READ_REG(FLASH->PCROP1ER) & FLASH_PCROP1ER_PCROP1_END);
1295:../../core/ST/STM32L4xx_HAL_Driver/Src/stm32l4xx_hal_flash_ex.c ****       *PCROPEndAddr = (reg_value << 3) + bank1_addr;
1296:../../core/ST/STM32L4xx_HAL_Driver/Src/stm32l4xx_hal_flash_ex.c ****     }
1297:../../core/ST/STM32L4xx_HAL_Driver/Src/stm32l4xx_hal_flash_ex.c **** #if defined (STM32L471xx) || defined (STM32L475xx) || defined (STM32L476xx) || defined (STM32L485xx
1298:../../core/ST/STM32L4xx_HAL_Driver/Src/stm32l4xx_hal_flash_ex.c ****     defined (STM32L496xx) || defined (STM32L4A6xx) || \
1299:../../core/ST/STM32L4xx_HAL_Driver/Src/stm32l4xx_hal_flash_ex.c ****     defined (STM32L4R5xx) || defined (STM32L4R7xx) || defined (STM32L4R9xx) || defined (STM32L4S5xx
1300:../../core/ST/STM32L4xx_HAL_Driver/Src/stm32l4xx_hal_flash_ex.c ****     else if(((*PCROPConfig) & FLASH_BANK_BOTH) == FLASH_BANK_2)
 275              		.loc 1 1300 0
 276 0030 022B     		cmp	r3, #2
 277 0032 2BD0     		beq	.L35
 278              	.LVL19:
 279              	.L30:
1301:../../core/ST/STM32L4xx_HAL_Driver/Src/stm32l4xx_hal_flash_ex.c ****     {
1302:../../core/ST/STM32L4xx_HAL_Driver/Src/stm32l4xx_hal_flash_ex.c ****       reg_value       = (READ_REG(FLASH->PCROP2SR) & FLASH_PCROP2SR_PCROP2_STRT);
1303:../../core/ST/STM32L4xx_HAL_Driver/Src/stm32l4xx_hal_flash_ex.c ****       *PCROPStartAddr = (reg_value << 3) + bank2_addr;
1304:../../core/ST/STM32L4xx_HAL_Driver/Src/stm32l4xx_hal_flash_ex.c ****       
1305:../../core/ST/STM32L4xx_HAL_Driver/Src/stm32l4xx_hal_flash_ex.c ****       reg_value     = (READ_REG(FLASH->PCROP2ER) & FLASH_PCROP2ER_PCROP2_END);
1306:../../core/ST/STM32L4xx_HAL_Driver/Src/stm32l4xx_hal_flash_ex.c ****       *PCROPEndAddr = (reg_value << 3) + bank2_addr;
1307:../../core/ST/STM32L4xx_HAL_Driver/Src/stm32l4xx_hal_flash_ex.c ****     }
1308:../../core/ST/STM32L4xx_HAL_Driver/Src/stm32l4xx_hal_flash_ex.c **** #endif
1309:../../core/ST/STM32L4xx_HAL_Driver/Src/stm32l4xx_hal_flash_ex.c ****     else
1310:../../core/ST/STM32L4xx_HAL_Driver/Src/stm32l4xx_hal_flash_ex.c ****     {
1311:../../core/ST/STM32L4xx_HAL_Driver/Src/stm32l4xx_hal_flash_ex.c ****       /* Nothing to do */
1312:../../core/ST/STM32L4xx_HAL_Driver/Src/stm32l4xx_hal_flash_ex.c ****     }
1313:../../core/ST/STM32L4xx_HAL_Driver/Src/stm32l4xx_hal_flash_ex.c ****   }
1314:../../core/ST/STM32L4xx_HAL_Driver/Src/stm32l4xx_hal_flash_ex.c ****   
1315:../../core/ST/STM32L4xx_HAL_Driver/Src/stm32l4xx_hal_flash_ex.c ****   *PCROPConfig |= (READ_REG(FLASH->PCROP1ER) & FLASH_PCROP1ER_PCROP_RDP);
 280              		.loc 1 1315 0
ARM GAS  /tmp/ccZN3aKc.s 			page 29


 281 0034 1F4B     		ldr	r3, .L36+12
 282 0036 9A6A     		ldr	r2, [r3, #40]
 283              	.LVL20:
 284 0038 02F00042 		and	r2, r2, #-2147483648
 285 003c 0368     		ldr	r3, [r0]
 286 003e 1343     		orrs	r3, r3, r2
 287 0040 0360     		str	r3, [r0]
1316:../../core/ST/STM32L4xx_HAL_Driver/Src/stm32l4xx_hal_flash_ex.c **** }
 288              		.loc 1 1316 0
 289 0042 70BC     		pop	{r4, r5, r6}
 290              	.LCFI1:
 291              		.cfi_remember_state
 292              		.cfi_restore 6
 293              		.cfi_restore 5
 294              		.cfi_restore 4
 295              		.cfi_def_cfa_offset 0
 296 0044 7047     		bx	lr
 297              	.LVL21:
 298              	.L27:
 299              	.LCFI2:
 300              		.cfi_restore_state
1255:../../core/ST/STM32L4xx_HAL_Driver/Src/stm32l4xx_hal_flash_ex.c ****     bank2_addr = FLASH_BASE;
 301              		.loc 1 1255 0
 302 0046 194B     		ldr	r3, .L36+4
 303 0048 1B68     		ldr	r3, [r3]
 304 004a 4FF6FF74 		movw	r4, #65535
 305 004e A342     		cmp	r3, r4
 306 0050 0BD0     		beq	.L32
1255:../../core/ST/STM32L4xx_HAL_Driver/Src/stm32l4xx_hal_flash_ex.c ****     bank2_addr = FLASH_BASE;
 307              		.loc 1 1255 0 is_stmt 0 discriminator 1
 308 0052 174C     		ldr	r4, .L36+8
 309 0054 04EA4324 		and	r4, r4, r3, lsl #9
 310 0058 04F10064 		add	r4, r4, #134217728
1256:../../core/ST/STM32L4xx_HAL_Driver/Src/stm32l4xx_hal_flash_ex.c ****   }
 311              		.loc 1 1256 0 is_stmt 1 discriminator 1
 312 005c 4FF00065 		mov	r5, #134217728
 313 0060 E1E7     		b	.L28
 314              	.LVL22:
 315              	.L31:
1251:../../core/ST/STM32L4xx_HAL_Driver/Src/stm32l4xx_hal_flash_ex.c ****   }
 316              		.loc 1 1251 0
 317 0062 154D     		ldr	r5, .L36+16
1250:../../core/ST/STM32L4xx_HAL_Driver/Src/stm32l4xx_hal_flash_ex.c ****     bank2_addr = FLASH_BASE + FLASH_BANK_SIZE;
 318              		.loc 1 1250 0
 319 0064 4FF00064 		mov	r4, #134217728
 320 0068 DDE7     		b	.L28
 321              	.LVL23:
 322              	.L32:
1256:../../core/ST/STM32L4xx_HAL_Driver/Src/stm32l4xx_hal_flash_ex.c ****   }
 323              		.loc 1 1256 0
 324 006a 4FF00065 		mov	r5, #134217728
1255:../../core/ST/STM32L4xx_HAL_Driver/Src/stm32l4xx_hal_flash_ex.c ****     bank2_addr = FLASH_BASE;
 325              		.loc 1 1255 0
 326 006e 124C     		ldr	r4, .L36+16
 327 0070 D9E7     		b	.L28
 328              	.LVL24:
 329              	.L34:
ARM GAS  /tmp/ccZN3aKc.s 			page 30


1291:../../core/ST/STM32L4xx_HAL_Driver/Src/stm32l4xx_hal_flash_ex.c ****       *PCROPStartAddr = (reg_value << 3) + bank1_addr;
 330              		.loc 1 1291 0
 331 0072 104E     		ldr	r6, .L36+12
 332 0074 756A     		ldr	r5, [r6, #36]
 333              	.LVL25:
1292:../../core/ST/STM32L4xx_HAL_Driver/Src/stm32l4xx_hal_flash_ex.c ****       
 334              		.loc 1 1292 0
 335 0076 114B     		ldr	r3, .L36+20
 336 0078 03EAC505 		and	r5, r3, r5, lsl #3
 337              	.LVL26:
 338 007c 2544     		add	r5, r5, r4
 339 007e 0D60     		str	r5, [r1]
1294:../../core/ST/STM32L4xx_HAL_Driver/Src/stm32l4xx_hal_flash_ex.c ****       *PCROPEndAddr = (reg_value << 3) + bank1_addr;
 340              		.loc 1 1294 0
 341 0080 B16A     		ldr	r1, [r6, #40]
 342              	.LVL27:
1295:../../core/ST/STM32L4xx_HAL_Driver/Src/stm32l4xx_hal_flash_ex.c ****     }
 343              		.loc 1 1295 0
 344 0082 03EAC103 		and	r3, r3, r1, lsl #3
 345 0086 1C44     		add	r4, r4, r3
 346              	.LVL28:
 347 0088 1460     		str	r4, [r2]
 348 008a D3E7     		b	.L30
 349              	.LVL29:
 350              	.L35:
1302:../../core/ST/STM32L4xx_HAL_Driver/Src/stm32l4xx_hal_flash_ex.c ****       *PCROPStartAddr = (reg_value << 3) + bank2_addr;
 351              		.loc 1 1302 0
 352 008c 094E     		ldr	r6, .L36+12
 353 008e 746C     		ldr	r4, [r6, #68]
 354              	.LVL30:
1303:../../core/ST/STM32L4xx_HAL_Driver/Src/stm32l4xx_hal_flash_ex.c ****       
 355              		.loc 1 1303 0
 356 0090 0A4B     		ldr	r3, .L36+20
 357 0092 03EAC404 		and	r4, r3, r4, lsl #3
 358              	.LVL31:
 359 0096 2C44     		add	r4, r4, r5
 360 0098 0C60     		str	r4, [r1]
1305:../../core/ST/STM32L4xx_HAL_Driver/Src/stm32l4xx_hal_flash_ex.c ****       *PCROPEndAddr = (reg_value << 3) + bank2_addr;
 361              		.loc 1 1305 0
 362 009a B16C     		ldr	r1, [r6, #72]
 363              	.LVL32:
1306:../../core/ST/STM32L4xx_HAL_Driver/Src/stm32l4xx_hal_flash_ex.c ****     }
 364              		.loc 1 1306 0
 365 009c 03EAC103 		and	r3, r3, r1, lsl #3
 366 00a0 1D44     		add	r5, r5, r3
 367              	.LVL33:
 368 00a2 1560     		str	r5, [r2]
 369 00a4 C6E7     		b	.L30
 370              	.L37:
 371 00a6 00BF     		.align	2
 372              	.L36:
 373 00a8 00000140 		.word	1073807360
 374 00ac E075FF1F 		.word	536835552
 375 00b0 00FE1F00 		.word	2096640
 376 00b4 00200240 		.word	1073881088
 377 00b8 00000808 		.word	134742016
 378 00bc F8FF0700 		.word	524280
ARM GAS  /tmp/ccZN3aKc.s 			page 31


 379              		.cfi_endproc
 380              	.LFE137:
 382              		.section	.text.FLASH_OB_WRPConfig,"ax",%progbits
 383              		.align	1
 384              		.syntax unified
 385              		.thumb
 386              		.thumb_func
 387              		.fpu fpv4-sp-d16
 389              	FLASH_OB_WRPConfig:
 390              	.LFB130:
 680:../../core/ST/STM32L4xx_HAL_Driver/Src/stm32l4xx_hal_flash_ex.c ****   HAL_StatusTypeDef status;
 391              		.loc 1 680 0
 392              		.cfi_startproc
 393              		@ args = 0, pretend = 0, frame = 0
 394              		@ frame_needed = 0, uses_anonymous_args = 0
 395              	.LVL34:
 396 0000 70B5     		push	{r4, r5, r6, lr}
 397              	.LCFI3:
 398              		.cfi_def_cfa_offset 16
 399              		.cfi_offset 4, -16
 400              		.cfi_offset 5, -12
 401              		.cfi_offset 6, -8
 402              		.cfi_offset 14, -4
 403 0002 0546     		mov	r5, r0
 404 0004 0C46     		mov	r4, r1
 405 0006 1646     		mov	r6, r2
 689:../../core/ST/STM32L4xx_HAL_Driver/Src/stm32l4xx_hal_flash_ex.c **** 
 406              		.loc 1 689 0
 407 0008 4CF25030 		movw	r0, #50000
 408              	.LVL35:
 409 000c FFF7FEFF 		bl	FLASH_WaitForLastOperation
 410              	.LVL36:
 691:../../core/ST/STM32L4xx_HAL_Driver/Src/stm32l4xx_hal_flash_ex.c ****   {
 411              		.loc 1 691 0
 412 0010 0346     		mov	r3, r0
 413 0012 B0B9     		cbnz	r0, .L39
 694:../../core/ST/STM32L4xx_HAL_Driver/Src/stm32l4xx_hal_flash_ex.c ****     {
 414              		.loc 1 694 0
 415 0014 BDB9     		cbnz	r5, .L40
 696:../../core/ST/STM32L4xx_HAL_Driver/Src/stm32l4xx_hal_flash_ex.c ****                  (WRPStartOffset | (WRDPEndOffset << 16)));
 416              		.loc 1 696 0
 417 0016 1C4A     		ldr	r2, .L47
 418 0018 D36A     		ldr	r3, [r2, #44]
 419 001a 03F0FF23 		and	r3, r3, #-16711936
 420 001e 44EA0644 		orr	r4, r4, r6, lsl #16
 421              	.LVL37:
 422 0022 1C43     		orrs	r4, r4, r3
 423 0024 D462     		str	r4, [r2, #44]
 424              	.L41:
 724:../../core/ST/STM32L4xx_HAL_Driver/Src/stm32l4xx_hal_flash_ex.c ****     
 425              		.loc 1 724 0
 426 0026 184C     		ldr	r4, .L47
 427 0028 6369     		ldr	r3, [r4, #20]
 428 002a 43F40033 		orr	r3, r3, #131072
 429 002e 6361     		str	r3, [r4, #20]
 727:../../core/ST/STM32L4xx_HAL_Driver/Src/stm32l4xx_hal_flash_ex.c **** 
 430              		.loc 1 727 0
ARM GAS  /tmp/ccZN3aKc.s 			page 32


 431 0030 4CF25030 		movw	r0, #50000
 432              	.LVL38:
 433 0034 FFF7FEFF 		bl	FLASH_WaitForLastOperation
 434              	.LVL39:
 435 0038 0346     		mov	r3, r0
 436              	.LVL40:
 730:../../core/ST/STM32L4xx_HAL_Driver/Src/stm32l4xx_hal_flash_ex.c ****   }
 437              		.loc 1 730 0
 438 003a 6269     		ldr	r2, [r4, #20]
 439 003c 22F40032 		bic	r2, r2, #131072
 440 0040 6261     		str	r2, [r4, #20]
 441              	.LVL41:
 442              	.L39:
 734:../../core/ST/STM32L4xx_HAL_Driver/Src/stm32l4xx_hal_flash_ex.c **** 
 443              		.loc 1 734 0
 444 0042 1846     		mov	r0, r3
 445 0044 70BD     		pop	{r4, r5, r6, pc}
 446              	.LVL42:
 447              	.L40:
 699:../../core/ST/STM32L4xx_HAL_Driver/Src/stm32l4xx_hal_flash_ex.c ****     {
 448              		.loc 1 699 0
 449 0046 012D     		cmp	r5, #1
 450 0048 0CD0     		beq	.L45
 707:../../core/ST/STM32L4xx_HAL_Driver/Src/stm32l4xx_hal_flash_ex.c ****     {
 451              		.loc 1 707 0
 452 004a 022D     		cmp	r5, #2
 453 004c 13D0     		beq	.L46
 712:../../core/ST/STM32L4xx_HAL_Driver/Src/stm32l4xx_hal_flash_ex.c ****     {
 454              		.loc 1 712 0
 455 004e 042D     		cmp	r5, #4
 456 0050 E9D1     		bne	.L41
 714:../../core/ST/STM32L4xx_HAL_Driver/Src/stm32l4xx_hal_flash_ex.c ****                  (WRPStartOffset | (WRDPEndOffset << 16)));
 457              		.loc 1 714 0
 458 0052 0D4A     		ldr	r2, .L47
 459 0054 136D     		ldr	r3, [r2, #80]
 460 0056 03F0FF23 		and	r3, r3, #-16711936
 461 005a 44EA0644 		orr	r4, r4, r6, lsl #16
 462              	.LVL43:
 463 005e 1C43     		orrs	r4, r4, r3
 464 0060 1465     		str	r4, [r2, #80]
 465 0062 E0E7     		b	.L41
 466              	.LVL44:
 467              	.L45:
 701:../../core/ST/STM32L4xx_HAL_Driver/Src/stm32l4xx_hal_flash_ex.c ****                  (WRPStartOffset | (WRDPEndOffset << 16)));
 468              		.loc 1 701 0
 469 0064 084A     		ldr	r2, .L47
 470 0066 136B     		ldr	r3, [r2, #48]
 471 0068 03F0FF23 		and	r3, r3, #-16711936
 472 006c 44EA0644 		orr	r4, r4, r6, lsl #16
 473              	.LVL45:
 474 0070 1C43     		orrs	r4, r4, r3
 475 0072 1463     		str	r4, [r2, #48]
 476 0074 D7E7     		b	.L41
 477              	.LVL46:
 478              	.L46:
 709:../../core/ST/STM32L4xx_HAL_Driver/Src/stm32l4xx_hal_flash_ex.c ****                  (WRPStartOffset | (WRDPEndOffset << 16)));
 479              		.loc 1 709 0
ARM GAS  /tmp/ccZN3aKc.s 			page 33


 480 0076 044A     		ldr	r2, .L47
 481 0078 D36C     		ldr	r3, [r2, #76]
 482 007a 03F0FF23 		and	r3, r3, #-16711936
 483 007e 44EA0644 		orr	r4, r4, r6, lsl #16
 484              	.LVL47:
 485 0082 1C43     		orrs	r4, r4, r3
 486 0084 D464     		str	r4, [r2, #76]
 487 0086 CEE7     		b	.L41
 488              	.L48:
 489              		.align	2
 490              	.L47:
 491 0088 00200240 		.word	1073881088
 492              		.cfi_endproc
 493              	.LFE130:
 495              		.section	.text.FLASH_OB_RDPConfig,"ax",%progbits
 496              		.align	1
 497              		.syntax unified
 498              		.thumb
 499              		.thumb_func
 500              		.fpu fpv4-sp-d16
 502              	FLASH_OB_RDPConfig:
 503              	.LFB131:
 755:../../core/ST/STM32L4xx_HAL_Driver/Src/stm32l4xx_hal_flash_ex.c ****   HAL_StatusTypeDef status;
 504              		.loc 1 755 0
 505              		.cfi_startproc
 506              		@ args = 0, pretend = 0, frame = 0
 507              		@ frame_needed = 0, uses_anonymous_args = 0
 508              	.LVL48:
 509 0000 38B5     		push	{r3, r4, r5, lr}
 510              	.LCFI4:
 511              		.cfi_def_cfa_offset 16
 512              		.cfi_offset 3, -16
 513              		.cfi_offset 4, -12
 514              		.cfi_offset 5, -8
 515              		.cfi_offset 14, -4
 516 0002 0546     		mov	r5, r0
 762:../../core/ST/STM32L4xx_HAL_Driver/Src/stm32l4xx_hal_flash_ex.c **** 
 517              		.loc 1 762 0
 518 0004 4CF25030 		movw	r0, #50000
 519              	.LVL49:
 520 0008 FFF7FEFF 		bl	FLASH_WaitForLastOperation
 521              	.LVL50:
 764:../../core/ST/STM32L4xx_HAL_Driver/Src/stm32l4xx_hal_flash_ex.c ****   { 
 522              		.loc 1 764 0
 523 000c 0346     		mov	r3, r0
 524 000e 08B1     		cbz	r0, .L52
 525              	.LVL51:
 526              	.L50:
 780:../../core/ST/STM32L4xx_HAL_Driver/Src/stm32l4xx_hal_flash_ex.c **** 
 527              		.loc 1 780 0
 528 0010 1846     		mov	r0, r3
 529 0012 38BD     		pop	{r3, r4, r5, pc}
 530              	.LVL52:
 531              	.L52:
 767:../../core/ST/STM32L4xx_HAL_Driver/Src/stm32l4xx_hal_flash_ex.c ****     
 532              		.loc 1 767 0
 533 0014 094C     		ldr	r4, .L53
ARM GAS  /tmp/ccZN3aKc.s 			page 34


 534 0016 206A     		ldr	r0, [r4, #32]
 535              	.LVL53:
 536 0018 20F0FF00 		bic	r0, r0, #255
 537 001c 2843     		orrs	r0, r0, r5
 538 001e 2062     		str	r0, [r4, #32]
 770:../../core/ST/STM32L4xx_HAL_Driver/Src/stm32l4xx_hal_flash_ex.c ****     
 539              		.loc 1 770 0
 540 0020 6369     		ldr	r3, [r4, #20]
 541 0022 43F40033 		orr	r3, r3, #131072
 542 0026 6361     		str	r3, [r4, #20]
 773:../../core/ST/STM32L4xx_HAL_Driver/Src/stm32l4xx_hal_flash_ex.c **** 
 543              		.loc 1 773 0
 544 0028 4CF25030 		movw	r0, #50000
 545 002c FFF7FEFF 		bl	FLASH_WaitForLastOperation
 546              	.LVL54:
 547 0030 0346     		mov	r3, r0
 548              	.LVL55:
 776:../../core/ST/STM32L4xx_HAL_Driver/Src/stm32l4xx_hal_flash_ex.c ****   }
 549              		.loc 1 776 0
 550 0032 6269     		ldr	r2, [r4, #20]
 551 0034 22F40032 		bic	r2, r2, #131072
 552 0038 6261     		str	r2, [r4, #20]
 553 003a E9E7     		b	.L50
 554              	.L54:
 555              		.align	2
 556              	.L53:
 557 003c 00200240 		.word	1073881088
 558              		.cfi_endproc
 559              	.LFE131:
 561              		.section	.text.FLASH_OB_UserConfig,"ax",%progbits
 562              		.align	1
 563              		.syntax unified
 564              		.thumb
 565              		.thumb_func
 566              		.fpu fpv4-sp-d16
 568              	FLASH_OB_UserConfig:
 569              	.LFB132:
 799:../../core/ST/STM32L4xx_HAL_Driver/Src/stm32l4xx_hal_flash_ex.c ****   uint32_t optr_reg_val = 0;
 570              		.loc 1 799 0
 571              		.cfi_startproc
 572              		@ args = 0, pretend = 0, frame = 0
 573              		@ frame_needed = 0, uses_anonymous_args = 0
 574              	.LVL56:
 575 0000 38B5     		push	{r3, r4, r5, lr}
 576              	.LCFI5:
 577              		.cfi_def_cfa_offset 16
 578              		.cfi_offset 3, -16
 579              		.cfi_offset 4, -12
 580              		.cfi_offset 5, -8
 581              		.cfi_offset 14, -4
 582 0002 0446     		mov	r4, r0
 583 0004 0D46     		mov	r5, r1
 584              	.LVL57:
 808:../../core/ST/STM32L4xx_HAL_Driver/Src/stm32l4xx_hal_flash_ex.c **** 
 585              		.loc 1 808 0
 586 0006 4CF25030 		movw	r0, #50000
 587              	.LVL58:
ARM GAS  /tmp/ccZN3aKc.s 			page 35


 588 000a FFF7FEFF 		bl	FLASH_WaitForLastOperation
 589              	.LVL59:
 810:../../core/ST/STM32L4xx_HAL_Driver/Src/stm32l4xx_hal_flash_ex.c ****   { 
 590              		.loc 1 810 0
 591 000e 0346     		mov	r3, r0
 592 0010 0028     		cmp	r0, #0
 593 0012 40F08B80 		bne	.L56
 812:../../core/ST/STM32L4xx_HAL_Driver/Src/stm32l4xx_hal_flash_ex.c ****     {
 594              		.loc 1 812 0
 595 0016 14F0010F 		tst	r4, #1
 596 001a 00F08980 		beq	.L72
 818:../../core/ST/STM32L4xx_HAL_Driver/Src/stm32l4xx_hal_flash_ex.c ****       optr_reg_mask |= FLASH_OPTR_BOR_LEV;
 597              		.loc 1 818 0
 598 001e 05F4E062 		and	r2, r5, #1792
 599              	.LVL60:
 819:../../core/ST/STM32L4xx_HAL_Driver/Src/stm32l4xx_hal_flash_ex.c ****     }
 600              		.loc 1 819 0
 601 0022 4FF4E063 		mov	r3, #1792
 602              	.LVL61:
 603              	.L57:
 822:../../core/ST/STM32L4xx_HAL_Driver/Src/stm32l4xx_hal_flash_ex.c ****     {
 604              		.loc 1 822 0
 605 0026 14F0020F 		tst	r4, #2
 606 002a 04D0     		beq	.L58
 828:../../core/ST/STM32L4xx_HAL_Driver/Src/stm32l4xx_hal_flash_ex.c ****       optr_reg_mask |= FLASH_OPTR_nRST_STOP;
 607              		.loc 1 828 0
 608 002c 05F48051 		and	r1, r5, #4096
 609 0030 0A43     		orrs	r2, r2, r1
 610              	.LVL62:
 829:../../core/ST/STM32L4xx_HAL_Driver/Src/stm32l4xx_hal_flash_ex.c ****     }
 611              		.loc 1 829 0
 612 0032 43F48053 		orr	r3, r3, #4096
 613              	.LVL63:
 614              	.L58:
 832:../../core/ST/STM32L4xx_HAL_Driver/Src/stm32l4xx_hal_flash_ex.c ****     {
 615              		.loc 1 832 0
 616 0036 14F0040F 		tst	r4, #4
 617 003a 04D0     		beq	.L59
 838:../../core/ST/STM32L4xx_HAL_Driver/Src/stm32l4xx_hal_flash_ex.c ****       optr_reg_mask |= FLASH_OPTR_nRST_STDBY;
 618              		.loc 1 838 0
 619 003c 05F40051 		and	r1, r5, #8192
 620 0040 0A43     		orrs	r2, r2, r1
 621              	.LVL64:
 839:../../core/ST/STM32L4xx_HAL_Driver/Src/stm32l4xx_hal_flash_ex.c ****     }
 622              		.loc 1 839 0
 623 0042 43F40053 		orr	r3, r3, #8192
 624              	.LVL65:
 625              	.L59:
 842:../../core/ST/STM32L4xx_HAL_Driver/Src/stm32l4xx_hal_flash_ex.c ****     {
 626              		.loc 1 842 0
 627 0046 14F4805F 		tst	r4, #4096
 628 004a 04D0     		beq	.L60
 848:../../core/ST/STM32L4xx_HAL_Driver/Src/stm32l4xx_hal_flash_ex.c ****       optr_reg_mask |= FLASH_OPTR_nRST_SHDW;
 629              		.loc 1 848 0
 630 004c 05F48041 		and	r1, r5, #16384
 631 0050 0A43     		orrs	r2, r2, r1
 632              	.LVL66:
ARM GAS  /tmp/ccZN3aKc.s 			page 36


 849:../../core/ST/STM32L4xx_HAL_Driver/Src/stm32l4xx_hal_flash_ex.c ****     }
 633              		.loc 1 849 0
 634 0052 43F48043 		orr	r3, r3, #16384
 635              	.LVL67:
 636              	.L60:
 852:../../core/ST/STM32L4xx_HAL_Driver/Src/stm32l4xx_hal_flash_ex.c ****     {
 637              		.loc 1 852 0
 638 0056 14F0080F 		tst	r4, #8
 639 005a 04D0     		beq	.L61
 858:../../core/ST/STM32L4xx_HAL_Driver/Src/stm32l4xx_hal_flash_ex.c ****       optr_reg_mask |= FLASH_OPTR_IWDG_SW;
 640              		.loc 1 858 0
 641 005c 05F48031 		and	r1, r5, #65536
 642 0060 0A43     		orrs	r2, r2, r1
 643              	.LVL68:
 859:../../core/ST/STM32L4xx_HAL_Driver/Src/stm32l4xx_hal_flash_ex.c ****     }
 644              		.loc 1 859 0
 645 0062 43F48033 		orr	r3, r3, #65536
 646              	.LVL69:
 647              	.L61:
 862:../../core/ST/STM32L4xx_HAL_Driver/Src/stm32l4xx_hal_flash_ex.c ****     {
 648              		.loc 1 862 0
 649 0066 14F0100F 		tst	r4, #16
 650 006a 04D0     		beq	.L62
 868:../../core/ST/STM32L4xx_HAL_Driver/Src/stm32l4xx_hal_flash_ex.c ****       optr_reg_mask |= FLASH_OPTR_IWDG_STOP;
 651              		.loc 1 868 0
 652 006c 05F40031 		and	r1, r5, #131072
 653 0070 0A43     		orrs	r2, r2, r1
 654              	.LVL70:
 869:../../core/ST/STM32L4xx_HAL_Driver/Src/stm32l4xx_hal_flash_ex.c ****     }
 655              		.loc 1 869 0
 656 0072 43F40033 		orr	r3, r3, #131072
 657              	.LVL71:
 658              	.L62:
 872:../../core/ST/STM32L4xx_HAL_Driver/Src/stm32l4xx_hal_flash_ex.c ****     {
 659              		.loc 1 872 0
 660 0076 14F0200F 		tst	r4, #32
 661 007a 04D0     		beq	.L63
 878:../../core/ST/STM32L4xx_HAL_Driver/Src/stm32l4xx_hal_flash_ex.c ****       optr_reg_mask |= FLASH_OPTR_IWDG_STDBY;
 662              		.loc 1 878 0
 663 007c 05F48021 		and	r1, r5, #262144
 664 0080 0A43     		orrs	r2, r2, r1
 665              	.LVL72:
 879:../../core/ST/STM32L4xx_HAL_Driver/Src/stm32l4xx_hal_flash_ex.c ****     }
 666              		.loc 1 879 0
 667 0082 43F48023 		orr	r3, r3, #262144
 668              	.LVL73:
 669              	.L63:
 882:../../core/ST/STM32L4xx_HAL_Driver/Src/stm32l4xx_hal_flash_ex.c ****     {
 670              		.loc 1 882 0
 671 0086 14F0400F 		tst	r4, #64
 672 008a 04D0     		beq	.L64
 888:../../core/ST/STM32L4xx_HAL_Driver/Src/stm32l4xx_hal_flash_ex.c ****       optr_reg_mask |= FLASH_OPTR_WWDG_SW;
 673              		.loc 1 888 0
 674 008c 05F40021 		and	r1, r5, #524288
 675 0090 0A43     		orrs	r2, r2, r1
 676              	.LVL74:
 889:../../core/ST/STM32L4xx_HAL_Driver/Src/stm32l4xx_hal_flash_ex.c ****     }
ARM GAS  /tmp/ccZN3aKc.s 			page 37


 677              		.loc 1 889 0
 678 0092 43F40023 		orr	r3, r3, #524288
 679              	.LVL75:
 680              	.L64:
 895:../../core/ST/STM32L4xx_HAL_Driver/Src/stm32l4xx_hal_flash_ex.c ****     {
 681              		.loc 1 895 0
 682 0096 14F0800F 		tst	r4, #128
 683 009a 04D0     		beq	.L65
 901:../../core/ST/STM32L4xx_HAL_Driver/Src/stm32l4xx_hal_flash_ex.c ****       optr_reg_mask |= FLASH_OPTR_BFB2;
 684              		.loc 1 901 0
 685 009c 05F48011 		and	r1, r5, #1048576
 686 00a0 0A43     		orrs	r2, r2, r1
 687              	.LVL76:
 902:../../core/ST/STM32L4xx_HAL_Driver/Src/stm32l4xx_hal_flash_ex.c ****     }
 688              		.loc 1 902 0
 689 00a2 43F48013 		orr	r3, r3, #1048576
 690              	.LVL77:
 691              	.L65:
 905:../../core/ST/STM32L4xx_HAL_Driver/Src/stm32l4xx_hal_flash_ex.c ****     {
 692              		.loc 1 905 0
 693 00a6 14F4807F 		tst	r4, #256
 694 00aa 04D0     		beq	.L66
 919:../../core/ST/STM32L4xx_HAL_Driver/Src/stm32l4xx_hal_flash_ex.c ****       optr_reg_mask |= FLASH_OPTR_DUALBANK;
 695              		.loc 1 919 0
 696 00ac 05F40011 		and	r1, r5, #2097152
 697 00b0 0A43     		orrs	r2, r2, r1
 698              	.LVL78:
 920:../../core/ST/STM32L4xx_HAL_Driver/Src/stm32l4xx_hal_flash_ex.c **** #endif
 699              		.loc 1 920 0
 700 00b2 43F40013 		orr	r3, r3, #2097152
 701              	.LVL79:
 702              	.L66:
 925:../../core/ST/STM32L4xx_HAL_Driver/Src/stm32l4xx_hal_flash_ex.c ****     {
 703              		.loc 1 925 0
 704 00b6 14F4007F 		tst	r4, #512
 705 00ba 04D0     		beq	.L67
 931:../../core/ST/STM32L4xx_HAL_Driver/Src/stm32l4xx_hal_flash_ex.c ****       optr_reg_mask |= FLASH_OPTR_nBOOT1;
 706              		.loc 1 931 0
 707 00bc 05F40001 		and	r1, r5, #8388608
 708 00c0 0A43     		orrs	r2, r2, r1
 709              	.LVL80:
 932:../../core/ST/STM32L4xx_HAL_Driver/Src/stm32l4xx_hal_flash_ex.c ****     }
 710              		.loc 1 932 0
 711 00c2 43F40003 		orr	r3, r3, #8388608
 712              	.LVL81:
 713              	.L67:
 935:../../core/ST/STM32L4xx_HAL_Driver/Src/stm32l4xx_hal_flash_ex.c ****     {
 714              		.loc 1 935 0
 715 00c6 14F4806F 		tst	r4, #1024
 716 00ca 04D0     		beq	.L68
 941:../../core/ST/STM32L4xx_HAL_Driver/Src/stm32l4xx_hal_flash_ex.c ****       optr_reg_mask |= FLASH_OPTR_SRAM2_PE;
 717              		.loc 1 941 0
 718 00cc 05F08071 		and	r1, r5, #16777216
 719 00d0 0A43     		orrs	r2, r2, r1
 720              	.LVL82:
 942:../../core/ST/STM32L4xx_HAL_Driver/Src/stm32l4xx_hal_flash_ex.c ****     }
 721              		.loc 1 942 0
ARM GAS  /tmp/ccZN3aKc.s 			page 38


 722 00d2 43F08073 		orr	r3, r3, #16777216
 723              	.LVL83:
 724              	.L68:
 945:../../core/ST/STM32L4xx_HAL_Driver/Src/stm32l4xx_hal_flash_ex.c ****     {
 725              		.loc 1 945 0
 726 00d6 14F4006F 		tst	r4, #2048
 727 00da 04D0     		beq	.L69
 951:../../core/ST/STM32L4xx_HAL_Driver/Src/stm32l4xx_hal_flash_ex.c ****       optr_reg_mask |= FLASH_OPTR_SRAM2_RST;
 728              		.loc 1 951 0
 729 00dc 05F00071 		and	r1, r5, #33554432
 730 00e0 0A43     		orrs	r2, r2, r1
 731              	.LVL84:
 952:../../core/ST/STM32L4xx_HAL_Driver/Src/stm32l4xx_hal_flash_ex.c ****     }
 732              		.loc 1 952 0
 733 00e2 43F00073 		orr	r3, r3, #33554432
 734              	.LVL85:
 735              	.L69:
 959:../../core/ST/STM32L4xx_HAL_Driver/Src/stm32l4xx_hal_flash_ex.c ****     {
 736              		.loc 1 959 0
 737 00e6 14F4005F 		tst	r4, #8192
 738 00ea 04D0     		beq	.L70
 965:../../core/ST/STM32L4xx_HAL_Driver/Src/stm32l4xx_hal_flash_ex.c ****       optr_reg_mask |= FLASH_OPTR_nSWBOOT0;
 739              		.loc 1 965 0
 740 00ec 05F08061 		and	r1, r5, #67108864
 741 00f0 0A43     		orrs	r2, r2, r1
 742              	.LVL86:
 966:../../core/ST/STM32L4xx_HAL_Driver/Src/stm32l4xx_hal_flash_ex.c ****     }
 743              		.loc 1 966 0
 744 00f2 43F08063 		orr	r3, r3, #67108864
 745              	.LVL87:
 746              	.L70:
 969:../../core/ST/STM32L4xx_HAL_Driver/Src/stm32l4xx_hal_flash_ex.c ****     {
 747              		.loc 1 969 0
 748 00f6 14F4804F 		tst	r4, #16384
 749 00fa 04D0     		beq	.L71
 975:../../core/ST/STM32L4xx_HAL_Driver/Src/stm32l4xx_hal_flash_ex.c ****       optr_reg_mask |= FLASH_OPTR_nBOOT0;
 750              		.loc 1 975 0
 751 00fc 05F00065 		and	r5, r5, #134217728
 752              	.LVL88:
 753 0100 2A43     		orrs	r2, r2, r5
 754              	.LVL89:
 976:../../core/ST/STM32L4xx_HAL_Driver/Src/stm32l4xx_hal_flash_ex.c ****     }
 755              		.loc 1 976 0
 756 0102 43F00063 		orr	r3, r3, #134217728
 757              	.LVL90:
 758              	.L71:
 981:../../core/ST/STM32L4xx_HAL_Driver/Src/stm32l4xx_hal_flash_ex.c ****     
 759              		.loc 1 981 0
 760 0106 0C4C     		ldr	r4, .L74
 761              	.LVL91:
 762 0108 216A     		ldr	r1, [r4, #32]
 763 010a 21EA0303 		bic	r3, r1, r3
 764              	.LVL92:
 765 010e 1A43     		orrs	r2, r2, r3
 766              	.LVL93:
 767 0110 2262     		str	r2, [r4, #32]
 984:../../core/ST/STM32L4xx_HAL_Driver/Src/stm32l4xx_hal_flash_ex.c ****     
ARM GAS  /tmp/ccZN3aKc.s 			page 39


 768              		.loc 1 984 0
 769 0112 6369     		ldr	r3, [r4, #20]
 770 0114 43F40033 		orr	r3, r3, #131072
 771 0118 6361     		str	r3, [r4, #20]
 987:../../core/ST/STM32L4xx_HAL_Driver/Src/stm32l4xx_hal_flash_ex.c **** 
 772              		.loc 1 987 0
 773 011a 4CF25030 		movw	r0, #50000
 774              	.LVL94:
 775 011e FFF7FEFF 		bl	FLASH_WaitForLastOperation
 776              	.LVL95:
 777 0122 0346     		mov	r3, r0
 778              	.LVL96:
 990:../../core/ST/STM32L4xx_HAL_Driver/Src/stm32l4xx_hal_flash_ex.c ****   }
 779              		.loc 1 990 0
 780 0124 6269     		ldr	r2, [r4, #20]
 781 0126 22F40032 		bic	r2, r2, #131072
 782 012a 6261     		str	r2, [r4, #20]
 783              	.LVL97:
 784              	.L56:
 994:../../core/ST/STM32L4xx_HAL_Driver/Src/stm32l4xx_hal_flash_ex.c **** 
 785              		.loc 1 994 0
 786 012c 1846     		mov	r0, r3
 787 012e 38BD     		pop	{r3, r4, r5, pc}
 788              	.LVL98:
 789              	.L72:
 801:../../core/ST/STM32L4xx_HAL_Driver/Src/stm32l4xx_hal_flash_ex.c ****   HAL_StatusTypeDef status;
 790              		.loc 1 801 0
 791 0130 0023     		movs	r3, #0
 800:../../core/ST/STM32L4xx_HAL_Driver/Src/stm32l4xx_hal_flash_ex.c ****   uint32_t optr_reg_mask = 0;
 792              		.loc 1 800 0
 793 0132 1A46     		mov	r2, r3
 794 0134 77E7     		b	.L57
 795              	.L75:
 796 0136 00BF     		.align	2
 797              	.L74:
 798 0138 00200240 		.word	1073881088
 799              		.cfi_endproc
 800              	.LFE132:
 802              		.section	.text.FLASH_OB_PCROPConfig,"ax",%progbits
 803              		.align	1
 804              		.syntax unified
 805              		.thumb
 806              		.thumb_func
 807              		.fpu fpv4-sp-d16
 809              	FLASH_OB_PCROPConfig:
 810              	.LFB133:
1017:../../core/ST/STM32L4xx_HAL_Driver/Src/stm32l4xx_hal_flash_ex.c ****   HAL_StatusTypeDef status;
 811              		.loc 1 1017 0
 812              		.cfi_startproc
 813              		@ args = 0, pretend = 0, frame = 0
 814              		@ frame_needed = 0, uses_anonymous_args = 0
 815              	.LVL99:
 816 0000 70B5     		push	{r4, r5, r6, lr}
 817              	.LCFI6:
 818              		.cfi_def_cfa_offset 16
 819              		.cfi_offset 4, -16
 820              		.cfi_offset 5, -12
ARM GAS  /tmp/ccZN3aKc.s 			page 40


 821              		.cfi_offset 6, -8
 822              		.cfi_offset 14, -4
 823 0002 0546     		mov	r5, r0
 824 0004 0C46     		mov	r4, r1
 825 0006 1646     		mov	r6, r2
1034:../../core/ST/STM32L4xx_HAL_Driver/Src/stm32l4xx_hal_flash_ex.c **** 
 826              		.loc 1 1034 0
 827 0008 4CF25030 		movw	r0, #50000
 828              	.LVL100:
 829 000c FFF7FEFF 		bl	FLASH_WaitForLastOperation
 830              	.LVL101:
1036:../../core/ST/STM32L4xx_HAL_Driver/Src/stm32l4xx_hal_flash_ex.c ****   {
 831              		.loc 1 1036 0
 832 0010 0346     		mov	r3, r0
 833 0012 60BB     		cbnz	r0, .L77
1042:../../core/ST/STM32L4xx_HAL_Driver/Src/stm32l4xx_hal_flash_ex.c ****     {
 834              		.loc 1 1042 0
 835 0014 324B     		ldr	r3, .L87
 836 0016 1B68     		ldr	r3, [r3]
 837 0018 13F4807F 		tst	r3, #256
 838 001c 29D1     		bne	.L78
 839              	.LVL102:
1045:../../core/ST/STM32L4xx_HAL_Driver/Src/stm32l4xx_hal_flash_ex.c ****     }
 840              		.loc 1 1045 0
 841 001e 314B     		ldr	r3, .L87+4
 842 0020 1B68     		ldr	r3, [r3]
 843 0022 4FF6FF72 		movw	r2, #65535
 844 0026 9342     		cmp	r3, r2
 845 0028 31D0     		beq	.L82
1045:../../core/ST/STM32L4xx_HAL_Driver/Src/stm32l4xx_hal_flash_ex.c ****     }
 846              		.loc 1 1045 0 is_stmt 0 discriminator 1
 847 002a 2F4A     		ldr	r2, .L87+8
 848 002c 02EA4322 		and	r2, r2, r3, lsl #9
 849 0030 02F10063 		add	r3, r2, #134217728
1044:../../core/ST/STM32L4xx_HAL_Driver/Src/stm32l4xx_hal_flash_ex.c ****       bank2_addr = FLASH_BASE + FLASH_BANK_SIZE;
 850              		.loc 1 1044 0 is_stmt 1 discriminator 1
 851 0034 4FF00062 		mov	r2, #134217728
 852              	.LVL103:
 853              	.L79:
1085:../../core/ST/STM32L4xx_HAL_Driver/Src/stm32l4xx_hal_flash_ex.c ****       {
 854              		.loc 1 1085 0
 855 0038 05F00301 		and	r1, r5, #3
 856 003c 0129     		cmp	r1, #1
 857 003e 2ED0     		beq	.L85
1096:../../core/ST/STM32L4xx_HAL_Driver/Src/stm32l4xx_hal_flash_ex.c ****       {
 858              		.loc 1 1096 0
 859 0040 0229     		cmp	r1, #2
 860 0042 3CD0     		beq	.L86
 861              	.LVL104:
 862              	.L81:
1111:../../core/ST/STM32L4xx_HAL_Driver/Src/stm32l4xx_hal_flash_ex.c ****     
 863              		.loc 1 1111 0
 864 0044 294C     		ldr	r4, .L87+12
 865 0046 A06A     		ldr	r0, [r4, #40]
 866              	.LVL105:
 867 0048 20F00040 		bic	r0, r0, #-2147483648
 868 004c 05F00045 		and	r5, r5, #-2147483648
ARM GAS  /tmp/ccZN3aKc.s 			page 41


 869              	.LVL106:
 870 0050 2843     		orrs	r0, r0, r5
 871 0052 A062     		str	r0, [r4, #40]
1114:../../core/ST/STM32L4xx_HAL_Driver/Src/stm32l4xx_hal_flash_ex.c ****     
 872              		.loc 1 1114 0
 873 0054 6369     		ldr	r3, [r4, #20]
 874 0056 43F40033 		orr	r3, r3, #131072
 875 005a 6361     		str	r3, [r4, #20]
1117:../../core/ST/STM32L4xx_HAL_Driver/Src/stm32l4xx_hal_flash_ex.c **** 
 876              		.loc 1 1117 0
 877 005c 4CF25030 		movw	r0, #50000
 878 0060 FFF7FEFF 		bl	FLASH_WaitForLastOperation
 879              	.LVL107:
 880 0064 0346     		mov	r3, r0
 881              	.LVL108:
1120:../../core/ST/STM32L4xx_HAL_Driver/Src/stm32l4xx_hal_flash_ex.c ****   }
 882              		.loc 1 1120 0
 883 0066 6269     		ldr	r2, [r4, #20]
 884 0068 22F40032 		bic	r2, r2, #131072
 885 006c 6261     		str	r2, [r4, #20]
 886              	.LVL109:
 887              	.L77:
1124:../../core/ST/STM32L4xx_HAL_Driver/Src/stm32l4xx_hal_flash_ex.c **** 
 888              		.loc 1 1124 0
 889 006e 1846     		mov	r0, r3
 890 0070 70BD     		pop	{r4, r5, r6, pc}
 891              	.LVL110:
 892              	.L78:
1049:../../core/ST/STM32L4xx_HAL_Driver/Src/stm32l4xx_hal_flash_ex.c ****       bank2_addr = FLASH_BASE;
 893              		.loc 1 1049 0
 894 0072 1C4B     		ldr	r3, .L87+4
 895 0074 1B68     		ldr	r3, [r3]
 896 0076 4FF6FF72 		movw	r2, #65535
 897 007a 9342     		cmp	r3, r2
 898 007c 0BD0     		beq	.L83
1049:../../core/ST/STM32L4xx_HAL_Driver/Src/stm32l4xx_hal_flash_ex.c ****       bank2_addr = FLASH_BASE;
 899              		.loc 1 1049 0 is_stmt 0 discriminator 1
 900 007e 1A4A     		ldr	r2, .L87+8
 901 0080 02EA4322 		and	r2, r2, r3, lsl #9
 902 0084 02F10062 		add	r2, r2, #134217728
1050:../../core/ST/STM32L4xx_HAL_Driver/Src/stm32l4xx_hal_flash_ex.c ****     }
 903              		.loc 1 1050 0 is_stmt 1 discriminator 1
 904 0088 4FF00063 		mov	r3, #134217728
 905 008c D4E7     		b	.L79
 906              	.LVL111:
 907              	.L82:
1045:../../core/ST/STM32L4xx_HAL_Driver/Src/stm32l4xx_hal_flash_ex.c ****     }
 908              		.loc 1 1045 0
 909 008e 184B     		ldr	r3, .L87+16
1044:../../core/ST/STM32L4xx_HAL_Driver/Src/stm32l4xx_hal_flash_ex.c ****       bank2_addr = FLASH_BASE + FLASH_BANK_SIZE;
 910              		.loc 1 1044 0
 911 0090 4FF00062 		mov	r2, #134217728
 912 0094 D0E7     		b	.L79
 913              	.LVL112:
 914              	.L83:
1050:../../core/ST/STM32L4xx_HAL_Driver/Src/stm32l4xx_hal_flash_ex.c ****     }
 915              		.loc 1 1050 0
ARM GAS  /tmp/ccZN3aKc.s 			page 42


 916 0096 4FF00063 		mov	r3, #134217728
1049:../../core/ST/STM32L4xx_HAL_Driver/Src/stm32l4xx_hal_flash_ex.c ****       bank2_addr = FLASH_BASE;
 917              		.loc 1 1049 0
 918 009a 154A     		ldr	r2, .L87+16
 919 009c CCE7     		b	.L79
 920              	.LVL113:
 921              	.L85:
1087:../../core/ST/STM32L4xx_HAL_Driver/Src/stm32l4xx_hal_flash_ex.c ****         MODIFY_REG(FLASH->PCROP1SR, FLASH_PCROP1SR_PCROP1_STRT, reg_value);
 922              		.loc 1 1087 0
 923 009e A41A     		subs	r4, r4, r2
 924              	.LVL114:
1088:../../core/ST/STM32L4xx_HAL_Driver/Src/stm32l4xx_hal_flash_ex.c ****         
 925              		.loc 1 1088 0
 926 00a0 1249     		ldr	r1, .L87+12
 927 00a2 4B6A     		ldr	r3, [r1, #36]
 928              	.LVL115:
 929 00a4 1B0C     		lsrs	r3, r3, #16
 930 00a6 1B04     		lsls	r3, r3, #16
 931 00a8 43EAD403 		orr	r3, r3, r4, lsr #3
 932 00ac 4B62     		str	r3, [r1, #36]
1090:../../core/ST/STM32L4xx_HAL_Driver/Src/stm32l4xx_hal_flash_ex.c ****         MODIFY_REG(FLASH->PCROP1ER, FLASH_PCROP1ER_PCROP1_END, reg_value);
 933              		.loc 1 1090 0
 934 00ae B21A     		subs	r2, r6, r2
 935              	.LVL116:
1091:../../core/ST/STM32L4xx_HAL_Driver/Src/stm32l4xx_hal_flash_ex.c ****       }
 936              		.loc 1 1091 0
 937 00b0 8B6A     		ldr	r3, [r1, #40]
 938 00b2 1B0C     		lsrs	r3, r3, #16
 939 00b4 1B04     		lsls	r3, r3, #16
 940 00b6 43EAD202 		orr	r2, r3, r2, lsr #3
 941              	.LVL117:
 942 00ba 8A62     		str	r2, [r1, #40]
 943 00bc C2E7     		b	.L81
 944              	.LVL118:
 945              	.L86:
1098:../../core/ST/STM32L4xx_HAL_Driver/Src/stm32l4xx_hal_flash_ex.c ****         MODIFY_REG(FLASH->PCROP2SR, FLASH_PCROP2SR_PCROP2_STRT, reg_value);
 946              		.loc 1 1098 0
 947 00be E41A     		subs	r4, r4, r3
 948              	.LVL119:
1099:../../core/ST/STM32L4xx_HAL_Driver/Src/stm32l4xx_hal_flash_ex.c ****         
 949              		.loc 1 1099 0
 950 00c0 0A49     		ldr	r1, .L87+12
 951 00c2 4A6C     		ldr	r2, [r1, #68]
 952              	.LVL120:
 953 00c4 120C     		lsrs	r2, r2, #16
 954 00c6 1204     		lsls	r2, r2, #16
 955 00c8 42EAD404 		orr	r4, r2, r4, lsr #3
 956              	.LVL121:
 957 00cc 4C64     		str	r4, [r1, #68]
1101:../../core/ST/STM32L4xx_HAL_Driver/Src/stm32l4xx_hal_flash_ex.c ****         MODIFY_REG(FLASH->PCROP2ER, FLASH_PCROP2ER_PCROP2_END, reg_value);
 958              		.loc 1 1101 0
 959 00ce F21A     		subs	r2, r6, r3
 960              	.LVL122:
1102:../../core/ST/STM32L4xx_HAL_Driver/Src/stm32l4xx_hal_flash_ex.c ****       }
 961              		.loc 1 1102 0
 962 00d0 8B6C     		ldr	r3, [r1, #72]
 963              	.LVL123:
ARM GAS  /tmp/ccZN3aKc.s 			page 43


 964 00d2 1B0C     		lsrs	r3, r3, #16
 965 00d4 1B04     		lsls	r3, r3, #16
 966 00d6 43EAD202 		orr	r2, r3, r2, lsr #3
 967              	.LVL124:
 968 00da 8A64     		str	r2, [r1, #72]
 969 00dc B2E7     		b	.L81
 970              	.L88:
 971 00de 00BF     		.align	2
 972              	.L87:
 973 00e0 00000140 		.word	1073807360
 974 00e4 E075FF1F 		.word	536835552
 975 00e8 00FE1F00 		.word	2096640
 976 00ec 00200240 		.word	1073881088
 977 00f0 00000808 		.word	134742016
 978              		.cfi_endproc
 979              	.LFE133:
 981              		.section	.text.HAL_FLASHEx_OBProgram,"ax",%progbits
 982              		.align	1
 983              		.global	HAL_FLASHEx_OBProgram
 984              		.syntax unified
 985              		.thumb
 986              		.thumb_func
 987              		.fpu fpv4-sp-d16
 989              	HAL_FLASHEx_OBProgram:
 990              	.LFB125:
 332:../../core/ST/STM32L4xx_HAL_Driver/Src/stm32l4xx_hal_flash_ex.c ****   HAL_StatusTypeDef status = HAL_OK;
 991              		.loc 1 332 0
 992              		.cfi_startproc
 993              		@ args = 0, pretend = 0, frame = 0
 994              		@ frame_needed = 0, uses_anonymous_args = 0
 995              	.LVL125:
 996 0000 38B5     		push	{r3, r4, r5, lr}
 997              	.LCFI7:
 998              		.cfi_def_cfa_offset 16
 999              		.cfi_offset 3, -16
 1000              		.cfi_offset 4, -12
 1001              		.cfi_offset 5, -8
 1002              		.cfi_offset 14, -4
 1003              	.LVL126:
 336:../../core/ST/STM32L4xx_HAL_Driver/Src/stm32l4xx_hal_flash_ex.c **** 
 1004              		.loc 1 336 0
 1005 0002 234B     		ldr	r3, .L106
 1006 0004 1B78     		ldrb	r3, [r3]	@ zero_extendqisi2
 1007 0006 012B     		cmp	r3, #1
 1008 0008 3FD0     		beq	.L95
 1009 000a 0446     		mov	r4, r0
 336:../../core/ST/STM32L4xx_HAL_Driver/Src/stm32l4xx_hal_flash_ex.c **** 
 1010              		.loc 1 336 0 is_stmt 0 discriminator 2
 1011 000c 204B     		ldr	r3, .L106
 1012 000e 0122     		movs	r2, #1
 1013 0010 1A70     		strb	r2, [r3]
 341:../../core/ST/STM32L4xx_HAL_Driver/Src/stm32l4xx_hal_flash_ex.c **** 
 1014              		.loc 1 341 0 is_stmt 1 discriminator 2
 1015 0012 0022     		movs	r2, #0
 1016 0014 5A60     		str	r2, [r3, #4]
 344:../../core/ST/STM32L4xx_HAL_Driver/Src/stm32l4xx_hal_flash_ex.c ****   {
 1017              		.loc 1 344 0 discriminator 2
ARM GAS  /tmp/ccZN3aKc.s 			page 44


 1018 0016 0368     		ldr	r3, [r0]
 1019 0018 13F0010F 		tst	r3, #1
 1020 001c 15D1     		bne	.L102
 333:../../core/ST/STM32L4xx_HAL_Driver/Src/stm32l4xx_hal_flash_ex.c ****   
 1021              		.loc 1 333 0
 1022 001e 0025     		movs	r5, #0
 1023              	.LVL127:
 1024              	.L91:
 355:../../core/ST/STM32L4xx_HAL_Driver/Src/stm32l4xx_hal_flash_ex.c ****   {
 1025              		.loc 1 355 0
 1026 0020 2368     		ldr	r3, [r4]
 1027 0022 13F0020F 		tst	r3, #2
 1028 0026 1AD1     		bne	.L103
 1029              	.LVL128:
 1030              	.L92:
 365:../../core/ST/STM32L4xx_HAL_Driver/Src/stm32l4xx_hal_flash_ex.c ****   {
 1031              		.loc 1 365 0
 1032 0028 2368     		ldr	r3, [r4]
 1033 002a 13F0040F 		tst	r3, #4
 1034 002e 1DD1     		bne	.L104
 1035              	.LVL129:
 1036              	.L93:
 375:../../core/ST/STM32L4xx_HAL_Driver/Src/stm32l4xx_hal_flash_ex.c ****   {
 1037              		.loc 1 375 0
 1038 0030 2368     		ldr	r3, [r4]
 1039 0032 13F0080F 		tst	r3, #8
 1040 0036 03D0     		beq	.L94
 377:../../core/ST/STM32L4xx_HAL_Driver/Src/stm32l4xx_hal_flash_ex.c ****     {
 1041              		.loc 1 377 0
 1042 0038 216A     		ldr	r1, [r4, #32]
 1043 003a 626A     		ldr	r2, [r4, #36]
 1044 003c 9142     		cmp	r1, r2
 1045 003e 1DD1     		bne	.L105
 1046              	.LVL130:
 1047              	.L94:
 388:../../core/ST/STM32L4xx_HAL_Driver/Src/stm32l4xx_hal_flash_ex.c **** 
 1048              		.loc 1 388 0
 1049 0040 134B     		ldr	r3, .L106
 1050 0042 0022     		movs	r2, #0
 1051 0044 1A70     		strb	r2, [r3]
 1052              	.LVL131:
 1053              	.L90:
 391:../../core/ST/STM32L4xx_HAL_Driver/Src/stm32l4xx_hal_flash_ex.c **** 
 1054              		.loc 1 391 0
 1055 0046 2846     		mov	r0, r5
 1056 0048 38BD     		pop	{r3, r4, r5, pc}
 1057              	.LVL132:
 1058              	.L102:
 347:../../core/ST/STM32L4xx_HAL_Driver/Src/stm32l4xx_hal_flash_ex.c ****     {
 1059              		.loc 1 347 0
 1060 004a C268     		ldr	r2, [r0, #12]
 1061 004c 8168     		ldr	r1, [r0, #8]
 1062 004e 4068     		ldr	r0, [r0, #4]
 1063              	.LVL133:
 1064 0050 FFF7FEFF 		bl	FLASH_OB_WRPConfig
 1065              	.LVL134:
 1066 0054 0546     		mov	r5, r0
ARM GAS  /tmp/ccZN3aKc.s 			page 45


 1067 0056 0028     		cmp	r0, #0
 1068 0058 E2D0     		beq	.L91
 349:../../core/ST/STM32L4xx_HAL_Driver/Src/stm32l4xx_hal_flash_ex.c ****     }
 1069              		.loc 1 349 0
 1070 005a 0125     		movs	r5, #1
 1071 005c E0E7     		b	.L91
 1072              	.LVL135:
 1073              	.L103:
 358:../../core/ST/STM32L4xx_HAL_Driver/Src/stm32l4xx_hal_flash_ex.c ****     {
 1074              		.loc 1 358 0
 1075 005e 2069     		ldr	r0, [r4, #16]
 1076 0060 FFF7FEFF 		bl	FLASH_OB_RDPConfig
 1077              	.LVL136:
 1078 0064 0028     		cmp	r0, #0
 1079 0066 DFD0     		beq	.L92
 360:../../core/ST/STM32L4xx_HAL_Driver/Src/stm32l4xx_hal_flash_ex.c ****     }
 1080              		.loc 1 360 0
 1081 0068 0125     		movs	r5, #1
 1082              	.LVL137:
 1083 006a DDE7     		b	.L92
 1084              	.LVL138:
 1085              	.L104:
 368:../../core/ST/STM32L4xx_HAL_Driver/Src/stm32l4xx_hal_flash_ex.c ****     {
 1086              		.loc 1 368 0
 1087 006c A169     		ldr	r1, [r4, #24]
 1088 006e 6069     		ldr	r0, [r4, #20]
 1089 0070 FFF7FEFF 		bl	FLASH_OB_UserConfig
 1090              	.LVL139:
 1091 0074 0028     		cmp	r0, #0
 1092 0076 DBD0     		beq	.L93
 370:../../core/ST/STM32L4xx_HAL_Driver/Src/stm32l4xx_hal_flash_ex.c ****     }
 1093              		.loc 1 370 0
 1094 0078 0125     		movs	r5, #1
 1095              	.LVL140:
 1096 007a D9E7     		b	.L93
 1097              	.LVL141:
 1098              	.L105:
 380:../../core/ST/STM32L4xx_HAL_Driver/Src/stm32l4xx_hal_flash_ex.c ****       {
 1099              		.loc 1 380 0
 1100 007c E069     		ldr	r0, [r4, #28]
 1101 007e FFF7FEFF 		bl	FLASH_OB_PCROPConfig
 1102              	.LVL142:
 1103 0082 0028     		cmp	r0, #0
 1104 0084 DCD0     		beq	.L94
 382:../../core/ST/STM32L4xx_HAL_Driver/Src/stm32l4xx_hal_flash_ex.c ****       }
 1105              		.loc 1 382 0
 1106 0086 0125     		movs	r5, #1
 1107              	.LVL143:
 1108 0088 DAE7     		b	.L94
 1109              	.LVL144:
 1110              	.L95:
 336:../../core/ST/STM32L4xx_HAL_Driver/Src/stm32l4xx_hal_flash_ex.c **** 
 1111              		.loc 1 336 0
 1112 008a 0225     		movs	r5, #2
 1113 008c DBE7     		b	.L90
 1114              	.L107:
 1115 008e 00BF     		.align	2
ARM GAS  /tmp/ccZN3aKc.s 			page 46


 1116              	.L106:
 1117 0090 00000000 		.word	pFlash
 1118              		.cfi_endproc
 1119              	.LFE125:
 1121              		.section	.text.HAL_FLASHEx_OBGetConfig,"ax",%progbits
 1122              		.align	1
 1123              		.global	HAL_FLASHEx_OBGetConfig
 1124              		.syntax unified
 1125              		.thumb
 1126              		.thumb_func
 1127              		.fpu fpv4-sp-d16
 1129              	HAL_FLASHEx_OBGetConfig:
 1130              	.LFB126:
 403:../../core/ST/STM32L4xx_HAL_Driver/Src/stm32l4xx_hal_flash_ex.c ****   pOBInit->OptionType = (OPTIONBYTE_RDP | OPTIONBYTE_USER);
 1131              		.loc 1 403 0
 1132              		.cfi_startproc
 1133              		@ args = 0, pretend = 0, frame = 0
 1134              		@ frame_needed = 0, uses_anonymous_args = 0
 1135              	.LVL145:
 1136 0000 10B5     		push	{r4, lr}
 1137              	.LCFI8:
 1138              		.cfi_def_cfa_offset 8
 1139              		.cfi_offset 4, -8
 1140              		.cfi_offset 14, -4
 1141 0002 0446     		mov	r4, r0
 404:../../core/ST/STM32L4xx_HAL_Driver/Src/stm32l4xx_hal_flash_ex.c **** 
 1142              		.loc 1 404 0
 1143 0004 0623     		movs	r3, #6
 1144 0006 0360     		str	r3, [r0]
 409:../../core/ST/STM32L4xx_HAL_Driver/Src/stm32l4xx_hal_flash_ex.c ****      (pOBInit->WRPArea == OB_WRPAREA_BANK2_AREAA) || (pOBInit->WRPArea == OB_WRPAREA_BANK2_AREAB))
 1145              		.loc 1 409 0
 1146 0008 4068     		ldr	r0, [r0, #4]
 1147              	.LVL146:
 1148 000a 0228     		cmp	r0, #2
 1149 000c 01D9     		bls	.L109
 410:../../core/ST/STM32L4xx_HAL_Driver/Src/stm32l4xx_hal_flash_ex.c **** #else
 1150              		.loc 1 410 0
 1151 000e 0428     		cmp	r0, #4
 1152 0010 07D1     		bne	.L110
 1153              	.L109:
 415:../../core/ST/STM32L4xx_HAL_Driver/Src/stm32l4xx_hal_flash_ex.c ****     /* Get write protection on the selected area */
 1154              		.loc 1 415 0
 1155 0012 2246     		mov	r2, r4
 1156 0014 0723     		movs	r3, #7
 1157 0016 42F80C3B 		str	r3, [r2], #12
 417:../../core/ST/STM32L4xx_HAL_Driver/Src/stm32l4xx_hal_flash_ex.c ****   }
 1158              		.loc 1 417 0
 1159 001a 04F10801 		add	r1, r4, #8
 1160 001e FFF7FEFF 		bl	FLASH_OB_GetWRP
 1161              	.LVL147:
 1162              	.L110:
 421:../../core/ST/STM32L4xx_HAL_Driver/Src/stm32l4xx_hal_flash_ex.c ****   
 1163              		.loc 1 421 0
 1164 0022 FFF7FEFF 		bl	FLASH_OB_GetRDP
 1165              	.LVL148:
 1166 0026 2061     		str	r0, [r4, #16]
 424:../../core/ST/STM32L4xx_HAL_Driver/Src/stm32l4xx_hal_flash_ex.c ****   
ARM GAS  /tmp/ccZN3aKc.s 			page 47


 1167              		.loc 1 424 0
 1168 0028 FFF7FEFF 		bl	FLASH_OB_GetUser
 1169              	.LVL149:
 1170 002c A061     		str	r0, [r4, #24]
 429:../../core/ST/STM32L4xx_HAL_Driver/Src/stm32l4xx_hal_flash_ex.c **** #else
 1171              		.loc 1 429 0
 1172 002e E369     		ldr	r3, [r4, #28]
 1173 0030 013B     		subs	r3, r3, #1
 1174 0032 012B     		cmp	r3, #1
 1175 0034 00D9     		bls	.L113
 1176              	.L108:
 438:../../core/ST/STM32L4xx_HAL_Driver/Src/stm32l4xx_hal_flash_ex.c **** 
 1177              		.loc 1 438 0
 1178 0036 10BD     		pop	{r4, pc}
 1179              	.LVL150:
 1180              	.L113:
 434:../../core/ST/STM32L4xx_HAL_Driver/Src/stm32l4xx_hal_flash_ex.c ****     /* Get the Proprietary code readout protection */
 1181              		.loc 1 434 0
 1182 0038 2368     		ldr	r3, [r4]
 1183 003a 43F00803 		orr	r3, r3, #8
 1184 003e 2246     		mov	r2, r4
 1185 0040 42F8243B 		str	r3, [r2], #36
 436:../../core/ST/STM32L4xx_HAL_Driver/Src/stm32l4xx_hal_flash_ex.c ****   }
 1186              		.loc 1 436 0
 1187 0044 04F12001 		add	r1, r4, #32
 1188 0048 04F11C00 		add	r0, r4, #28
 1189 004c FFF7FEFF 		bl	FLASH_OB_GetPCROP
 1190              	.LVL151:
 438:../../core/ST/STM32L4xx_HAL_Driver/Src/stm32l4xx_hal_flash_ex.c **** 
 1191              		.loc 1 438 0
 1192 0050 F1E7     		b	.L108
 1193              		.cfi_endproc
 1194              	.LFE126:
 1196              		.section	.text.FLASH_PageErase,"ax",%progbits
 1197              		.align	1
 1198              		.global	FLASH_PageErase
 1199              		.syntax unified
 1200              		.thumb
 1201              		.thumb_func
 1202              		.fpu fpv4-sp-d16
 1204              	FLASH_PageErase:
 1205              	.LFB128:
 583:../../core/ST/STM32L4xx_HAL_Driver/Src/stm32l4xx_hal_flash_ex.c ****   /* Check the parameters */
 1206              		.loc 1 583 0
 1207              		.cfi_startproc
 1208              		@ args = 0, pretend = 0, frame = 0
 1209              		@ frame_needed = 0, uses_anonymous_args = 0
 1210              		@ link register save eliminated.
 1211              	.LVL152:
 600:../../core/ST/STM32L4xx_HAL_Driver/Src/stm32l4xx_hal_flash_ex.c ****     {
 1212              		.loc 1 600 0
 1213 0000 11F0010F 		tst	r1, #1
 1214 0004 16D1     		bne	.L117
 606:../../core/ST/STM32L4xx_HAL_Driver/Src/stm32l4xx_hal_flash_ex.c ****     }
 1215              		.loc 1 606 0
 1216 0006 0E4A     		ldr	r2, .L118
 1217 0008 5369     		ldr	r3, [r2, #20]
ARM GAS  /tmp/ccZN3aKc.s 			page 48


 1218 000a 43F40063 		orr	r3, r3, #2048
 1219 000e 5361     		str	r3, [r2, #20]
 1220              	.L116:
 615:../../core/ST/STM32L4xx_HAL_Driver/Src/stm32l4xx_hal_flash_ex.c ****   SET_BIT(FLASH->CR, FLASH_CR_PER);
 1221              		.loc 1 615 0
 1222 0010 0B4B     		ldr	r3, .L118
 1223 0012 5A69     		ldr	r2, [r3, #20]
 1224 0014 22F4FF62 		bic	r2, r2, #2040
 1225 0018 C000     		lsls	r0, r0, #3
 1226              	.LVL153:
 1227 001a 00F4FF60 		and	r0, r0, #2040
 1228 001e 1043     		orrs	r0, r0, r2
 1229 0020 5861     		str	r0, [r3, #20]
 616:../../core/ST/STM32L4xx_HAL_Driver/Src/stm32l4xx_hal_flash_ex.c ****   SET_BIT(FLASH->CR, FLASH_CR_STRT);
 1230              		.loc 1 616 0
 1231 0022 5A69     		ldr	r2, [r3, #20]
 1232 0024 42F00202 		orr	r2, r2, #2
 1233 0028 5A61     		str	r2, [r3, #20]
 617:../../core/ST/STM32L4xx_HAL_Driver/Src/stm32l4xx_hal_flash_ex.c **** }
 1234              		.loc 1 617 0
 1235 002a 5A69     		ldr	r2, [r3, #20]
 1236 002c 42F48032 		orr	r2, r2, #65536
 1237 0030 5A61     		str	r2, [r3, #20]
 618:../../core/ST/STM32L4xx_HAL_Driver/Src/stm32l4xx_hal_flash_ex.c **** 
 1238              		.loc 1 618 0
 1239 0032 7047     		bx	lr
 1240              	.LVL154:
 1241              	.L117:
 602:../../core/ST/STM32L4xx_HAL_Driver/Src/stm32l4xx_hal_flash_ex.c ****     }
 1242              		.loc 1 602 0
 1243 0034 024A     		ldr	r2, .L118
 1244 0036 5369     		ldr	r3, [r2, #20]
 1245 0038 23F40063 		bic	r3, r3, #2048
 1246 003c 5361     		str	r3, [r2, #20]
 1247 003e E7E7     		b	.L116
 1248              	.L119:
 1249              		.align	2
 1250              	.L118:
 1251 0040 00200240 		.word	1073881088
 1252              		.cfi_endproc
 1253              	.LFE128:
 1255              		.section	.text.HAL_FLASHEx_Erase_IT,"ax",%progbits
 1256              		.align	1
 1257              		.global	HAL_FLASHEx_Erase_IT
 1258              		.syntax unified
 1259              		.thumb
 1260              		.thumb_func
 1261              		.fpu fpv4-sp-d16
 1263              	HAL_FLASHEx_Erase_IT:
 1264              	.LFB124:
 260:../../core/ST/STM32L4xx_HAL_Driver/Src/stm32l4xx_hal_flash_ex.c ****   HAL_StatusTypeDef status = HAL_OK;
 1265              		.loc 1 260 0
 1266              		.cfi_startproc
 1267              		@ args = 0, pretend = 0, frame = 0
 1268              		@ frame_needed = 0, uses_anonymous_args = 0
 1269              	.LVL155:
 1270 0000 08B5     		push	{r3, lr}
ARM GAS  /tmp/ccZN3aKc.s 			page 49


 1271              	.LCFI9:
 1272              		.cfi_def_cfa_offset 8
 1273              		.cfi_offset 3, -8
 1274              		.cfi_offset 14, -4
 1275              	.LVL156:
 264:../../core/ST/STM32L4xx_HAL_Driver/Src/stm32l4xx_hal_flash_ex.c **** 
 1276              		.loc 1 264 0
 1277 0002 2B4B     		ldr	r3, .L130
 1278 0004 1B78     		ldrb	r3, [r3]	@ zero_extendqisi2
 1279 0006 012B     		cmp	r3, #1
 1280 0008 50D0     		beq	.L127
 264:../../core/ST/STM32L4xx_HAL_Driver/Src/stm32l4xx_hal_flash_ex.c **** 
 1281              		.loc 1 264 0 is_stmt 0 discriminator 2
 1282 000a 294B     		ldr	r3, .L130
 1283 000c 0122     		movs	r2, #1
 1284 000e 1A70     		strb	r2, [r3]
 269:../../core/ST/STM32L4xx_HAL_Driver/Src/stm32l4xx_hal_flash_ex.c **** 
 1285              		.loc 1 269 0 is_stmt 1 discriminator 2
 1286 0010 0022     		movs	r2, #0
 1287 0012 5A60     		str	r2, [r3, #4]
 272:../../core/ST/STM32L4xx_HAL_Driver/Src/stm32l4xx_hal_flash_ex.c ****   {
 1288              		.loc 1 272 0 discriminator 2
 1289 0014 274B     		ldr	r3, .L130+4
 1290 0016 1B68     		ldr	r3, [r3]
 1291 0018 13F4007F 		tst	r3, #512
 1292 001c 2CD0     		beq	.L122
 275:../../core/ST/STM32L4xx_HAL_Driver/Src/stm32l4xx_hal_flash_ex.c ****     
 1293              		.loc 1 275 0
 1294 001e 254B     		ldr	r3, .L130+4
 1295 0020 1A68     		ldr	r2, [r3]
 1296 0022 22F40072 		bic	r2, r2, #512
 1297 0026 1A60     		str	r2, [r3]
 277:../../core/ST/STM32L4xx_HAL_Driver/Src/stm32l4xx_hal_flash_ex.c ****     {
 1298              		.loc 1 277 0
 1299 0028 1B68     		ldr	r3, [r3]
 1300 002a 13F4806F 		tst	r3, #1024
 1301 002e 1FD0     		beq	.L123
 280:../../core/ST/STM32L4xx_HAL_Driver/Src/stm32l4xx_hal_flash_ex.c ****       pFlash.CacheToReactivate = FLASH_CACHE_ICACHE_DCACHE_ENABLED;
 1302              		.loc 1 280 0
 1303 0030 204A     		ldr	r2, .L130+4
 1304 0032 1368     		ldr	r3, [r2]
 1305 0034 23F48063 		bic	r3, r3, #1024
 1306 0038 1360     		str	r3, [r2]
 281:../../core/ST/STM32L4xx_HAL_Driver/Src/stm32l4xx_hal_flash_ex.c ****     }
 1307              		.loc 1 281 0
 1308 003a 1D4B     		ldr	r3, .L130
 1309 003c 0322     		movs	r2, #3
 1310 003e 1A77     		strb	r2, [r3, #28]
 1311              	.L124:
 300:../../core/ST/STM32L4xx_HAL_Driver/Src/stm32l4xx_hal_flash_ex.c **** 
 1312              		.loc 1 300 0 discriminator 4
 1313 0040 1C4A     		ldr	r2, .L130+4
 1314 0042 5369     		ldr	r3, [r2, #20]
 1315 0044 43F04073 		orr	r3, r3, #50331648
 1316 0048 5361     		str	r3, [r2, #20]
 302:../../core/ST/STM32L4xx_HAL_Driver/Src/stm32l4xx_hal_flash_ex.c **** 
 1317              		.loc 1 302 0 discriminator 4
ARM GAS  /tmp/ccZN3aKc.s 			page 50


 1318 004a 4268     		ldr	r2, [r0, #4]
 1319 004c 184B     		ldr	r3, .L130
 1320 004e 1A61     		str	r2, [r3, #16]
 304:../../core/ST/STM32L4xx_HAL_Driver/Src/stm32l4xx_hal_flash_ex.c ****   {
 1321              		.loc 1 304 0 discriminator 4
 1322 0050 0368     		ldr	r3, [r0]
 1323 0052 012B     		cmp	r3, #1
 1324 0054 22D0     		beq	.L129
 313:../../core/ST/STM32L4xx_HAL_Driver/Src/stm32l4xx_hal_flash_ex.c ****     pFlash.NbPagesToErase = pEraseInit->NbPages;
 1325              		.loc 1 313 0
 1326 0056 164B     		ldr	r3, .L130
 1327 0058 0122     		movs	r2, #1
 1328 005a 1A72     		strb	r2, [r3, #8]
 314:../../core/ST/STM32L4xx_HAL_Driver/Src/stm32l4xx_hal_flash_ex.c ****     pFlash.Page = pEraseInit->Page;
 1329              		.loc 1 314 0
 1330 005c C268     		ldr	r2, [r0, #12]
 1331 005e 9A61     		str	r2, [r3, #24]
 315:../../core/ST/STM32L4xx_HAL_Driver/Src/stm32l4xx_hal_flash_ex.c **** 
 1332              		.loc 1 315 0
 1333 0060 8268     		ldr	r2, [r0, #8]
 1334 0062 5A61     		str	r2, [r3, #20]
 318:../../core/ST/STM32L4xx_HAL_Driver/Src/stm32l4xx_hal_flash_ex.c ****   }
 1335              		.loc 1 318 0
 1336 0064 4168     		ldr	r1, [r0, #4]
 1337 0066 8068     		ldr	r0, [r0, #8]
 1338              	.LVL157:
 1339 0068 FFF7FEFF 		bl	FLASH_PageErase
 1340              	.LVL158:
 321:../../core/ST/STM32L4xx_HAL_Driver/Src/stm32l4xx_hal_flash_ex.c **** }
 1341              		.loc 1 321 0
 1342 006c 0020     		movs	r0, #0
 1343              	.L121:
 322:../../core/ST/STM32L4xx_HAL_Driver/Src/stm32l4xx_hal_flash_ex.c **** 
 1344              		.loc 1 322 0
 1345 006e 08BD     		pop	{r3, pc}
 1346              	.LVL159:
 1347              	.L123:
 285:../../core/ST/STM32L4xx_HAL_Driver/Src/stm32l4xx_hal_flash_ex.c ****     }
 1348              		.loc 1 285 0
 1349 0070 0F4B     		ldr	r3, .L130
 1350 0072 0122     		movs	r2, #1
 1351 0074 1A77     		strb	r2, [r3, #28]
 1352 0076 E3E7     		b	.L124
 1353              	.L122:
 288:../../core/ST/STM32L4xx_HAL_Driver/Src/stm32l4xx_hal_flash_ex.c ****   {
 1354              		.loc 1 288 0
 1355 0078 0E4B     		ldr	r3, .L130+4
 1356 007a 1B68     		ldr	r3, [r3]
 1357 007c 13F4806F 		tst	r3, #1024
 1358 0080 08D0     		beq	.L125
 291:../../core/ST/STM32L4xx_HAL_Driver/Src/stm32l4xx_hal_flash_ex.c ****     pFlash.CacheToReactivate = FLASH_CACHE_DCACHE_ENABLED;
 1359              		.loc 1 291 0
 1360 0082 0C4A     		ldr	r2, .L130+4
 1361 0084 1368     		ldr	r3, [r2]
 1362 0086 23F48063 		bic	r3, r3, #1024
 1363 008a 1360     		str	r3, [r2]
 292:../../core/ST/STM32L4xx_HAL_Driver/Src/stm32l4xx_hal_flash_ex.c ****   }
ARM GAS  /tmp/ccZN3aKc.s 			page 51


 1364              		.loc 1 292 0
 1365 008c 084B     		ldr	r3, .L130
 1366 008e 0222     		movs	r2, #2
 1367 0090 1A77     		strb	r2, [r3, #28]
 1368 0092 D5E7     		b	.L124
 1369              	.L125:
 296:../../core/ST/STM32L4xx_HAL_Driver/Src/stm32l4xx_hal_flash_ex.c ****   }
 1370              		.loc 1 296 0
 1371 0094 064B     		ldr	r3, .L130
 1372 0096 0022     		movs	r2, #0
 1373 0098 1A77     		strb	r2, [r3, #28]
 1374 009a D1E7     		b	.L124
 1375              	.L129:
 307:../../core/ST/STM32L4xx_HAL_Driver/Src/stm32l4xx_hal_flash_ex.c ****     FLASH_MassErase(pEraseInit->Banks);
 1376              		.loc 1 307 0
 1377 009c 044B     		ldr	r3, .L130
 1378 009e 0222     		movs	r2, #2
 1379 00a0 1A72     		strb	r2, [r3, #8]
 308:../../core/ST/STM32L4xx_HAL_Driver/Src/stm32l4xx_hal_flash_ex.c ****   }
 1380              		.loc 1 308 0
 1381 00a2 4068     		ldr	r0, [r0, #4]
 1382              	.LVL160:
 1383 00a4 FFF7FEFF 		bl	FLASH_MassErase
 1384              	.LVL161:
 321:../../core/ST/STM32L4xx_HAL_Driver/Src/stm32l4xx_hal_flash_ex.c **** }
 1385              		.loc 1 321 0
 1386 00a8 0020     		movs	r0, #0
 1387 00aa E0E7     		b	.L121
 1388              	.LVL162:
 1389              	.L127:
 264:../../core/ST/STM32L4xx_HAL_Driver/Src/stm32l4xx_hal_flash_ex.c **** 
 1390              		.loc 1 264 0
 1391 00ac 0220     		movs	r0, #2
 1392              	.LVL163:
 1393 00ae DEE7     		b	.L121
 1394              	.L131:
 1395              		.align	2
 1396              	.L130:
 1397 00b0 00000000 		.word	pFlash
 1398 00b4 00200240 		.word	1073881088
 1399              		.cfi_endproc
 1400              	.LFE124:
 1402              		.section	.text.FLASH_FlushCaches,"ax",%progbits
 1403              		.align	1
 1404              		.global	FLASH_FlushCaches
 1405              		.syntax unified
 1406              		.thumb
 1407              		.thumb_func
 1408              		.fpu fpv4-sp-d16
 1410              	FLASH_FlushCaches:
 1411              	.LFB129:
 625:../../core/ST/STM32L4xx_HAL_Driver/Src/stm32l4xx_hal_flash_ex.c ****   FLASH_CacheTypeDef cache = pFlash.CacheToReactivate;
 1412              		.loc 1 625 0
 1413              		.cfi_startproc
 1414              		@ args = 0, pretend = 0, frame = 0
 1415              		@ frame_needed = 0, uses_anonymous_args = 0
 1416              		@ link register save eliminated.
ARM GAS  /tmp/ccZN3aKc.s 			page 52


 626:../../core/ST/STM32L4xx_HAL_Driver/Src/stm32l4xx_hal_flash_ex.c **** 
 1417              		.loc 1 626 0
 1418 0000 144B     		ldr	r3, .L137
 1419 0002 1B7F     		ldrb	r3, [r3, #28]	@ zero_extendqisi2
 1420 0004 DBB2     		uxtb	r3, r3
 1421              	.LVL164:
 629:../../core/ST/STM32L4xx_HAL_Driver/Src/stm32l4xx_hal_flash_ex.c ****      (cache == FLASH_CACHE_ICACHE_DCACHE_ENABLED))
 1422              		.loc 1 629 0
 1423 0006 012B     		cmp	r3, #1
 1424 0008 01D0     		beq	.L133
 629:../../core/ST/STM32L4xx_HAL_Driver/Src/stm32l4xx_hal_flash_ex.c ****      (cache == FLASH_CACHE_ICACHE_DCACHE_ENABLED))
 1425              		.loc 1 629 0 is_stmt 0 discriminator 1
 1426 000a 032B     		cmp	r3, #3
 1427 000c 0CD1     		bne	.L134
 1428              	.L133:
 633:../../core/ST/STM32L4xx_HAL_Driver/Src/stm32l4xx_hal_flash_ex.c ****     /* Enable instruction cache */
 1429              		.loc 1 633 0 is_stmt 1
 1430 000e 124A     		ldr	r2, .L137+4
 1431 0010 1168     		ldr	r1, [r2]
 1432 0012 41F40061 		orr	r1, r1, #2048
 1433 0016 1160     		str	r1, [r2]
 1434 0018 1168     		ldr	r1, [r2]
 1435 001a 21F40061 		bic	r1, r1, #2048
 1436 001e 1160     		str	r1, [r2]
 635:../../core/ST/STM32L4xx_HAL_Driver/Src/stm32l4xx_hal_flash_ex.c ****   }
 1437              		.loc 1 635 0
 1438 0020 1168     		ldr	r1, [r2]
 1439 0022 41F40071 		orr	r1, r1, #512
 1440 0026 1160     		str	r1, [r2]
 1441              	.L134:
 639:../../core/ST/STM32L4xx_HAL_Driver/Src/stm32l4xx_hal_flash_ex.c ****      (cache == FLASH_CACHE_ICACHE_DCACHE_ENABLED))
 1442              		.loc 1 639 0
 1443 0028 023B     		subs	r3, r3, #2
 1444              	.LVL165:
 1445 002a DBB2     		uxtb	r3, r3
 1446              	.LVL166:
 1447 002c 012B     		cmp	r3, #1
 1448 002e 03D9     		bls	.L136
 1449              	.L135:
 649:../../core/ST/STM32L4xx_HAL_Driver/Src/stm32l4xx_hal_flash_ex.c **** }
 1450              		.loc 1 649 0
 1451 0030 084B     		ldr	r3, .L137
 1452 0032 0022     		movs	r2, #0
 1453 0034 1A77     		strb	r2, [r3, #28]
 650:../../core/ST/STM32L4xx_HAL_Driver/Src/stm32l4xx_hal_flash_ex.c **** 
 1454              		.loc 1 650 0
 1455 0036 7047     		bx	lr
 1456              	.L136:
 643:../../core/ST/STM32L4xx_HAL_Driver/Src/stm32l4xx_hal_flash_ex.c ****     /* Enable data cache */
 1457              		.loc 1 643 0
 1458 0038 074B     		ldr	r3, .L137+4
 1459 003a 1A68     		ldr	r2, [r3]
 1460 003c 42F48052 		orr	r2, r2, #4096
 1461 0040 1A60     		str	r2, [r3]
 1462 0042 1A68     		ldr	r2, [r3]
 1463 0044 22F48052 		bic	r2, r2, #4096
 1464 0048 1A60     		str	r2, [r3]
ARM GAS  /tmp/ccZN3aKc.s 			page 53


 645:../../core/ST/STM32L4xx_HAL_Driver/Src/stm32l4xx_hal_flash_ex.c ****   }
 1465              		.loc 1 645 0
 1466 004a 1A68     		ldr	r2, [r3]
 1467 004c 42F48062 		orr	r2, r2, #1024
 1468 0050 1A60     		str	r2, [r3]
 1469 0052 EDE7     		b	.L135
 1470              	.L138:
 1471              		.align	2
 1472              	.L137:
 1473 0054 00000000 		.word	pFlash
 1474 0058 00200240 		.word	1073881088
 1475              		.cfi_endproc
 1476              	.LFE129:
 1478              		.section	.text.HAL_FLASHEx_Erase,"ax",%progbits
 1479              		.align	1
 1480              		.global	HAL_FLASHEx_Erase
 1481              		.syntax unified
 1482              		.thumb
 1483              		.thumb_func
 1484              		.fpu fpv4-sp-d16
 1486              	HAL_FLASHEx_Erase:
 1487              	.LFB123:
 155:../../core/ST/STM32L4xx_HAL_Driver/Src/stm32l4xx_hal_flash_ex.c ****   HAL_StatusTypeDef status;
 1488              		.loc 1 155 0
 1489              		.cfi_startproc
 1490              		@ args = 0, pretend = 0, frame = 0
 1491              		@ frame_needed = 0, uses_anonymous_args = 0
 1492              	.LVL167:
 1493 0000 F8B5     		push	{r3, r4, r5, r6, r7, lr}
 1494              	.LCFI10:
 1495              		.cfi_def_cfa_offset 24
 1496              		.cfi_offset 3, -24
 1497              		.cfi_offset 4, -20
 1498              		.cfi_offset 5, -16
 1499              		.cfi_offset 6, -12
 1500              		.cfi_offset 7, -8
 1501              		.cfi_offset 14, -4
 160:../../core/ST/STM32L4xx_HAL_Driver/Src/stm32l4xx_hal_flash_ex.c **** 
 1502              		.loc 1 160 0
 1503 0002 3C4B     		ldr	r3, .L155
 1504 0004 1B78     		ldrb	r3, [r3]	@ zero_extendqisi2
 1505 0006 012B     		cmp	r3, #1
 1506 0008 71D0     		beq	.L151
 1507 000a 0E46     		mov	r6, r1
 1508 000c 0446     		mov	r4, r0
 160:../../core/ST/STM32L4xx_HAL_Driver/Src/stm32l4xx_hal_flash_ex.c **** 
 1509              		.loc 1 160 0 is_stmt 0 discriminator 2
 1510 000e 394B     		ldr	r3, .L155
 1511 0010 0122     		movs	r2, #1
 1512 0012 1A70     		strb	r2, [r3]
 166:../../core/ST/STM32L4xx_HAL_Driver/Src/stm32l4xx_hal_flash_ex.c **** 
 1513              		.loc 1 166 0 is_stmt 1 discriminator 2
 1514 0014 4CF25030 		movw	r0, #50000
 1515              	.LVL168:
 1516 0018 FFF7FEFF 		bl	FLASH_WaitForLastOperation
 1517              	.LVL169:
 168:../../core/ST/STM32L4xx_HAL_Driver/Src/stm32l4xx_hal_flash_ex.c ****   {
ARM GAS  /tmp/ccZN3aKc.s 			page 54


 1518              		.loc 1 168 0 discriminator 2
 1519 001c 0746     		mov	r7, r0
 1520 001e 0028     		cmp	r0, #0
 1521 0020 60D1     		bne	.L141
 170:../../core/ST/STM32L4xx_HAL_Driver/Src/stm32l4xx_hal_flash_ex.c **** 
 1522              		.loc 1 170 0
 1523 0022 344B     		ldr	r3, .L155
 1524 0024 0022     		movs	r2, #0
 1525 0026 5A60     		str	r2, [r3, #4]
 173:../../core/ST/STM32L4xx_HAL_Driver/Src/stm32l4xx_hal_flash_ex.c ****     {
 1526              		.loc 1 173 0
 1527 0028 334B     		ldr	r3, .L155+4
 1528 002a 1B68     		ldr	r3, [r3]
 1529 002c 13F4007F 		tst	r3, #512
 1530 0030 33D0     		beq	.L142
 176:../../core/ST/STM32L4xx_HAL_Driver/Src/stm32l4xx_hal_flash_ex.c **** 
 1531              		.loc 1 176 0
 1532 0032 314B     		ldr	r3, .L155+4
 1533 0034 1A68     		ldr	r2, [r3]
 1534 0036 22F40072 		bic	r2, r2, #512
 1535 003a 1A60     		str	r2, [r3]
 178:../../core/ST/STM32L4xx_HAL_Driver/Src/stm32l4xx_hal_flash_ex.c ****       {
 1536              		.loc 1 178 0
 1537 003c 1B68     		ldr	r3, [r3]
 1538 003e 13F4806F 		tst	r3, #1024
 1539 0042 26D0     		beq	.L143
 181:../../core/ST/STM32L4xx_HAL_Driver/Src/stm32l4xx_hal_flash_ex.c ****         pFlash.CacheToReactivate = FLASH_CACHE_ICACHE_DCACHE_ENABLED;
 1540              		.loc 1 181 0
 1541 0044 2C4A     		ldr	r2, .L155+4
 1542 0046 1368     		ldr	r3, [r2]
 1543 0048 23F48063 		bic	r3, r3, #1024
 1544 004c 1360     		str	r3, [r2]
 182:../../core/ST/STM32L4xx_HAL_Driver/Src/stm32l4xx_hal_flash_ex.c ****       }
 1545              		.loc 1 182 0
 1546 004e 294B     		ldr	r3, .L155
 1547 0050 0322     		movs	r2, #3
 1548 0052 1A77     		strb	r2, [r3, #28]
 1549              	.L144:
 200:../../core/ST/STM32L4xx_HAL_Driver/Src/stm32l4xx_hal_flash_ex.c ****     {
 1550              		.loc 1 200 0
 1551 0054 2368     		ldr	r3, [r4]
 1552 0056 012B     		cmp	r3, #1
 1553 0058 31D0     		beq	.L153
 221:../../core/ST/STM32L4xx_HAL_Driver/Src/stm32l4xx_hal_flash_ex.c ****       
 1554              		.loc 1 221 0
 1555 005a 4FF0FF33 		mov	r3, #-1
 1556 005e 3360     		str	r3, [r6]
 223:../../core/ST/STM32L4xx_HAL_Driver/Src/stm32l4xx_hal_flash_ex.c ****       {
 1557              		.loc 1 223 0
 1558 0060 A568     		ldr	r5, [r4, #8]
 1559              	.LVL170:
 1560              	.L148:
 223:../../core/ST/STM32L4xx_HAL_Driver/Src/stm32l4xx_hal_flash_ex.c ****       {
 1561              		.loc 1 223 0 is_stmt 0 discriminator 1
 1562 0062 A368     		ldr	r3, [r4, #8]
 1563 0064 E268     		ldr	r2, [r4, #12]
 1564 0066 1344     		add	r3, r3, r2
ARM GAS  /tmp/ccZN3aKc.s 			page 55


 1565 0068 AB42     		cmp	r3, r5
 1566 006a 39D9     		bls	.L147
 225:../../core/ST/STM32L4xx_HAL_Driver/Src/stm32l4xx_hal_flash_ex.c **** 
 1567              		.loc 1 225 0 is_stmt 1
 1568 006c 6168     		ldr	r1, [r4, #4]
 1569 006e 2846     		mov	r0, r5
 1570 0070 FFF7FEFF 		bl	FLASH_PageErase
 1571              	.LVL171:
 228:../../core/ST/STM32L4xx_HAL_Driver/Src/stm32l4xx_hal_flash_ex.c **** 
 1572              		.loc 1 228 0
 1573 0074 4CF25030 		movw	r0, #50000
 1574 0078 FFF7FEFF 		bl	FLASH_WaitForLastOperation
 1575              	.LVL172:
 231:../../core/ST/STM32L4xx_HAL_Driver/Src/stm32l4xx_hal_flash_ex.c **** 
 1576              		.loc 1 231 0
 1577 007c 1E4A     		ldr	r2, .L155+4
 1578 007e 5369     		ldr	r3, [r2, #20]
 1579 0080 23F4FF63 		bic	r3, r3, #2040
 1580 0084 23F00203 		bic	r3, r3, #2
 1581 0088 5361     		str	r3, [r2, #20]
 233:../../core/ST/STM32L4xx_HAL_Driver/Src/stm32l4xx_hal_flash_ex.c ****         {
 1582              		.loc 1 233 0
 1583 008a 0746     		mov	r7, r0
 1584 008c 38BB     		cbnz	r0, .L154
 223:../../core/ST/STM32L4xx_HAL_Driver/Src/stm32l4xx_hal_flash_ex.c ****       {
 1585              		.loc 1 223 0 discriminator 2
 1586 008e 0135     		adds	r5, r5, #1
 1587              	.LVL173:
 1588 0090 E7E7     		b	.L148
 1589              	.LVL174:
 1590              	.L143:
 186:../../core/ST/STM32L4xx_HAL_Driver/Src/stm32l4xx_hal_flash_ex.c ****       }
 1591              		.loc 1 186 0
 1592 0092 184B     		ldr	r3, .L155
 1593 0094 0122     		movs	r2, #1
 1594 0096 1A77     		strb	r2, [r3, #28]
 1595 0098 DCE7     		b	.L144
 1596              	.L142:
 189:../../core/ST/STM32L4xx_HAL_Driver/Src/stm32l4xx_hal_flash_ex.c ****     {
 1597              		.loc 1 189 0
 1598 009a 174B     		ldr	r3, .L155+4
 1599 009c 1B68     		ldr	r3, [r3]
 1600 009e 13F4806F 		tst	r3, #1024
 1601 00a2 08D0     		beq	.L145
 192:../../core/ST/STM32L4xx_HAL_Driver/Src/stm32l4xx_hal_flash_ex.c ****       pFlash.CacheToReactivate = FLASH_CACHE_DCACHE_ENABLED;
 1602              		.loc 1 192 0
 1603 00a4 144A     		ldr	r2, .L155+4
 1604 00a6 1368     		ldr	r3, [r2]
 1605 00a8 23F48063 		bic	r3, r3, #1024
 1606 00ac 1360     		str	r3, [r2]
 193:../../core/ST/STM32L4xx_HAL_Driver/Src/stm32l4xx_hal_flash_ex.c ****     }
 1607              		.loc 1 193 0
 1608 00ae 114B     		ldr	r3, .L155
 1609 00b0 0222     		movs	r2, #2
 1610 00b2 1A77     		strb	r2, [r3, #28]
 1611 00b4 CEE7     		b	.L144
 1612              	.L145:
ARM GAS  /tmp/ccZN3aKc.s 			page 56


 197:../../core/ST/STM32L4xx_HAL_Driver/Src/stm32l4xx_hal_flash_ex.c ****     }
 1613              		.loc 1 197 0
 1614 00b6 0F4B     		ldr	r3, .L155
 1615 00b8 0022     		movs	r2, #0
 1616 00ba 1A77     		strb	r2, [r3, #28]
 1617 00bc CAE7     		b	.L144
 1618              	.L153:
 203:../../core/ST/STM32L4xx_HAL_Driver/Src/stm32l4xx_hal_flash_ex.c **** 
 1619              		.loc 1 203 0
 1620 00be 6068     		ldr	r0, [r4, #4]
 1621              	.LVL175:
 1622 00c0 FFF7FEFF 		bl	FLASH_MassErase
 1623              	.LVL176:
 206:../../core/ST/STM32L4xx_HAL_Driver/Src/stm32l4xx_hal_flash_ex.c **** 
 1624              		.loc 1 206 0
 1625 00c4 4CF25030 		movw	r0, #50000
 1626 00c8 FFF7FEFF 		bl	FLASH_WaitForLastOperation
 1627              	.LVL177:
 1628 00cc 0746     		mov	r7, r0
 1629              	.LVL178:
 212:../../core/ST/STM32L4xx_HAL_Driver/Src/stm32l4xx_hal_flash_ex.c **** #else
 1630              		.loc 1 212 0
 1631 00ce 0A4A     		ldr	r2, .L155+4
 1632 00d0 5369     		ldr	r3, [r2, #20]
 1633 00d2 23F40043 		bic	r3, r3, #32768
 1634 00d6 23F00403 		bic	r3, r3, #4
 1635 00da 5361     		str	r3, [r2, #20]
 1636 00dc 00E0     		b	.L147
 1637              	.LVL179:
 1638              	.L154:
 236:../../core/ST/STM32L4xx_HAL_Driver/Src/stm32l4xx_hal_flash_ex.c ****           break;
 1639              		.loc 1 236 0
 1640 00de 3560     		str	r5, [r6]
 1641              	.LVL180:
 1642              	.L147:
 243:../../core/ST/STM32L4xx_HAL_Driver/Src/stm32l4xx_hal_flash_ex.c ****   }
 1643              		.loc 1 243 0
 1644 00e0 FFF7FEFF 		bl	FLASH_FlushCaches
 1645              	.LVL181:
 1646              	.L141:
 247:../../core/ST/STM32L4xx_HAL_Driver/Src/stm32l4xx_hal_flash_ex.c **** 
 1647              		.loc 1 247 0
 1648 00e4 034B     		ldr	r3, .L155
 1649 00e6 0022     		movs	r2, #0
 1650 00e8 1A70     		strb	r2, [r3]
 1651              	.LVL182:
 1652              	.L140:
 250:../../core/ST/STM32L4xx_HAL_Driver/Src/stm32l4xx_hal_flash_ex.c **** 
 1653              		.loc 1 250 0
 1654 00ea 3846     		mov	r0, r7
 1655 00ec F8BD     		pop	{r3, r4, r5, r6, r7, pc}
 1656              	.LVL183:
 1657              	.L151:
 160:../../core/ST/STM32L4xx_HAL_Driver/Src/stm32l4xx_hal_flash_ex.c **** 
 1658              		.loc 1 160 0
 1659 00ee 0227     		movs	r7, #2
 1660 00f0 FBE7     		b	.L140
ARM GAS  /tmp/ccZN3aKc.s 			page 57


 1661              	.L156:
 1662 00f2 00BF     		.align	2
 1663              	.L155:
 1664 00f4 00000000 		.word	pFlash
 1665 00f8 00200240 		.word	1073881088
 1666              		.cfi_endproc
 1667              	.LFE123:
 1669              		.text
 1670              	.Letext0:
 1671              		.file 2 "/home/mats/gcc-arm-none-eabi-7-2018-q2-update/arm-none-eabi/include/machine/_default_type
 1672              		.file 3 "/home/mats/gcc-arm-none-eabi-7-2018-q2-update/arm-none-eabi/include/sys/_stdint.h"
 1673              		.file 4 "../../core/ST/CMSIS/Include/core_cm4.h"
 1674              		.file 5 "../../core/ST/CMSIS/Device/ST/STM32L4xx/Include/system_stm32l4xx.h"
 1675              		.file 6 "../../core/ST/CMSIS/Device/ST/STM32L4xx/Include/stm32l496xx.h"
 1676              		.file 7 "../../core/ST/STM32L4xx_HAL_Driver/Inc/stm32l4xx_hal_def.h"
 1677              		.file 8 "../../core/ST/STM32L4xx_HAL_Driver/Inc/stm32l4xx_hal_flash.h"
 1678              		.file 9 "../../core/ST/STM32L4xx_HAL_Driver/Inc/stm32l4xx_hal.h"
ARM GAS  /tmp/ccZN3aKc.s 			page 58


DEFINED SYMBOLS
                            *ABS*:0000000000000000 stm32l4xx_hal_flash_ex.c
     /tmp/ccZN3aKc.s:18     .text.FLASH_MassErase:0000000000000000 $t
     /tmp/ccZN3aKc.s:24     .text.FLASH_MassErase:0000000000000000 FLASH_MassErase
     /tmp/ccZN3aKc.s:61     .text.FLASH_MassErase:000000000000002c $d
     /tmp/ccZN3aKc.s:66     .text.FLASH_OB_GetWRP:0000000000000000 $t
     /tmp/ccZN3aKc.s:72     .text.FLASH_OB_GetWRP:0000000000000000 FLASH_OB_GetWRP
     /tmp/ccZN3aKc.s:151    .text.FLASH_OB_GetWRP:0000000000000058 $d
     /tmp/ccZN3aKc.s:156    .text.FLASH_OB_GetRDP:0000000000000000 $t
     /tmp/ccZN3aKc.s:162    .text.FLASH_OB_GetRDP:0000000000000000 FLASH_OB_GetRDP
     /tmp/ccZN3aKc.s:196    .text.FLASH_OB_GetRDP:000000000000001c $d
     /tmp/ccZN3aKc.s:201    .text.FLASH_OB_GetUser:0000000000000000 $t
     /tmp/ccZN3aKc.s:207    .text.FLASH_OB_GetUser:0000000000000000 FLASH_OB_GetUser
     /tmp/ccZN3aKc.s:225    .text.FLASH_OB_GetUser:000000000000000c $d
     /tmp/ccZN3aKc.s:230    .text.FLASH_OB_GetPCROP:0000000000000000 $t
     /tmp/ccZN3aKc.s:236    .text.FLASH_OB_GetPCROP:0000000000000000 FLASH_OB_GetPCROP
     /tmp/ccZN3aKc.s:373    .text.FLASH_OB_GetPCROP:00000000000000a8 $d
     /tmp/ccZN3aKc.s:383    .text.FLASH_OB_WRPConfig:0000000000000000 $t
     /tmp/ccZN3aKc.s:389    .text.FLASH_OB_WRPConfig:0000000000000000 FLASH_OB_WRPConfig
     /tmp/ccZN3aKc.s:491    .text.FLASH_OB_WRPConfig:0000000000000088 $d
     /tmp/ccZN3aKc.s:496    .text.FLASH_OB_RDPConfig:0000000000000000 $t
     /tmp/ccZN3aKc.s:502    .text.FLASH_OB_RDPConfig:0000000000000000 FLASH_OB_RDPConfig
     /tmp/ccZN3aKc.s:557    .text.FLASH_OB_RDPConfig:000000000000003c $d
     /tmp/ccZN3aKc.s:562    .text.FLASH_OB_UserConfig:0000000000000000 $t
     /tmp/ccZN3aKc.s:568    .text.FLASH_OB_UserConfig:0000000000000000 FLASH_OB_UserConfig
     /tmp/ccZN3aKc.s:798    .text.FLASH_OB_UserConfig:0000000000000138 $d
     /tmp/ccZN3aKc.s:803    .text.FLASH_OB_PCROPConfig:0000000000000000 $t
     /tmp/ccZN3aKc.s:809    .text.FLASH_OB_PCROPConfig:0000000000000000 FLASH_OB_PCROPConfig
     /tmp/ccZN3aKc.s:973    .text.FLASH_OB_PCROPConfig:00000000000000e0 $d
     /tmp/ccZN3aKc.s:982    .text.HAL_FLASHEx_OBProgram:0000000000000000 $t
     /tmp/ccZN3aKc.s:989    .text.HAL_FLASHEx_OBProgram:0000000000000000 HAL_FLASHEx_OBProgram
     /tmp/ccZN3aKc.s:1117   .text.HAL_FLASHEx_OBProgram:0000000000000090 $d
     /tmp/ccZN3aKc.s:1122   .text.HAL_FLASHEx_OBGetConfig:0000000000000000 $t
     /tmp/ccZN3aKc.s:1129   .text.HAL_FLASHEx_OBGetConfig:0000000000000000 HAL_FLASHEx_OBGetConfig
     /tmp/ccZN3aKc.s:1197   .text.FLASH_PageErase:0000000000000000 $t
     /tmp/ccZN3aKc.s:1204   .text.FLASH_PageErase:0000000000000000 FLASH_PageErase
     /tmp/ccZN3aKc.s:1251   .text.FLASH_PageErase:0000000000000040 $d
     /tmp/ccZN3aKc.s:1256   .text.HAL_FLASHEx_Erase_IT:0000000000000000 $t
     /tmp/ccZN3aKc.s:1263   .text.HAL_FLASHEx_Erase_IT:0000000000000000 HAL_FLASHEx_Erase_IT
     /tmp/ccZN3aKc.s:1397   .text.HAL_FLASHEx_Erase_IT:00000000000000b0 $d
     /tmp/ccZN3aKc.s:1403   .text.FLASH_FlushCaches:0000000000000000 $t
     /tmp/ccZN3aKc.s:1410   .text.FLASH_FlushCaches:0000000000000000 FLASH_FlushCaches
     /tmp/ccZN3aKc.s:1473   .text.FLASH_FlushCaches:0000000000000054 $d
     /tmp/ccZN3aKc.s:1479   .text.HAL_FLASHEx_Erase:0000000000000000 $t
     /tmp/ccZN3aKc.s:1486   .text.HAL_FLASHEx_Erase:0000000000000000 HAL_FLASHEx_Erase
     /tmp/ccZN3aKc.s:1664   .text.HAL_FLASHEx_Erase:00000000000000f4 $d

UNDEFINED SYMBOLS
FLASH_WaitForLastOperation
pFlash
