ARM GAS  /tmp/cchI2cEQ.s 			page 1


   1              		.cpu cortex-m4
   2              		.eabi_attribute 27, 1
   3              		.eabi_attribute 28, 1
   4              		.eabi_attribute 20, 1
   5              		.eabi_attribute 21, 1
   6              		.eabi_attribute 23, 3
   7              		.eabi_attribute 24, 1
   8              		.eabi_attribute 25, 1
   9              		.eabi_attribute 26, 1
  10              		.eabi_attribute 30, 1
  11              		.eabi_attribute 34, 1
  12              		.eabi_attribute 18, 4
  13              		.file	"gpio.c"
  14              		.text
  15              	.Ltext0:
  16              		.cfi_sections	.debug_frame
  17              		.section	.text.OCTA_GPIO_Init,"ax",%progbits
  18              		.align	1
  19              		.global	OCTA_GPIO_Init
  20              		.syntax unified
  21              		.thumb
  22              		.thumb_func
  23              		.fpu fpv4-sp-d16
  25              	OCTA_GPIO_Init:
  26              	.LFB123:
  27              		.file 1 "../../core/platform/octa/src/gpio.c"
   1:../../core/platform/octa/src/gpio.c **** #include "gpio.h"
   2:../../core/platform/octa/src/gpio.c **** 
   3:../../core/platform/octa/src/gpio.c **** /**
   4:../../core/platform/octa/src/gpio.c ****   * @brief GPIO Initialization Function
   5:../../core/platform/octa/src/gpio.c ****   * @param None
   6:../../core/platform/octa/src/gpio.c ****   * @retval None
   7:../../core/platform/octa/src/gpio.c ****   */
   8:../../core/platform/octa/src/gpio.c **** void OCTA_GPIO_Init(void)
   9:../../core/platform/octa/src/gpio.c **** {
  28              		.loc 1 9 0
  29              		.cfi_startproc
  30              		@ args = 0, pretend = 0, frame = 48
  31              		@ frame_needed = 0, uses_anonymous_args = 0
  32 0000 2DE9F04F 		push	{r4, r5, r6, r7, r8, r9, r10, fp, lr}
  33              	.LCFI0:
  34              		.cfi_def_cfa_offset 36
  35              		.cfi_offset 4, -36
  36              		.cfi_offset 5, -32
  37              		.cfi_offset 6, -28
  38              		.cfi_offset 7, -24
  39              		.cfi_offset 8, -20
  40              		.cfi_offset 9, -16
  41              		.cfi_offset 10, -12
  42              		.cfi_offset 11, -8
  43              		.cfi_offset 14, -4
  44 0004 8DB0     		sub	sp, sp, #52
  45              	.LCFI1:
  46              		.cfi_def_cfa_offset 88
  10:../../core/platform/octa/src/gpio.c ****   GPIO_InitTypeDef GPIO_InitStruct = {0};
  47              		.loc 1 10 0
  48 0006 0024     		movs	r4, #0
ARM GAS  /tmp/cchI2cEQ.s 			page 2


  49 0008 0794     		str	r4, [sp, #28]
  50 000a 0894     		str	r4, [sp, #32]
  51 000c 0994     		str	r4, [sp, #36]
  52 000e 0A94     		str	r4, [sp, #40]
  53 0010 0B94     		str	r4, [sp, #44]
  54              	.LBB2:
  11:../../core/platform/octa/src/gpio.c **** 
  12:../../core/platform/octa/src/gpio.c ****   /* GPIO Ports Clock Enable */
  13:../../core/platform/octa/src/gpio.c ****   __HAL_RCC_GPIOE_CLK_ENABLE();
  55              		.loc 1 13 0
  56 0012 A04B     		ldr	r3, .L3
  57 0014 DA6C     		ldr	r2, [r3, #76]
  58 0016 42F01002 		orr	r2, r2, #16
  59 001a DA64     		str	r2, [r3, #76]
  60 001c DA6C     		ldr	r2, [r3, #76]
  61 001e 02F01002 		and	r2, r2, #16
  62 0022 0092     		str	r2, [sp]
  63 0024 009A     		ldr	r2, [sp]
  64              	.LBE2:
  65              	.LBB3:
  14:../../core/platform/octa/src/gpio.c ****   __HAL_RCC_GPIOC_CLK_ENABLE();
  66              		.loc 1 14 0
  67 0026 DA6C     		ldr	r2, [r3, #76]
  68 0028 42F00402 		orr	r2, r2, #4
  69 002c DA64     		str	r2, [r3, #76]
  70 002e DA6C     		ldr	r2, [r3, #76]
  71 0030 02F00402 		and	r2, r2, #4
  72 0034 0192     		str	r2, [sp, #4]
  73 0036 019A     		ldr	r2, [sp, #4]
  74              	.LBE3:
  75              	.LBB4:
  15:../../core/platform/octa/src/gpio.c ****   __HAL_RCC_GPIOF_CLK_ENABLE();
  76              		.loc 1 15 0
  77 0038 DA6C     		ldr	r2, [r3, #76]
  78 003a 42F02002 		orr	r2, r2, #32
  79 003e DA64     		str	r2, [r3, #76]
  80 0040 DA6C     		ldr	r2, [r3, #76]
  81 0042 02F02002 		and	r2, r2, #32
  82 0046 0292     		str	r2, [sp, #8]
  83 0048 029A     		ldr	r2, [sp, #8]
  84              	.LBE4:
  85              	.LBB5:
  16:../../core/platform/octa/src/gpio.c ****   __HAL_RCC_GPIOA_CLK_ENABLE();
  86              		.loc 1 16 0
  87 004a DA6C     		ldr	r2, [r3, #76]
  88 004c 42F00102 		orr	r2, r2, #1
  89 0050 DA64     		str	r2, [r3, #76]
  90 0052 DA6C     		ldr	r2, [r3, #76]
  91 0054 02F00102 		and	r2, r2, #1
  92 0058 0392     		str	r2, [sp, #12]
  93 005a 039A     		ldr	r2, [sp, #12]
  94              	.LBE5:
  95              	.LBB6:
  17:../../core/platform/octa/src/gpio.c ****   __HAL_RCC_GPIOB_CLK_ENABLE();
  96              		.loc 1 17 0
  97 005c DA6C     		ldr	r2, [r3, #76]
  98 005e 42F00202 		orr	r2, r2, #2
ARM GAS  /tmp/cchI2cEQ.s 			page 3


  99 0062 DA64     		str	r2, [r3, #76]
 100 0064 DA6C     		ldr	r2, [r3, #76]
 101 0066 02F00202 		and	r2, r2, #2
 102 006a 0492     		str	r2, [sp, #16]
 103 006c 049A     		ldr	r2, [sp, #16]
 104              	.LBE6:
 105              	.LBB7:
  18:../../core/platform/octa/src/gpio.c ****   __HAL_RCC_GPIOG_CLK_ENABLE();
 106              		.loc 1 18 0
 107 006e DA6C     		ldr	r2, [r3, #76]
 108 0070 42F04002 		orr	r2, r2, #64
 109 0074 DA64     		str	r2, [r3, #76]
 110 0076 DA6C     		ldr	r2, [r3, #76]
 111 0078 02F04002 		and	r2, r2, #64
 112 007c 0592     		str	r2, [sp, #20]
 113 007e 059A     		ldr	r2, [sp, #20]
 114              	.LBE7:
 115              	.LBB8:
  19:../../core/platform/octa/src/gpio.c ****   __HAL_RCC_GPIOD_CLK_ENABLE();
 116              		.loc 1 19 0
 117 0080 DA6C     		ldr	r2, [r3, #76]
 118 0082 42F00802 		orr	r2, r2, #8
 119 0086 DA64     		str	r2, [r3, #76]
 120 0088 DB6C     		ldr	r3, [r3, #76]
 121 008a 03F00803 		and	r3, r3, #8
 122 008e 0693     		str	r3, [sp, #24]
 123 0090 069B     		ldr	r3, [sp, #24]
 124              	.LBE8:
  20:../../core/platform/octa/src/gpio.c ****   HAL_PWREx_EnableVddIO2();
 125              		.loc 1 20 0
 126 0092 FFF7FEFF 		bl	HAL_PWREx_EnableVddIO2
 127              	.LVL0:
  21:../../core/platform/octa/src/gpio.c **** 
  22:../../core/platform/octa/src/gpio.c ****   /*Configure GPIO pin Output Level */
  23:../../core/platform/octa/src/gpio.c ****   HAL_GPIO_WritePin(GPIOE, P2_DIO1_Pin|P2_DIO6_Pin|P2_DIO2_Pin|P2_DIO4_Pin 
 128              		.loc 1 23 0
 129 0096 804D     		ldr	r5, .L3+4
 130 0098 0122     		movs	r2, #1
 131 009a 40F2FC71 		movw	r1, #2044
 132 009e 2846     		mov	r0, r5
 133 00a0 FFF7FEFF 		bl	HAL_GPIO_WritePin
 134              	.LVL1:
  24:../../core/platform/octa/src/gpio.c ****                           |P2_DIO3_Pin|P3_DIO1_Pin|P3_DIO4_Pin|P3_DIO5_Pin 
  25:../../core/platform/octa/src/gpio.c ****                           |P3_DIO2_Pin, GPIO_PIN_SET);
  26:../../core/platform/octa/src/gpio.c **** 
  27:../../core/platform/octa/src/gpio.c ****   /*Configure GPIO pin Output Level */
  28:../../core/platform/octa/src/gpio.c ****   HAL_GPIO_WritePin(GPIOF, P1_DIO3_Pin|P1_DIO5_Pin|P2_DIO5_Pin|P3_DIO3_Pin , GPIO_PIN_SET);
 135              		.loc 1 28 0
 136 00a4 7D4E     		ldr	r6, .L3+8
 137 00a6 0122     		movs	r2, #1
 138 00a8 44F22811 		movw	r1, #16680
 139 00ac 3046     		mov	r0, r6
 140 00ae FFF7FEFF 		bl	HAL_GPIO_WritePin
 141              	.LVL2:
  29:../../core/platform/octa/src/gpio.c **** 
  30:../../core/platform/octa/src/gpio.c ****   #if ENABLE_STEPUP
  31:../../core/platform/octa/src/gpio.c ****     /*Configure GPIO pin Output Level */
ARM GAS  /tmp/cchI2cEQ.s 			page 4


  32:../../core/platform/octa/src/gpio.c ****     HAL_GPIO_WritePin(OCTA_STEPUP_GPIO_Port, OCTA_STEPUP_Pin, GPIO_PIN_SET);
  33:../../core/platform/octa/src/gpio.c ****   #else
  34:../../core/platform/octa/src/gpio.c ****     /*Configure GPIO pin Output Level */
  35:../../core/platform/octa/src/gpio.c ****     HAL_GPIO_WritePin(OCTA_STEPUP_GPIO_Port, OCTA_STEPUP_Pin, GPIO_PIN_RESET);
 142              		.loc 1 35 0
 143 00b2 2246     		mov	r2, r4
 144 00b4 4FF40071 		mov	r1, #512
 145 00b8 3046     		mov	r0, r6
 146 00ba FFF7FEFF 		bl	HAL_GPIO_WritePin
 147              	.LVL3:
  36:../../core/platform/octa/src/gpio.c ****   #endif
  37:../../core/platform/octa/src/gpio.c ****   /*Configure GPIO pin Output Level */
  38:../../core/platform/octa/src/gpio.c ****   HAL_GPIO_WritePin(GPIOC, P1_DIO6_Pin|P1_DIO2_Pin|P1_DIO1_Pin, GPIO_PIN_SET);
 148              		.loc 1 38 0
 149 00be DFF83082 		ldr	r8, .L3+92
 150 00c2 0122     		movs	r2, #1
 151 00c4 4FF44271 		mov	r1, #776
 152 00c8 4046     		mov	r0, r8
 153 00ca FFF7FEFF 		bl	HAL_GPIO_WritePin
 154              	.LVL4:
  39:../../core/platform/octa/src/gpio.c **** 
  40:../../core/platform/octa/src/gpio.c ****   /*Configure GPIO pin Output Level */
  41:../../core/platform/octa/src/gpio.c ****   HAL_GPIO_WritePin(BLE_Reset_GPIO_Port, BLE_Reset_Pin, GPIO_PIN_SET);
 155              		.loc 1 41 0
 156 00ce 0122     		movs	r2, #1
 157 00d0 0221     		movs	r1, #2
 158 00d2 4FF09040 		mov	r0, #1207959552
 159 00d6 FFF7FEFF 		bl	HAL_GPIO_WritePin
 160              	.LVL5:
  42:../../core/platform/octa/src/gpio.c **** 
  43:../../core/platform/octa/src/gpio.c ****   /*Configure GPIO pin Output Level */
  44:../../core/platform/octa/src/gpio.c ****   HAL_GPIO_WritePin(P1_DIO4_GPIO_Port, P1_DIO4_Pin, GPIO_PIN_SET);
 161              		.loc 1 44 0
 162 00da 0122     		movs	r2, #1
 163 00dc 8021     		movs	r1, #128
 164 00de 4FF09040 		mov	r0, #1207959552
 165 00e2 FFF7FEFF 		bl	HAL_GPIO_WritePin
 166              	.LVL6:
  45:../../core/platform/octa/src/gpio.c **** 
  46:../../core/platform/octa/src/gpio.c ****   /*Configure GPIO pin Output Level */
  47:../../core/platform/octa/src/gpio.c ****   HAL_GPIO_WritePin(GPIOB, OCTA_GLED_Pin|P3_DIO6_Pin, GPIO_PIN_SET);
 167              		.loc 1 47 0
 168 00e6 DFF80C92 		ldr	r9, .L3+96
 169 00ea 0122     		movs	r2, #1
 170 00ec 0321     		movs	r1, #3
 171 00ee 4846     		mov	r0, r9
 172 00f0 FFF7FEFF 		bl	HAL_GPIO_WritePin
 173              	.LVL7:
  48:../../core/platform/octa/src/gpio.c **** 
  49:../../core/platform/octa/src/gpio.c ****   /*Configure GPIO pin Output Level */
  50:../../core/platform/octa/src/gpio.c ****   HAL_GPIO_WritePin(GPIOB, LD3_Pin|LD2_Pin, GPIO_PIN_RESET);
 174              		.loc 1 50 0
 175 00f4 2246     		mov	r2, r4
 176 00f6 4FF48141 		mov	r1, #16512
 177 00fa 4846     		mov	r0, r9
 178 00fc FFF7FEFF 		bl	HAL_GPIO_WritePin
 179              	.LVL8:
ARM GAS  /tmp/cchI2cEQ.s 			page 5


  51:../../core/platform/octa/src/gpio.c **** 
  52:../../core/platform/octa/src/gpio.c ****   /*Configure GPIO pin Output Level */
  53:../../core/platform/octa/src/gpio.c ****   HAL_GPIO_WritePin(GPIOD, OCTA_RLED_Pin|OCTA_BLED_Pin, GPIO_PIN_SET);
 180              		.loc 1 53 0
 181 0100 DFF8F4B1 		ldr	fp, .L3+100
 182 0104 0122     		movs	r2, #1
 183 0106 4FF44041 		mov	r1, #49152
 184 010a 5846     		mov	r0, fp
 185 010c FFF7FEFF 		bl	HAL_GPIO_WritePin
 186              	.LVL9:
  54:../../core/platform/octa/src/gpio.c **** 
  55:../../core/platform/octa/src/gpio.c ****   /*Configure GPIO pins : P2_DIO1_Pin P2_DIO6_Pin P2_DIO2_Pin P2_DIO4_Pin 
  56:../../core/platform/octa/src/gpio.c ****                            P2_DIO3_Pin P3_DIO1_Pin P3_DIO4_Pin P3_DIO5_Pin 
  57:../../core/platform/octa/src/gpio.c ****                            P3_DIO2_Pin */
  58:../../core/platform/octa/src/gpio.c ****   GPIO_InitStruct.Pin = P2_DIO1_Pin|P2_DIO6_Pin|P2_DIO2_Pin|P2_DIO4_Pin 
 187              		.loc 1 58 0
 188 0110 40F2FC73 		movw	r3, #2044
 189 0114 0793     		str	r3, [sp, #28]
  59:../../core/platform/octa/src/gpio.c ****                           |P2_DIO3_Pin|P3_DIO1_Pin|P3_DIO4_Pin|P3_DIO5_Pin 
  60:../../core/platform/octa/src/gpio.c ****                           |P3_DIO2_Pin;
  61:../../core/platform/octa/src/gpio.c ****   GPIO_InitStruct.Mode = GPIO_MODE_OUTPUT_PP;
 190              		.loc 1 61 0
 191 0116 0127     		movs	r7, #1
 192 0118 0897     		str	r7, [sp, #32]
  62:../../core/platform/octa/src/gpio.c ****   GPIO_InitStruct.Pull = GPIO_NOPULL;
 193              		.loc 1 62 0
 194 011a 0994     		str	r4, [sp, #36]
  63:../../core/platform/octa/src/gpio.c ****   GPIO_InitStruct.Speed = GPIO_SPEED_FREQ_LOW;
 195              		.loc 1 63 0
 196 011c 0A94     		str	r4, [sp, #40]
  64:../../core/platform/octa/src/gpio.c ****   HAL_GPIO_Init(GPIOE, &GPIO_InitStruct);
 197              		.loc 1 64 0
 198 011e 07A9     		add	r1, sp, #28
 199 0120 2846     		mov	r0, r5
 200 0122 FFF7FEFF 		bl	HAL_GPIO_Init
 201              	.LVL10:
  65:../../core/platform/octa/src/gpio.c **** 
  66:../../core/platform/octa/src/gpio.c ****   /*Configure GPIO pin : B1_Pin */
  67:../../core/platform/octa/src/gpio.c ****   GPIO_InitStruct.Pin = B1_Pin;
 202              		.loc 1 67 0
 203 0126 4FF4005A 		mov	r10, #8192
 204 012a CDF81CA0 		str	r10, [sp, #28]
  68:../../core/platform/octa/src/gpio.c ****   GPIO_InitStruct.Mode = GPIO_MODE_IT_RISING;
 205              		.loc 1 68 0
 206 012e 5C4B     		ldr	r3, .L3+12
 207 0130 0893     		str	r3, [sp, #32]
  69:../../core/platform/octa/src/gpio.c ****   GPIO_InitStruct.Pull = GPIO_NOPULL;
 208              		.loc 1 69 0
 209 0132 0994     		str	r4, [sp, #36]
  70:../../core/platform/octa/src/gpio.c ****   HAL_GPIO_Init(B1_GPIO_Port, &GPIO_InitStruct);
 210              		.loc 1 70 0
 211 0134 07A9     		add	r1, sp, #28
 212 0136 4046     		mov	r0, r8
 213 0138 FFF7FEFF 		bl	HAL_GPIO_Init
 214              	.LVL11:
  71:../../core/platform/octa/src/gpio.c **** 
  72:../../core/platform/octa/src/gpio.c ****   /*Configure GPIO pins : P1_DIO3_Pin P1_DIO5_Pin P2_DIO5_Pin OCTA_STEPUP_Pin 
ARM GAS  /tmp/cchI2cEQ.s 			page 6


  73:../../core/platform/octa/src/gpio.c ****                            P3_DIO3_Pin */
  74:../../core/platform/octa/src/gpio.c ****   GPIO_InitStruct.Pin = P1_DIO3_Pin|P1_DIO5_Pin|P2_DIO5_Pin|OCTA_STEPUP_Pin 
 215              		.loc 1 74 0
 216 013c 44F2A833 		movw	r3, #17320
 217 0140 0793     		str	r3, [sp, #28]
  75:../../core/platform/octa/src/gpio.c ****                           |P3_DIO3_Pin|OCTA_LIGHTSENSORLED_Pin;
  76:../../core/platform/octa/src/gpio.c ****   GPIO_InitStruct.Mode = GPIO_MODE_OUTPUT_PP;
 218              		.loc 1 76 0
 219 0142 0897     		str	r7, [sp, #32]
  77:../../core/platform/octa/src/gpio.c ****   GPIO_InitStruct.Pull = GPIO_NOPULL;
 220              		.loc 1 77 0
 221 0144 0994     		str	r4, [sp, #36]
  78:../../core/platform/octa/src/gpio.c ****   GPIO_InitStruct.Speed = GPIO_SPEED_FREQ_LOW;
 222              		.loc 1 78 0
 223 0146 0A94     		str	r4, [sp, #40]
  79:../../core/platform/octa/src/gpio.c ****   HAL_GPIO_Init(GPIOF, &GPIO_InitStruct);
 224              		.loc 1 79 0
 225 0148 07A9     		add	r1, sp, #28
 226 014a 3046     		mov	r0, r6
 227 014c FFF7FEFF 		bl	HAL_GPIO_Init
 228              	.LVL12:
  80:../../core/platform/octa/src/gpio.c **** 
  81:../../core/platform/octa/src/gpio.c ****   /*Configure GPIO pins : P1_DIO6_Pin P1_DIO2_Pin P1_DIO1_Pin */
  82:../../core/platform/octa/src/gpio.c ****   GPIO_InitStruct.Pin = P1_DIO6_Pin|P1_DIO2_Pin|P1_DIO1_Pin;
 229              		.loc 1 82 0
 230 0150 4FF44273 		mov	r3, #776
 231 0154 0793     		str	r3, [sp, #28]
  83:../../core/platform/octa/src/gpio.c ****   GPIO_InitStruct.Mode = GPIO_MODE_OUTPUT_PP;
 232              		.loc 1 83 0
 233 0156 0897     		str	r7, [sp, #32]
  84:../../core/platform/octa/src/gpio.c ****   GPIO_InitStruct.Pull = GPIO_NOPULL;
 234              		.loc 1 84 0
 235 0158 0994     		str	r4, [sp, #36]
  85:../../core/platform/octa/src/gpio.c ****   GPIO_InitStruct.Speed = GPIO_SPEED_FREQ_LOW;
 236              		.loc 1 85 0
 237 015a 0A94     		str	r4, [sp, #40]
  86:../../core/platform/octa/src/gpio.c ****   HAL_GPIO_Init(GPIOC, &GPIO_InitStruct);
 238              		.loc 1 86 0
 239 015c 07A9     		add	r1, sp, #28
 240 015e 4046     		mov	r0, r8
 241 0160 FFF7FEFF 		bl	HAL_GPIO_Init
 242              	.LVL13:
  87:../../core/platform/octa/src/gpio.c **** 
  88:../../core/platform/octa/src/gpio.c ****   /*Configure GPIO pins : BLE_Reset_Pin P1_DIO4_Pin */
  89:../../core/platform/octa/src/gpio.c ****   GPIO_InitStruct.Pin = BLE_Reset_Pin|P1_DIO4_Pin;
 243              		.loc 1 89 0
 244 0164 8223     		movs	r3, #130
 245 0166 0793     		str	r3, [sp, #28]
  90:../../core/platform/octa/src/gpio.c ****   GPIO_InitStruct.Mode = GPIO_MODE_OUTPUT_PP;
 246              		.loc 1 90 0
 247 0168 0897     		str	r7, [sp, #32]
  91:../../core/platform/octa/src/gpio.c ****   GPIO_InitStruct.Pull = GPIO_NOPULL;
 248              		.loc 1 91 0
 249 016a 0994     		str	r4, [sp, #36]
  92:../../core/platform/octa/src/gpio.c ****   GPIO_InitStruct.Speed = GPIO_SPEED_FREQ_LOW;
 250              		.loc 1 92 0
 251 016c 0A94     		str	r4, [sp, #40]
ARM GAS  /tmp/cchI2cEQ.s 			page 7


  93:../../core/platform/octa/src/gpio.c ****   HAL_GPIO_Init(GPIOA, &GPIO_InitStruct);
 252              		.loc 1 93 0
 253 016e 07A9     		add	r1, sp, #28
 254 0170 4FF09040 		mov	r0, #1207959552
 255 0174 FFF7FEFF 		bl	HAL_GPIO_Init
 256              	.LVL14:
  94:../../core/platform/octa/src/gpio.c **** 
  95:../../core/platform/octa/src/gpio.c ****   /*Configure GPIO pins : OCTA_GLED_Pin P3_DIO6_Pin LD3_Pin LD2_Pin */
  96:../../core/platform/octa/src/gpio.c ****   GPIO_InitStruct.Pin = OCTA_GLED_Pin|P3_DIO6_Pin|LD3_Pin|LD2_Pin;
 257              		.loc 1 96 0
 258 0178 44F28303 		movw	r3, #16515
 259 017c 0793     		str	r3, [sp, #28]
  97:../../core/platform/octa/src/gpio.c ****   GPIO_InitStruct.Mode = GPIO_MODE_OUTPUT_PP;
 260              		.loc 1 97 0
 261 017e 0897     		str	r7, [sp, #32]
  98:../../core/platform/octa/src/gpio.c ****   GPIO_InitStruct.Pull = GPIO_NOPULL;
 262              		.loc 1 98 0
 263 0180 0994     		str	r4, [sp, #36]
  99:../../core/platform/octa/src/gpio.c ****   GPIO_InitStruct.Speed = GPIO_SPEED_FREQ_LOW;
 264              		.loc 1 99 0
 265 0182 0A94     		str	r4, [sp, #40]
 100:../../core/platform/octa/src/gpio.c ****   HAL_GPIO_Init(GPIOB, &GPIO_InitStruct);
 266              		.loc 1 100 0
 267 0184 07A9     		add	r1, sp, #28
 268 0186 4846     		mov	r0, r9
 269 0188 FFF7FEFF 		bl	HAL_GPIO_Init
 270              	.LVL15:
 101:../../core/platform/octa/src/gpio.c **** 
 102:../../core/platform/octa/src/gpio.c ****   /*Configure GPIO pins : OCTA_BTN1_Pin OCTA_BTN2_Pin */
 103:../../core/platform/octa/src/gpio.c ****   GPIO_InitStruct.Pin = OCTA_BTN1_Pin|OCTA_BTN2_Pin;
 271              		.loc 1 103 0
 272 018c 0323     		movs	r3, #3
 273 018e 0793     		str	r3, [sp, #28]
 104:../../core/platform/octa/src/gpio.c ****   GPIO_InitStruct.Mode = GPIO_MODE_INPUT;
 274              		.loc 1 104 0
 275 0190 0894     		str	r4, [sp, #32]
 105:../../core/platform/octa/src/gpio.c ****   GPIO_InitStruct.Pull = GPIO_NOPULL;
 276              		.loc 1 105 0
 277 0192 0994     		str	r4, [sp, #36]
 106:../../core/platform/octa/src/gpio.c ****   HAL_GPIO_Init(GPIOG, &GPIO_InitStruct);
 278              		.loc 1 106 0
 279 0194 07A9     		add	r1, sp, #28
 280 0196 4348     		ldr	r0, .L3+16
 281 0198 FFF7FEFF 		bl	HAL_GPIO_Init
 282              	.LVL16:
 107:../../core/platform/octa/src/gpio.c **** 
 108:../../core/platform/octa/src/gpio.c ****   /*Configure GPIO pins : OCTA_RLED_Pin OCTA_BLED_Pin */
 109:../../core/platform/octa/src/gpio.c ****   GPIO_InitStruct.Pin = OCTA_RLED_Pin|OCTA_BLED_Pin;
 283              		.loc 1 109 0
 284 019c 4FF44043 		mov	r3, #49152
 285 01a0 0793     		str	r3, [sp, #28]
 110:../../core/platform/octa/src/gpio.c ****   GPIO_InitStruct.Mode = GPIO_MODE_OUTPUT_PP;
 286              		.loc 1 110 0
 287 01a2 0897     		str	r7, [sp, #32]
 111:../../core/platform/octa/src/gpio.c ****   GPIO_InitStruct.Pull = GPIO_NOPULL;
 288              		.loc 1 111 0
 289 01a4 0994     		str	r4, [sp, #36]
ARM GAS  /tmp/cchI2cEQ.s 			page 8


 112:../../core/platform/octa/src/gpio.c ****   GPIO_InitStruct.Speed = GPIO_SPEED_FREQ_LOW;
 290              		.loc 1 112 0
 291 01a6 0A94     		str	r4, [sp, #40]
 113:../../core/platform/octa/src/gpio.c ****   HAL_GPIO_Init(GPIOD, &GPIO_InitStruct);
 292              		.loc 1 113 0
 293 01a8 07A9     		add	r1, sp, #28
 294 01aa 5846     		mov	r0, fp
 295 01ac FFF7FEFF 		bl	HAL_GPIO_Init
 296              	.LVL17:
 114:../../core/platform/octa/src/gpio.c **** 
 115:../../core/platform/octa/src/gpio.c ****   /*Configure GPIO pin : PF13 (OCTA-FLASH CS)*/
 116:../../core/platform/octa/src/gpio.c ****   GPIO_InitStruct.Pin = OCTA_FLASH_CS_Pin;
 297              		.loc 1 116 0
 298 01b0 CDF81CA0 		str	r10, [sp, #28]
 117:../../core/platform/octa/src/gpio.c ****   GPIO_InitStruct.Mode = GPIO_MODE_OUTPUT_PP;
 299              		.loc 1 117 0
 300 01b4 0897     		str	r7, [sp, #32]
 118:../../core/platform/octa/src/gpio.c ****   GPIO_InitStruct.Pull = GPIO_NOPULL;
 301              		.loc 1 118 0
 302 01b6 0994     		str	r4, [sp, #36]
 119:../../core/platform/octa/src/gpio.c ****   GPIO_InitStruct.Speed = GPIO_SPEED_FREQ_LOW;
 303              		.loc 1 119 0
 304 01b8 0A94     		str	r4, [sp, #40]
 120:../../core/platform/octa/src/gpio.c ****   HAL_GPIO_Init(OCTA_FLASH_CS_Port, &GPIO_InitStruct);
 305              		.loc 1 120 0
 306 01ba 07A9     		add	r1, sp, #28
 307 01bc 3046     		mov	r0, r6
 308 01be FFF7FEFF 		bl	HAL_GPIO_Init
 309              	.LVL18:
 121:../../core/platform/octa/src/gpio.c **** 
 122:../../core/platform/octa/src/gpio.c ****   /*Configure GPIO pins : PE11 (OCTA-FLASH WP) PE0 (OCTA-FLASH HOLD) */
 123:../../core/platform/octa/src/gpio.c ****   GPIO_InitStruct.Pin = OCTA_FLASH_WP_Pin|OCTA_FLASH_HOLD_Pin;
 310              		.loc 1 123 0
 311 01c2 40F6010B 		movw	fp, #2049
 312 01c6 CDF81CB0 		str	fp, [sp, #28]
 124:../../core/platform/octa/src/gpio.c ****   GPIO_InitStruct.Mode = GPIO_MODE_OUTPUT_PP;
 313              		.loc 1 124 0
 314 01ca 0897     		str	r7, [sp, #32]
 125:../../core/platform/octa/src/gpio.c ****   GPIO_InitStruct.Pull = GPIO_NOPULL;
 315              		.loc 1 125 0
 316 01cc 0994     		str	r4, [sp, #36]
 126:../../core/platform/octa/src/gpio.c ****   GPIO_InitStruct.Speed = GPIO_SPEED_FREQ_LOW;
 317              		.loc 1 126 0
 318 01ce 0A94     		str	r4, [sp, #40]
 127:../../core/platform/octa/src/gpio.c ****   HAL_GPIO_Init(GPIOE, &GPIO_InitStruct);
 319              		.loc 1 127 0
 320 01d0 07A9     		add	r1, sp, #28
 321 01d2 2846     		mov	r0, r5
 322 01d4 FFF7FEFF 		bl	HAL_GPIO_Init
 323              	.LVL19:
 128:../../core/platform/octa/src/gpio.c **** 
 129:../../core/platform/octa/src/gpio.c ****   /*Configure GPIO pin Output Level */
 130:../../core/platform/octa/src/gpio.c ****   HAL_GPIO_WritePin(OCTA_FLASH_CS_Port, OCTA_FLASH_CS_Pin, GPIO_PIN_SET);
 324              		.loc 1 130 0
 325 01d8 3A46     		mov	r2, r7
 326 01da 5146     		mov	r1, r10
 327 01dc 3046     		mov	r0, r6
ARM GAS  /tmp/cchI2cEQ.s 			page 9


 328 01de FFF7FEFF 		bl	HAL_GPIO_WritePin
 329              	.LVL20:
 131:../../core/platform/octa/src/gpio.c **** 
 132:../../core/platform/octa/src/gpio.c ****   /*Configure GPIO pin Output Level */
 133:../../core/platform/octa/src/gpio.c ****   HAL_GPIO_WritePin(GPIOE, OCTA_FLASH_WP_Pin|OCTA_FLASH_HOLD_Pin, GPIO_PIN_RESET);
 330              		.loc 1 133 0
 331 01e2 2246     		mov	r2, r4
 332 01e4 5946     		mov	r1, fp
 333 01e6 2846     		mov	r0, r5
 334 01e8 FFF7FEFF 		bl	HAL_GPIO_WritePin
 335              	.LVL21:
 134:../../core/platform/octa/src/gpio.c **** 
 135:../../core/platform/octa/src/gpio.c ****   P1_DIO1.PORT = P1_DIO1_GPIO_Port;
 336              		.loc 1 135 0
 337 01ec 2E4B     		ldr	r3, .L3+20
 338 01ee C3F80080 		str	r8, [r3]
 136:../../core/platform/octa/src/gpio.c ****   P1_DIO1.PIN =  P1_DIO1_Pin;
 339              		.loc 1 136 0
 340 01f2 4FF40071 		mov	r1, #512
 341 01f6 9980     		strh	r1, [r3, #4]	@ movhi
 137:../../core/platform/octa/src/gpio.c ****   P1_DIO2.PORT = P1_DIO2_GPIO_Port;
 342              		.loc 1 137 0
 343 01f8 2C4A     		ldr	r2, .L3+24
 344 01fa C2F80080 		str	r8, [r2]
 138:../../core/platform/octa/src/gpio.c ****   P1_DIO2.PIN = P1_DIO2_Pin;
 345              		.loc 1 138 0
 346 01fe 4FF48073 		mov	r3, #256
 347 0202 9380     		strh	r3, [r2, #4]	@ movhi
 139:../../core/platform/octa/src/gpio.c ****   P1_DIO3.PORT = P1_DIO3_GPIO_Port;
 348              		.loc 1 139 0
 349 0204 2A48     		ldr	r0, .L3+28
 350 0206 0660     		str	r6, [r0]
 140:../../core/platform/octa/src/gpio.c ****   P1_DIO3.PIN = P1_DIO3_Pin;
 351              		.loc 1 140 0
 352 0208 0822     		movs	r2, #8
 353 020a 8280     		strh	r2, [r0, #4]	@ movhi
 141:../../core/platform/octa/src/gpio.c ****   P1_DIO4.PORT = P1_DIO4_GPIO_Port;
 354              		.loc 1 141 0
 355 020c 294C     		ldr	r4, .L3+32
 356 020e 4FF09040 		mov	r0, #1207959552
 357 0212 2060     		str	r0, [r4]
 142:../../core/platform/octa/src/gpio.c ****   P1_DIO4.PIN = P1_DIO4_Pin;
 358              		.loc 1 142 0
 359 0214 8020     		movs	r0, #128
 360 0216 A080     		strh	r0, [r4, #4]	@ movhi
 143:../../core/platform/octa/src/gpio.c ****   P1_DIO5.PORT = P1_DIO5_GPIO_Port;
 361              		.loc 1 143 0
 362 0218 274C     		ldr	r4, .L3+36
 363 021a 2660     		str	r6, [r4]
 144:../../core/platform/octa/src/gpio.c ****   P1_DIO5.PIN = P1_DIO5_Pin;
 364              		.loc 1 144 0
 365 021c 2027     		movs	r7, #32
 366 021e A780     		strh	r7, [r4, #4]	@ movhi
 145:../../core/platform/octa/src/gpio.c ****   P1_DIO6.PORT = P1_DIO6_GPIO_Port;
 367              		.loc 1 145 0
 368 0220 264C     		ldr	r4, .L3+40
 369 0222 C4F80080 		str	r8, [r4]
ARM GAS  /tmp/cchI2cEQ.s 			page 10


 146:../../core/platform/octa/src/gpio.c ****   P1_DIO6.PIN = P1_DIO6_Pin;
 370              		.loc 1 146 0
 371 0226 A280     		strh	r2, [r4, #4]	@ movhi
 147:../../core/platform/octa/src/gpio.c **** 
 148:../../core/platform/octa/src/gpio.c ****   P2_DIO1.PORT = P2_DIO1_GPIO_Port;
 372              		.loc 1 148 0
 373 0228 254C     		ldr	r4, .L3+44
 374 022a 2560     		str	r5, [r4]
 149:../../core/platform/octa/src/gpio.c ****   P2_DIO1.PIN =  P2_DIO1_Pin;
 375              		.loc 1 149 0
 376 022c 4FF0040C 		mov	ip, #4
 377 0230 A4F804C0 		strh	ip, [r4, #4]	@ movhi
 150:../../core/platform/octa/src/gpio.c ****   P2_DIO2.PORT = P2_DIO2_GPIO_Port;
 378              		.loc 1 150 0
 379 0234 234C     		ldr	r4, .L3+48
 380 0236 2560     		str	r5, [r4]
 151:../../core/platform/octa/src/gpio.c ****   P2_DIO2.PIN = P2_DIO2_Pin;
 381              		.loc 1 151 0
 382 0238 4FF0100C 		mov	ip, #16
 383 023c A4F804C0 		strh	ip, [r4, #4]	@ movhi
 152:../../core/platform/octa/src/gpio.c ****   P2_DIO3.PORT = P2_DIO3_GPIO_Port;
 384              		.loc 1 152 0
 385 0240 214C     		ldr	r4, .L3+52
 386 0242 2560     		str	r5, [r4]
 153:../../core/platform/octa/src/gpio.c ****   P2_DIO3.PIN = P2_DIO3_Pin;
 387              		.loc 1 153 0
 388 0244 4FF0400C 		mov	ip, #64
 389 0248 A4F804C0 		strh	ip, [r4, #4]	@ movhi
 154:../../core/platform/octa/src/gpio.c ****   P2_DIO4.PORT = P2_DIO4_GPIO_Port;
 390              		.loc 1 154 0
 391 024c 1F4C     		ldr	r4, .L3+56
 392 024e 2560     		str	r5, [r4]
 155:../../core/platform/octa/src/gpio.c ****   P2_DIO4.PIN = P2_DIO4_Pin;
 393              		.loc 1 155 0
 394 0250 A780     		strh	r7, [r4, #4]	@ movhi
 156:../../core/platform/octa/src/gpio.c ****   P2_DIO5.PORT = P2_DIO5_GPIO_Port;
 395              		.loc 1 156 0
 396 0252 1F4C     		ldr	r4, .L3+60
 397 0254 2660     		str	r6, [r4]
 157:../../core/platform/octa/src/gpio.c ****   P2_DIO5.PIN = P2_DIO5_Pin;
 398              		.loc 1 157 0
 399 0256 A380     		strh	r3, [r4, #4]	@ movhi
 158:../../core/platform/octa/src/gpio.c ****   P2_DIO6.PORT = P2_DIO6_GPIO_Port;
 400              		.loc 1 158 0
 401 0258 1E4C     		ldr	r4, .L3+64
 402 025a 2560     		str	r5, [r4]
 159:../../core/platform/octa/src/gpio.c ****   P2_DIO6.PIN = P2_DIO6_Pin;
 403              		.loc 1 159 0
 404 025c A280     		strh	r2, [r4, #4]	@ movhi
 160:../../core/platform/octa/src/gpio.c **** 
 161:../../core/platform/octa/src/gpio.c ****   P3_DIO1.PORT = P3_DIO1_GPIO_Port;
 405              		.loc 1 161 0
 406 025e 1E4A     		ldr	r2, .L3+68
 407 0260 1560     		str	r5, [r2]
 162:../../core/platform/octa/src/gpio.c ****   P3_DIO1.PIN =  P3_DIO1_Pin;
 408              		.loc 1 162 0
 409 0262 9080     		strh	r0, [r2, #4]	@ movhi
ARM GAS  /tmp/cchI2cEQ.s 			page 11


 163:../../core/platform/octa/src/gpio.c ****   P3_DIO2.PORT = P3_DIO2_GPIO_Port;
 410              		.loc 1 163 0
 411 0264 1D4A     		ldr	r2, .L3+72
 412 0266 1560     		str	r5, [r2]
 164:../../core/platform/octa/src/gpio.c ****   P3_DIO2.PIN = P3_DIO2_Pin;
 413              		.loc 1 164 0
 414 0268 4FF48060 		mov	r0, #1024
 415 026c 9080     		strh	r0, [r2, #4]	@ movhi
 165:../../core/platform/octa/src/gpio.c ****   P3_DIO3.PORT = P3_DIO3_GPIO_Port;
 416              		.loc 1 165 0
 417 026e 1C4A     		ldr	r2, .L3+76
 418 0270 1660     		str	r6, [r2]
 166:../../core/platform/octa/src/gpio.c ****   P3_DIO3.PIN = P3_DIO3_Pin;
 419              		.loc 1 166 0
 420 0272 4FF48040 		mov	r0, #16384
 421 0276 9080     		strh	r0, [r2, #4]	@ movhi
 167:../../core/platform/octa/src/gpio.c ****   P3_DIO4.PORT = P3_DIO4_GPIO_Port;
 422              		.loc 1 167 0
 423 0278 1A4A     		ldr	r2, .L3+80
 424 027a 1560     		str	r5, [r2]
 168:../../core/platform/octa/src/gpio.c ****   P3_DIO4.PIN = P3_DIO4_Pin;
 425              		.loc 1 168 0
 426 027c 9380     		strh	r3, [r2, #4]	@ movhi
 169:../../core/platform/octa/src/gpio.c ****   P3_DIO5.PORT = P3_DIO5_GPIO_Port;
 427              		.loc 1 169 0
 428 027e 1A4B     		ldr	r3, .L3+84
 429 0280 1D60     		str	r5, [r3]
 170:../../core/platform/octa/src/gpio.c ****   P3_DIO5.PIN = P3_DIO5_Pin;
 430              		.loc 1 170 0
 431 0282 9980     		strh	r1, [r3, #4]	@ movhi
 171:../../core/platform/octa/src/gpio.c ****   P3_DIO6.PORT = P3_DIO6_GPIO_Port;
 432              		.loc 1 171 0
 433 0284 194B     		ldr	r3, .L3+88
 434 0286 C3F80090 		str	r9, [r3]
 172:../../core/platform/octa/src/gpio.c ****   P3_DIO6.PIN = P3_DIO6_Pin;
 435              		.loc 1 172 0
 436 028a 0222     		movs	r2, #2
 437 028c 9A80     		strh	r2, [r3, #4]	@ movhi
 173:../../core/platform/octa/src/gpio.c **** 
 174:../../core/platform/octa/src/gpio.c **** }...
 438              		.loc 1 174 0
 439 028e 0DB0     		add	sp, sp, #52
 440              	.LCFI2:
 441              		.cfi_def_cfa_offset 36
 442              		@ sp needed
 443 0290 BDE8F08F 		pop	{r4, r5, r6, r7, r8, r9, r10, fp, pc}
 444              	.L4:
 445              		.align	2
 446              	.L3:
 447 0294 00100240 		.word	1073876992
 448 0298 00100048 		.word	1207963648
 449 029c 00140048 		.word	1207964672
 450 02a0 00001110 		.word	269549568
 451 02a4 00180048 		.word	1207965696
 452 02a8 00000000 		.word	P1_DIO1
 453 02ac 00000000 		.word	P1_DIO2
 454 02b0 00000000 		.word	P1_DIO3
ARM GAS  /tmp/cchI2cEQ.s 			page 12


 455 02b4 00000000 		.word	P1_DIO4
 456 02b8 00000000 		.word	P1_DIO5
 457 02bc 00000000 		.word	P1_DIO6
 458 02c0 00000000 		.word	P2_DIO1
 459 02c4 00000000 		.word	P2_DIO2
 460 02c8 00000000 		.word	P2_DIO3
 461 02cc 00000000 		.word	P2_DIO4
 462 02d0 00000000 		.word	P2_DIO5
 463 02d4 00000000 		.word	P2_DIO6
 464 02d8 00000000 		.word	P3_DIO1
 465 02dc 00000000 		.word	P3_DIO2
 466 02e0 00000000 		.word	P3_DIO3
 467 02e4 00000000 		.word	P3_DIO4
 468 02e8 00000000 		.word	P3_DIO5
 469 02ec 00000000 		.word	P3_DIO6
 470 02f0 00080048 		.word	1207961600
 471 02f4 00040048 		.word	1207960576
 472 02f8 000C0048 		.word	1207962624
 473              		.cfi_endproc
 474              	.LFE123:
 476              		.comm	P3_DIO6,8,4
 477              		.comm	P3_DIO5,8,4
 478              		.comm	P3_DIO4,8,4
 479              		.comm	P3_DIO3,8,4
 480              		.comm	P3_DIO2,8,4
 481              		.comm	P3_DIO1,8,4
 482              		.comm	P2_DIO6,8,4
 483              		.comm	P2_DIO5,8,4
 484              		.comm	P2_DIO4,8,4
 485              		.comm	P2_DIO3,8,4
 486              		.comm	P2_DIO2,8,4
 487              		.comm	P2_DIO1,8,4
 488              		.comm	P1_DIO6,8,4
 489              		.comm	P1_DIO5,8,4
 490              		.comm	P1_DIO4,8,4
 491              		.comm	P1_DIO3,8,4
 492              		.comm	P1_DIO2,8,4
 493              		.comm	P1_DIO1,8,4
 494              		.text
 495              	.Letext0:
 496              		.file 2 "/home/mats/gcc-arm-none-eabi-7-2018-q2-update/arm-none-eabi/include/machine/_default_type
 497              		.file 3 "/home/mats/gcc-arm-none-eabi-7-2018-q2-update/arm-none-eabi/include/sys/_stdint.h"
 498              		.file 4 "../../core/ST/CMSIS/Include/core_cm4.h"
 499              		.file 5 "../../core/ST/CMSIS/Device/ST/STM32L4xx/Include/system_stm32l4xx.h"
 500              		.file 6 "../../core/ST/CMSIS/Device/ST/STM32L4xx/Include/stm32l496xx.h"
 501              		.file 7 "../../core/ST/STM32L4xx_HAL_Driver/Inc/stm32l4xx_hal_gpio.h"
 502              		.file 8 "../../core/ST/STM32L4xx_HAL_Driver/Inc/stm32l4xx_hal.h"
 503              		.file 9 "../../core/platform/octa/inc/gpio.h"
 504              		.file 10 "../../core/ST/STM32L4xx_HAL_Driver/Inc/stm32l4xx_hal_pwr_ex.h"
ARM GAS  /tmp/cchI2cEQ.s 			page 13

