ARM GAS  /tmp/ccJOP78g.s 			page 1


   1              		.cpu cortex-m4
   2              		.eabi_attribute 27, 1
   3              		.eabi_attribute 28, 1
   4              		.eabi_attribute 20, 1
   5              		.eabi_attribute 21, 1
   6              		.eabi_attribute 23, 3
   7              		.eabi_attribute 24, 1
   8              		.eabi_attribute 25, 1
   9              		.eabi_attribute 26, 1
  10              		.eabi_attribute 30, 1
  11              		.eabi_attribute 34, 1
  12              		.eabi_attribute 18, 4
  13              		.file	"heap_4.c"
  14              		.text
  15              	.Ltext0:
  16              		.cfi_sections	.debug_frame
  17              		.section	.text.prvHeapInit,"ax",%progbits
  18              		.align	1
  19              		.syntax unified
  20              		.thumb
  21              		.thumb_func
  22              		.fpu fpv4-sp-d16
  24              	prvHeapInit:
  25              	.LFB10:
  26              		.file 1 "../../core/ST/Middlewares/Third_Party/FreeRTOS/Source/portable/MemMang/heap_4.c"
   1:../../core/ST/Middlewares/Third_Party/FreeRTOS/Source/portable/MemMang/heap_4.c **** /*
   2:../../core/ST/Middlewares/Third_Party/FreeRTOS/Source/portable/MemMang/heap_4.c ****  * FreeRTOS Kernel V10.0.1
   3:../../core/ST/Middlewares/Third_Party/FreeRTOS/Source/portable/MemMang/heap_4.c ****  * Copyright (C) 2017 Amazon.com, Inc. or its affiliates.  All Rights Reserved.
   4:../../core/ST/Middlewares/Third_Party/FreeRTOS/Source/portable/MemMang/heap_4.c ****  *
   5:../../core/ST/Middlewares/Third_Party/FreeRTOS/Source/portable/MemMang/heap_4.c ****  * Permission is hereby granted, free of charge, to any person obtaining a copy of
   6:../../core/ST/Middlewares/Third_Party/FreeRTOS/Source/portable/MemMang/heap_4.c ****  * this software and associated documentation files (the "Software"), to deal in
   7:../../core/ST/Middlewares/Third_Party/FreeRTOS/Source/portable/MemMang/heap_4.c ****  * the Software without restriction, including without limitation the rights to
   8:../../core/ST/Middlewares/Third_Party/FreeRTOS/Source/portable/MemMang/heap_4.c ****  * use, copy, modify, merge, publish, distribute, sublicense, and/or sell copies of
   9:../../core/ST/Middlewares/Third_Party/FreeRTOS/Source/portable/MemMang/heap_4.c ****  * the Software, and to permit persons to whom the Software is furnished to do so,
  10:../../core/ST/Middlewares/Third_Party/FreeRTOS/Source/portable/MemMang/heap_4.c ****  * subject to the following conditions:
  11:../../core/ST/Middlewares/Third_Party/FreeRTOS/Source/portable/MemMang/heap_4.c ****  *
  12:../../core/ST/Middlewares/Third_Party/FreeRTOS/Source/portable/MemMang/heap_4.c ****  * The above copyright notice and this permission notice shall be included in all
  13:../../core/ST/Middlewares/Third_Party/FreeRTOS/Source/portable/MemMang/heap_4.c ****  * copies or substantial portions of the Software.
  14:../../core/ST/Middlewares/Third_Party/FreeRTOS/Source/portable/MemMang/heap_4.c ****  *
  15:../../core/ST/Middlewares/Third_Party/FreeRTOS/Source/portable/MemMang/heap_4.c ****  * THE SOFTWARE IS PROVIDED "AS IS", WITHOUT WARRANTY OF ANY KIND, EXPRESS OR
  16:../../core/ST/Middlewares/Third_Party/FreeRTOS/Source/portable/MemMang/heap_4.c ****  * IMPLIED, INCLUDING BUT NOT LIMITED TO THE WARRANTIES OF MERCHANTABILITY, FITNESS
  17:../../core/ST/Middlewares/Third_Party/FreeRTOS/Source/portable/MemMang/heap_4.c ****  * FOR A PARTICULAR PURPOSE AND NONINFRINGEMENT. IN NO EVENT SHALL THE AUTHORS OR
  18:../../core/ST/Middlewares/Third_Party/FreeRTOS/Source/portable/MemMang/heap_4.c ****  * COPYRIGHT HOLDERS BE LIABLE FOR ANY CLAIM, DAMAGES OR OTHER LIABILITY, WHETHER
  19:../../core/ST/Middlewares/Third_Party/FreeRTOS/Source/portable/MemMang/heap_4.c ****  * IN AN ACTION OF CONTRACT, TORT OR OTHERWISE, ARISING FROM, OUT OF OR IN
  20:../../core/ST/Middlewares/Third_Party/FreeRTOS/Source/portable/MemMang/heap_4.c ****  * CONNECTION WITH THE SOFTWARE OR THE USE OR OTHER DEALINGS IN THE SOFTWARE.
  21:../../core/ST/Middlewares/Third_Party/FreeRTOS/Source/portable/MemMang/heap_4.c ****  *
  22:../../core/ST/Middlewares/Third_Party/FreeRTOS/Source/portable/MemMang/heap_4.c ****  * http://www.FreeRTOS.org
  23:../../core/ST/Middlewares/Third_Party/FreeRTOS/Source/portable/MemMang/heap_4.c ****  * http://aws.amazon.com/freertos
  24:../../core/ST/Middlewares/Third_Party/FreeRTOS/Source/portable/MemMang/heap_4.c ****  *
  25:../../core/ST/Middlewares/Third_Party/FreeRTOS/Source/portable/MemMang/heap_4.c ****  * 1 tab == 4 spaces!
  26:../../core/ST/Middlewares/Third_Party/FreeRTOS/Source/portable/MemMang/heap_4.c ****  */
  27:../../core/ST/Middlewares/Third_Party/FreeRTOS/Source/portable/MemMang/heap_4.c **** 
  28:../../core/ST/Middlewares/Third_Party/FreeRTOS/Source/portable/MemMang/heap_4.c **** /*
  29:../../core/ST/Middlewares/Third_Party/FreeRTOS/Source/portable/MemMang/heap_4.c ****  * A sample implementation of pvPortMalloc() and vPortFree() that combines
  30:../../core/ST/Middlewares/Third_Party/FreeRTOS/Source/portable/MemMang/heap_4.c ****  * (coalescences) adjacent memory blocks as they are freed, and in so doing
  31:../../core/ST/Middlewares/Third_Party/FreeRTOS/Source/portable/MemMang/heap_4.c ****  * limits memory fragmentation.
  32:../../core/ST/Middlewares/Third_Party/FreeRTOS/Source/portable/MemMang/heap_4.c ****  *
ARM GAS  /tmp/ccJOP78g.s 			page 2


  33:../../core/ST/Middlewares/Third_Party/FreeRTOS/Source/portable/MemMang/heap_4.c ****  * See heap_1.c, heap_2.c and heap_3.c for alternative implementations, and the
  34:../../core/ST/Middlewares/Third_Party/FreeRTOS/Source/portable/MemMang/heap_4.c ****  * memory management pages of http://www.FreeRTOS.org for more information.
  35:../../core/ST/Middlewares/Third_Party/FreeRTOS/Source/portable/MemMang/heap_4.c ****  */
  36:../../core/ST/Middlewares/Third_Party/FreeRTOS/Source/portable/MemMang/heap_4.c **** #include <stdlib.h>
  37:../../core/ST/Middlewares/Third_Party/FreeRTOS/Source/portable/MemMang/heap_4.c **** 
  38:../../core/ST/Middlewares/Third_Party/FreeRTOS/Source/portable/MemMang/heap_4.c **** /* Defining MPU_WRAPPERS_INCLUDED_FROM_API_FILE prevents task.h from redefining
  39:../../core/ST/Middlewares/Third_Party/FreeRTOS/Source/portable/MemMang/heap_4.c **** all the API functions to use the MPU wrappers.  That should only be done when
  40:../../core/ST/Middlewares/Third_Party/FreeRTOS/Source/portable/MemMang/heap_4.c **** task.h is included from an application file. */
  41:../../core/ST/Middlewares/Third_Party/FreeRTOS/Source/portable/MemMang/heap_4.c **** #define MPU_WRAPPERS_INCLUDED_FROM_API_FILE
  42:../../core/ST/Middlewares/Third_Party/FreeRTOS/Source/portable/MemMang/heap_4.c **** 
  43:../../core/ST/Middlewares/Third_Party/FreeRTOS/Source/portable/MemMang/heap_4.c **** #include "FreeRTOS.h"
  44:../../core/ST/Middlewares/Third_Party/FreeRTOS/Source/portable/MemMang/heap_4.c **** #include "task.h"
  45:../../core/ST/Middlewares/Third_Party/FreeRTOS/Source/portable/MemMang/heap_4.c **** 
  46:../../core/ST/Middlewares/Third_Party/FreeRTOS/Source/portable/MemMang/heap_4.c **** #undef MPU_WRAPPERS_INCLUDED_FROM_API_FILE
  47:../../core/ST/Middlewares/Third_Party/FreeRTOS/Source/portable/MemMang/heap_4.c **** 
  48:../../core/ST/Middlewares/Third_Party/FreeRTOS/Source/portable/MemMang/heap_4.c **** #if( configSUPPORT_DYNAMIC_ALLOCATION == 0 )
  49:../../core/ST/Middlewares/Third_Party/FreeRTOS/Source/portable/MemMang/heap_4.c **** 	#error This file must not be used if configSUPPORT_DYNAMIC_ALLOCATION is 0
  50:../../core/ST/Middlewares/Third_Party/FreeRTOS/Source/portable/MemMang/heap_4.c **** #endif
  51:../../core/ST/Middlewares/Third_Party/FreeRTOS/Source/portable/MemMang/heap_4.c **** 
  52:../../core/ST/Middlewares/Third_Party/FreeRTOS/Source/portable/MemMang/heap_4.c **** /* Block sizes must not get too small. */
  53:../../core/ST/Middlewares/Third_Party/FreeRTOS/Source/portable/MemMang/heap_4.c **** #define heapMINIMUM_BLOCK_SIZE	( ( size_t ) ( xHeapStructSize << 1 ) )
  54:../../core/ST/Middlewares/Third_Party/FreeRTOS/Source/portable/MemMang/heap_4.c **** 
  55:../../core/ST/Middlewares/Third_Party/FreeRTOS/Source/portable/MemMang/heap_4.c **** /* Assumes 8bit bytes! */
  56:../../core/ST/Middlewares/Third_Party/FreeRTOS/Source/portable/MemMang/heap_4.c **** #define heapBITS_PER_BYTE		( ( size_t ) 8 )
  57:../../core/ST/Middlewares/Third_Party/FreeRTOS/Source/portable/MemMang/heap_4.c **** 
  58:../../core/ST/Middlewares/Third_Party/FreeRTOS/Source/portable/MemMang/heap_4.c **** /* Allocate the memory for the heap. */
  59:../../core/ST/Middlewares/Third_Party/FreeRTOS/Source/portable/MemMang/heap_4.c **** #if( configAPPLICATION_ALLOCATED_HEAP == 1 )
  60:../../core/ST/Middlewares/Third_Party/FreeRTOS/Source/portable/MemMang/heap_4.c **** 	/* The application writer has already defined the array used for the RTOS
  61:../../core/ST/Middlewares/Third_Party/FreeRTOS/Source/portable/MemMang/heap_4.c **** 	heap - probably so it can be placed in a special segment or address. */
  62:../../core/ST/Middlewares/Third_Party/FreeRTOS/Source/portable/MemMang/heap_4.c **** 	extern uint8_t ucHeap[ configTOTAL_HEAP_SIZE ];
  63:../../core/ST/Middlewares/Third_Party/FreeRTOS/Source/portable/MemMang/heap_4.c **** #else
  64:../../core/ST/Middlewares/Third_Party/FreeRTOS/Source/portable/MemMang/heap_4.c **** 	static uint8_t ucHeap[ configTOTAL_HEAP_SIZE ];
  65:../../core/ST/Middlewares/Third_Party/FreeRTOS/Source/portable/MemMang/heap_4.c **** #endif /* configAPPLICATION_ALLOCATED_HEAP */
  66:../../core/ST/Middlewares/Third_Party/FreeRTOS/Source/portable/MemMang/heap_4.c **** 
  67:../../core/ST/Middlewares/Third_Party/FreeRTOS/Source/portable/MemMang/heap_4.c **** /* Define the linked list structure.  This is used to link free blocks in order
  68:../../core/ST/Middlewares/Third_Party/FreeRTOS/Source/portable/MemMang/heap_4.c **** of their memory address. */
  69:../../core/ST/Middlewares/Third_Party/FreeRTOS/Source/portable/MemMang/heap_4.c **** typedef struct A_BLOCK_LINK
  70:../../core/ST/Middlewares/Third_Party/FreeRTOS/Source/portable/MemMang/heap_4.c **** {
  71:../../core/ST/Middlewares/Third_Party/FreeRTOS/Source/portable/MemMang/heap_4.c **** 	struct A_BLOCK_LINK *pxNextFreeBlock;	/*<< The next free block in the list. */
  72:../../core/ST/Middlewares/Third_Party/FreeRTOS/Source/portable/MemMang/heap_4.c **** 	size_t xBlockSize;						/*<< The size of the free block. */
  73:../../core/ST/Middlewares/Third_Party/FreeRTOS/Source/portable/MemMang/heap_4.c **** } BlockLink_t;
  74:../../core/ST/Middlewares/Third_Party/FreeRTOS/Source/portable/MemMang/heap_4.c **** 
  75:../../core/ST/Middlewares/Third_Party/FreeRTOS/Source/portable/MemMang/heap_4.c **** /*-----------------------------------------------------------*/
  76:../../core/ST/Middlewares/Third_Party/FreeRTOS/Source/portable/MemMang/heap_4.c **** 
  77:../../core/ST/Middlewares/Third_Party/FreeRTOS/Source/portable/MemMang/heap_4.c **** /*
  78:../../core/ST/Middlewares/Third_Party/FreeRTOS/Source/portable/MemMang/heap_4.c ****  * Inserts a block of memory that is being freed into the correct position in
  79:../../core/ST/Middlewares/Third_Party/FreeRTOS/Source/portable/MemMang/heap_4.c ****  * the list of free memory blocks.  The block being freed will be merged with
  80:../../core/ST/Middlewares/Third_Party/FreeRTOS/Source/portable/MemMang/heap_4.c ****  * the block in front it and/or the block behind it if the memory blocks are
  81:../../core/ST/Middlewares/Third_Party/FreeRTOS/Source/portable/MemMang/heap_4.c ****  * adjacent to each other.
  82:../../core/ST/Middlewares/Third_Party/FreeRTOS/Source/portable/MemMang/heap_4.c ****  */
  83:../../core/ST/Middlewares/Third_Party/FreeRTOS/Source/portable/MemMang/heap_4.c **** static void prvInsertBlockIntoFreeList( BlockLink_t *pxBlockToInsert );
  84:../../core/ST/Middlewares/Third_Party/FreeRTOS/Source/portable/MemMang/heap_4.c **** 
  85:../../core/ST/Middlewares/Third_Party/FreeRTOS/Source/portable/MemMang/heap_4.c **** /*
  86:../../core/ST/Middlewares/Third_Party/FreeRTOS/Source/portable/MemMang/heap_4.c ****  * Called automatically to setup the required heap structures the first time
  87:../../core/ST/Middlewares/Third_Party/FreeRTOS/Source/portable/MemMang/heap_4.c ****  * pvPortMalloc() is called.
  88:../../core/ST/Middlewares/Third_Party/FreeRTOS/Source/portable/MemMang/heap_4.c ****  */
  89:../../core/ST/Middlewares/Third_Party/FreeRTOS/Source/portable/MemMang/heap_4.c **** static void prvHeapInit( void );
ARM GAS  /tmp/ccJOP78g.s 			page 3


  90:../../core/ST/Middlewares/Third_Party/FreeRTOS/Source/portable/MemMang/heap_4.c **** 
  91:../../core/ST/Middlewares/Third_Party/FreeRTOS/Source/portable/MemMang/heap_4.c **** /*-----------------------------------------------------------*/
  92:../../core/ST/Middlewares/Third_Party/FreeRTOS/Source/portable/MemMang/heap_4.c **** 
  93:../../core/ST/Middlewares/Third_Party/FreeRTOS/Source/portable/MemMang/heap_4.c **** /* The size of the structure placed at the beginning of each allocated memory
  94:../../core/ST/Middlewares/Third_Party/FreeRTOS/Source/portable/MemMang/heap_4.c **** block must by correctly byte aligned. */
  95:../../core/ST/Middlewares/Third_Party/FreeRTOS/Source/portable/MemMang/heap_4.c **** static const size_t xHeapStructSize	= ( sizeof( BlockLink_t ) + ( ( size_t ) ( portBYTE_ALIGNMENT -
  96:../../core/ST/Middlewares/Third_Party/FreeRTOS/Source/portable/MemMang/heap_4.c **** 
  97:../../core/ST/Middlewares/Third_Party/FreeRTOS/Source/portable/MemMang/heap_4.c **** /* Create a couple of list links to mark the start and end of the list. */
  98:../../core/ST/Middlewares/Third_Party/FreeRTOS/Source/portable/MemMang/heap_4.c **** static BlockLink_t xStart, *pxEnd = NULL;
  99:../../core/ST/Middlewares/Third_Party/FreeRTOS/Source/portable/MemMang/heap_4.c **** 
 100:../../core/ST/Middlewares/Third_Party/FreeRTOS/Source/portable/MemMang/heap_4.c **** /* Keeps track of the number of free bytes remaining, but says nothing about
 101:../../core/ST/Middlewares/Third_Party/FreeRTOS/Source/portable/MemMang/heap_4.c **** fragmentation. */
 102:../../core/ST/Middlewares/Third_Party/FreeRTOS/Source/portable/MemMang/heap_4.c **** static size_t xFreeBytesRemaining = 0U;
 103:../../core/ST/Middlewares/Third_Party/FreeRTOS/Source/portable/MemMang/heap_4.c **** static size_t xMinimumEverFreeBytesRemaining = 0U;
 104:../../core/ST/Middlewares/Third_Party/FreeRTOS/Source/portable/MemMang/heap_4.c **** 
 105:../../core/ST/Middlewares/Third_Party/FreeRTOS/Source/portable/MemMang/heap_4.c **** /* Gets set to the top bit of an size_t type.  When this bit in the xBlockSize
 106:../../core/ST/Middlewares/Third_Party/FreeRTOS/Source/portable/MemMang/heap_4.c **** member of an BlockLink_t structure is set then the block belongs to the
 107:../../core/ST/Middlewares/Third_Party/FreeRTOS/Source/portable/MemMang/heap_4.c **** application.  When the bit is free the block is still part of the free heap
 108:../../core/ST/Middlewares/Third_Party/FreeRTOS/Source/portable/MemMang/heap_4.c **** space. */
 109:../../core/ST/Middlewares/Third_Party/FreeRTOS/Source/portable/MemMang/heap_4.c **** static size_t xBlockAllocatedBit = 0;
 110:../../core/ST/Middlewares/Third_Party/FreeRTOS/Source/portable/MemMang/heap_4.c **** 
 111:../../core/ST/Middlewares/Third_Party/FreeRTOS/Source/portable/MemMang/heap_4.c **** /*-----------------------------------------------------------*/
 112:../../core/ST/Middlewares/Third_Party/FreeRTOS/Source/portable/MemMang/heap_4.c **** 
 113:../../core/ST/Middlewares/Third_Party/FreeRTOS/Source/portable/MemMang/heap_4.c **** void *pvPortMalloc( size_t xWantedSize )
 114:../../core/ST/Middlewares/Third_Party/FreeRTOS/Source/portable/MemMang/heap_4.c **** {
 115:../../core/ST/Middlewares/Third_Party/FreeRTOS/Source/portable/MemMang/heap_4.c **** BlockLink_t *pxBlock, *pxPreviousBlock, *pxNewBlockLink;
 116:../../core/ST/Middlewares/Third_Party/FreeRTOS/Source/portable/MemMang/heap_4.c **** void *pvReturn = NULL;
 117:../../core/ST/Middlewares/Third_Party/FreeRTOS/Source/portable/MemMang/heap_4.c **** 
 118:../../core/ST/Middlewares/Third_Party/FreeRTOS/Source/portable/MemMang/heap_4.c **** 	vTaskSuspendAll();
 119:../../core/ST/Middlewares/Third_Party/FreeRTOS/Source/portable/MemMang/heap_4.c **** 	{
 120:../../core/ST/Middlewares/Third_Party/FreeRTOS/Source/portable/MemMang/heap_4.c **** 		/* If this is the first call to malloc then the heap will require
 121:../../core/ST/Middlewares/Third_Party/FreeRTOS/Source/portable/MemMang/heap_4.c **** 		initialisation to setup the list of free blocks. */
 122:../../core/ST/Middlewares/Third_Party/FreeRTOS/Source/portable/MemMang/heap_4.c **** 		if( pxEnd == NULL )
 123:../../core/ST/Middlewares/Third_Party/FreeRTOS/Source/portable/MemMang/heap_4.c **** 		{
 124:../../core/ST/Middlewares/Third_Party/FreeRTOS/Source/portable/MemMang/heap_4.c **** 			prvHeapInit();
 125:../../core/ST/Middlewares/Third_Party/FreeRTOS/Source/portable/MemMang/heap_4.c **** 		}
 126:../../core/ST/Middlewares/Third_Party/FreeRTOS/Source/portable/MemMang/heap_4.c **** 		else
 127:../../core/ST/Middlewares/Third_Party/FreeRTOS/Source/portable/MemMang/heap_4.c **** 		{
 128:../../core/ST/Middlewares/Third_Party/FreeRTOS/Source/portable/MemMang/heap_4.c **** 			mtCOVERAGE_TEST_MARKER();
 129:../../core/ST/Middlewares/Third_Party/FreeRTOS/Source/portable/MemMang/heap_4.c **** 		}
 130:../../core/ST/Middlewares/Third_Party/FreeRTOS/Source/portable/MemMang/heap_4.c **** 
 131:../../core/ST/Middlewares/Third_Party/FreeRTOS/Source/portable/MemMang/heap_4.c **** 		/* Check the requested block size is not so large that the top bit is
 132:../../core/ST/Middlewares/Third_Party/FreeRTOS/Source/portable/MemMang/heap_4.c **** 		set.  The top bit of the block size member of the BlockLink_t structure
 133:../../core/ST/Middlewares/Third_Party/FreeRTOS/Source/portable/MemMang/heap_4.c **** 		is used to determine who owns the block - the application or the
 134:../../core/ST/Middlewares/Third_Party/FreeRTOS/Source/portable/MemMang/heap_4.c **** 		kernel, so it must be free. */
 135:../../core/ST/Middlewares/Third_Party/FreeRTOS/Source/portable/MemMang/heap_4.c **** 		if( ( xWantedSize & xBlockAllocatedBit ) == 0 )
 136:../../core/ST/Middlewares/Third_Party/FreeRTOS/Source/portable/MemMang/heap_4.c **** 		{
 137:../../core/ST/Middlewares/Third_Party/FreeRTOS/Source/portable/MemMang/heap_4.c **** 			/* The wanted size is increased so it can contain a BlockLink_t
 138:../../core/ST/Middlewares/Third_Party/FreeRTOS/Source/portable/MemMang/heap_4.c **** 			structure in addition to the requested amount of bytes. */
 139:../../core/ST/Middlewares/Third_Party/FreeRTOS/Source/portable/MemMang/heap_4.c **** 			if( xWantedSize > 0 )
 140:../../core/ST/Middlewares/Third_Party/FreeRTOS/Source/portable/MemMang/heap_4.c **** 			{
 141:../../core/ST/Middlewares/Third_Party/FreeRTOS/Source/portable/MemMang/heap_4.c **** 				xWantedSize += xHeapStructSize;
 142:../../core/ST/Middlewares/Third_Party/FreeRTOS/Source/portable/MemMang/heap_4.c **** 
 143:../../core/ST/Middlewares/Third_Party/FreeRTOS/Source/portable/MemMang/heap_4.c **** 				/* Ensure that blocks are always aligned to the required number
 144:../../core/ST/Middlewares/Third_Party/FreeRTOS/Source/portable/MemMang/heap_4.c **** 				of bytes. */
 145:../../core/ST/Middlewares/Third_Party/FreeRTOS/Source/portable/MemMang/heap_4.c **** 				if( ( xWantedSize & portBYTE_ALIGNMENT_MASK ) != 0x00 )
 146:../../core/ST/Middlewares/Third_Party/FreeRTOS/Source/portable/MemMang/heap_4.c **** 				{
ARM GAS  /tmp/ccJOP78g.s 			page 4


 147:../../core/ST/Middlewares/Third_Party/FreeRTOS/Source/portable/MemMang/heap_4.c **** 					/* Byte alignment required. */
 148:../../core/ST/Middlewares/Third_Party/FreeRTOS/Source/portable/MemMang/heap_4.c **** 					xWantedSize += ( portBYTE_ALIGNMENT - ( xWantedSize & portBYTE_ALIGNMENT_MASK ) );
 149:../../core/ST/Middlewares/Third_Party/FreeRTOS/Source/portable/MemMang/heap_4.c **** 					configASSERT( ( xWantedSize & portBYTE_ALIGNMENT_MASK ) == 0 );
 150:../../core/ST/Middlewares/Third_Party/FreeRTOS/Source/portable/MemMang/heap_4.c **** 				}
 151:../../core/ST/Middlewares/Third_Party/FreeRTOS/Source/portable/MemMang/heap_4.c **** 				else
 152:../../core/ST/Middlewares/Third_Party/FreeRTOS/Source/portable/MemMang/heap_4.c **** 				{
 153:../../core/ST/Middlewares/Third_Party/FreeRTOS/Source/portable/MemMang/heap_4.c **** 					mtCOVERAGE_TEST_MARKER();
 154:../../core/ST/Middlewares/Third_Party/FreeRTOS/Source/portable/MemMang/heap_4.c **** 				}
 155:../../core/ST/Middlewares/Third_Party/FreeRTOS/Source/portable/MemMang/heap_4.c **** 			}
 156:../../core/ST/Middlewares/Third_Party/FreeRTOS/Source/portable/MemMang/heap_4.c **** 			else
 157:../../core/ST/Middlewares/Third_Party/FreeRTOS/Source/portable/MemMang/heap_4.c **** 			{
 158:../../core/ST/Middlewares/Third_Party/FreeRTOS/Source/portable/MemMang/heap_4.c **** 				mtCOVERAGE_TEST_MARKER();
 159:../../core/ST/Middlewares/Third_Party/FreeRTOS/Source/portable/MemMang/heap_4.c **** 			}
 160:../../core/ST/Middlewares/Third_Party/FreeRTOS/Source/portable/MemMang/heap_4.c **** 
 161:../../core/ST/Middlewares/Third_Party/FreeRTOS/Source/portable/MemMang/heap_4.c **** 			if( ( xWantedSize > 0 ) && ( xWantedSize <= xFreeBytesRemaining ) )
 162:../../core/ST/Middlewares/Third_Party/FreeRTOS/Source/portable/MemMang/heap_4.c **** 			{
 163:../../core/ST/Middlewares/Third_Party/FreeRTOS/Source/portable/MemMang/heap_4.c **** 				/* Traverse the list from the start	(lowest address) block until
 164:../../core/ST/Middlewares/Third_Party/FreeRTOS/Source/portable/MemMang/heap_4.c **** 				one	of adequate size is found. */
 165:../../core/ST/Middlewares/Third_Party/FreeRTOS/Source/portable/MemMang/heap_4.c **** 				pxPreviousBlock = &xStart;
 166:../../core/ST/Middlewares/Third_Party/FreeRTOS/Source/portable/MemMang/heap_4.c **** 				pxBlock = xStart.pxNextFreeBlock;
 167:../../core/ST/Middlewares/Third_Party/FreeRTOS/Source/portable/MemMang/heap_4.c **** 				while( ( pxBlock->xBlockSize < xWantedSize ) && ( pxBlock->pxNextFreeBlock != NULL ) )
 168:../../core/ST/Middlewares/Third_Party/FreeRTOS/Source/portable/MemMang/heap_4.c **** 				{
 169:../../core/ST/Middlewares/Third_Party/FreeRTOS/Source/portable/MemMang/heap_4.c **** 					pxPreviousBlock = pxBlock;
 170:../../core/ST/Middlewares/Third_Party/FreeRTOS/Source/portable/MemMang/heap_4.c **** 					pxBlock = pxBlock->pxNextFreeBlock;
 171:../../core/ST/Middlewares/Third_Party/FreeRTOS/Source/portable/MemMang/heap_4.c **** 				}
 172:../../core/ST/Middlewares/Third_Party/FreeRTOS/Source/portable/MemMang/heap_4.c **** 
 173:../../core/ST/Middlewares/Third_Party/FreeRTOS/Source/portable/MemMang/heap_4.c **** 				/* If the end marker was reached then a block of adequate size
 174:../../core/ST/Middlewares/Third_Party/FreeRTOS/Source/portable/MemMang/heap_4.c **** 				was	not found. */
 175:../../core/ST/Middlewares/Third_Party/FreeRTOS/Source/portable/MemMang/heap_4.c **** 				if( pxBlock != pxEnd )
 176:../../core/ST/Middlewares/Third_Party/FreeRTOS/Source/portable/MemMang/heap_4.c **** 				{
 177:../../core/ST/Middlewares/Third_Party/FreeRTOS/Source/portable/MemMang/heap_4.c **** 					/* Return the memory space pointed to - jumping over the
 178:../../core/ST/Middlewares/Third_Party/FreeRTOS/Source/portable/MemMang/heap_4.c **** 					BlockLink_t structure at its start. */
 179:../../core/ST/Middlewares/Third_Party/FreeRTOS/Source/portable/MemMang/heap_4.c **** 					pvReturn = ( void * ) ( ( ( uint8_t * ) pxPreviousBlock->pxNextFreeBlock ) + xHeapStructSize )
 180:../../core/ST/Middlewares/Third_Party/FreeRTOS/Source/portable/MemMang/heap_4.c **** 
 181:../../core/ST/Middlewares/Third_Party/FreeRTOS/Source/portable/MemMang/heap_4.c **** 					/* This block is being returned for use so must be taken out
 182:../../core/ST/Middlewares/Third_Party/FreeRTOS/Source/portable/MemMang/heap_4.c **** 					of the list of free blocks. */
 183:../../core/ST/Middlewares/Third_Party/FreeRTOS/Source/portable/MemMang/heap_4.c **** 					pxPreviousBlock->pxNextFreeBlock = pxBlock->pxNextFreeBlock;
 184:../../core/ST/Middlewares/Third_Party/FreeRTOS/Source/portable/MemMang/heap_4.c **** 
 185:../../core/ST/Middlewares/Third_Party/FreeRTOS/Source/portable/MemMang/heap_4.c **** 					/* If the block is larger than required it can be split into
 186:../../core/ST/Middlewares/Third_Party/FreeRTOS/Source/portable/MemMang/heap_4.c **** 					two. */
 187:../../core/ST/Middlewares/Third_Party/FreeRTOS/Source/portable/MemMang/heap_4.c **** 					if( ( pxBlock->xBlockSize - xWantedSize ) > heapMINIMUM_BLOCK_SIZE )
 188:../../core/ST/Middlewares/Third_Party/FreeRTOS/Source/portable/MemMang/heap_4.c **** 					{
 189:../../core/ST/Middlewares/Third_Party/FreeRTOS/Source/portable/MemMang/heap_4.c **** 						/* This block is to be split into two.  Create a new
 190:../../core/ST/Middlewares/Third_Party/FreeRTOS/Source/portable/MemMang/heap_4.c **** 						block following the number of bytes requested. The void
 191:../../core/ST/Middlewares/Third_Party/FreeRTOS/Source/portable/MemMang/heap_4.c **** 						cast is used to prevent byte alignment warnings from the
 192:../../core/ST/Middlewares/Third_Party/FreeRTOS/Source/portable/MemMang/heap_4.c **** 						compiler. */
 193:../../core/ST/Middlewares/Third_Party/FreeRTOS/Source/portable/MemMang/heap_4.c **** 						pxNewBlockLink = ( void * ) ( ( ( uint8_t * ) pxBlock ) + xWantedSize );
 194:../../core/ST/Middlewares/Third_Party/FreeRTOS/Source/portable/MemMang/heap_4.c **** 						configASSERT( ( ( ( size_t ) pxNewBlockLink ) & portBYTE_ALIGNMENT_MASK ) == 0 );
 195:../../core/ST/Middlewares/Third_Party/FreeRTOS/Source/portable/MemMang/heap_4.c **** 
 196:../../core/ST/Middlewares/Third_Party/FreeRTOS/Source/portable/MemMang/heap_4.c **** 						/* Calculate the sizes of two blocks split from the
 197:../../core/ST/Middlewares/Third_Party/FreeRTOS/Source/portable/MemMang/heap_4.c **** 						single block. */
 198:../../core/ST/Middlewares/Third_Party/FreeRTOS/Source/portable/MemMang/heap_4.c **** 						pxNewBlockLink->xBlockSize = pxBlock->xBlockSize - xWantedSize;
 199:../../core/ST/Middlewares/Third_Party/FreeRTOS/Source/portable/MemMang/heap_4.c **** 						pxBlock->xBlockSize = xWantedSize;
 200:../../core/ST/Middlewares/Third_Party/FreeRTOS/Source/portable/MemMang/heap_4.c **** 
 201:../../core/ST/Middlewares/Third_Party/FreeRTOS/Source/portable/MemMang/heap_4.c **** 						/* Insert the new block into the list of free blocks. */
 202:../../core/ST/Middlewares/Third_Party/FreeRTOS/Source/portable/MemMang/heap_4.c **** 						prvInsertBlockIntoFreeList( pxNewBlockLink );
 203:../../core/ST/Middlewares/Third_Party/FreeRTOS/Source/portable/MemMang/heap_4.c **** 					}
ARM GAS  /tmp/ccJOP78g.s 			page 5


 204:../../core/ST/Middlewares/Third_Party/FreeRTOS/Source/portable/MemMang/heap_4.c **** 					else
 205:../../core/ST/Middlewares/Third_Party/FreeRTOS/Source/portable/MemMang/heap_4.c **** 					{
 206:../../core/ST/Middlewares/Third_Party/FreeRTOS/Source/portable/MemMang/heap_4.c **** 						mtCOVERAGE_TEST_MARKER();
 207:../../core/ST/Middlewares/Third_Party/FreeRTOS/Source/portable/MemMang/heap_4.c **** 					}
 208:../../core/ST/Middlewares/Third_Party/FreeRTOS/Source/portable/MemMang/heap_4.c **** 
 209:../../core/ST/Middlewares/Third_Party/FreeRTOS/Source/portable/MemMang/heap_4.c **** 					xFreeBytesRemaining -= pxBlock->xBlockSize;
 210:../../core/ST/Middlewares/Third_Party/FreeRTOS/Source/portable/MemMang/heap_4.c **** 
 211:../../core/ST/Middlewares/Third_Party/FreeRTOS/Source/portable/MemMang/heap_4.c **** 					if( xFreeBytesRemaining < xMinimumEverFreeBytesRemaining )
 212:../../core/ST/Middlewares/Third_Party/FreeRTOS/Source/portable/MemMang/heap_4.c **** 					{
 213:../../core/ST/Middlewares/Third_Party/FreeRTOS/Source/portable/MemMang/heap_4.c **** 						xMinimumEverFreeBytesRemaining = xFreeBytesRemaining;
 214:../../core/ST/Middlewares/Third_Party/FreeRTOS/Source/portable/MemMang/heap_4.c **** 					}
 215:../../core/ST/Middlewares/Third_Party/FreeRTOS/Source/portable/MemMang/heap_4.c **** 					else
 216:../../core/ST/Middlewares/Third_Party/FreeRTOS/Source/portable/MemMang/heap_4.c **** 					{
 217:../../core/ST/Middlewares/Third_Party/FreeRTOS/Source/portable/MemMang/heap_4.c **** 						mtCOVERAGE_TEST_MARKER();
 218:../../core/ST/Middlewares/Third_Party/FreeRTOS/Source/portable/MemMang/heap_4.c **** 					}
 219:../../core/ST/Middlewares/Third_Party/FreeRTOS/Source/portable/MemMang/heap_4.c **** 
 220:../../core/ST/Middlewares/Third_Party/FreeRTOS/Source/portable/MemMang/heap_4.c **** 					/* The block is being returned - it is allocated and owned
 221:../../core/ST/Middlewares/Third_Party/FreeRTOS/Source/portable/MemMang/heap_4.c **** 					by the application and has no "next" block. */
 222:../../core/ST/Middlewares/Third_Party/FreeRTOS/Source/portable/MemMang/heap_4.c **** 					pxBlock->xBlockSize |= xBlockAllocatedBit;
 223:../../core/ST/Middlewares/Third_Party/FreeRTOS/Source/portable/MemMang/heap_4.c **** 					pxBlock->pxNextFreeBlock = NULL;
 224:../../core/ST/Middlewares/Third_Party/FreeRTOS/Source/portable/MemMang/heap_4.c **** 				}
 225:../../core/ST/Middlewares/Third_Party/FreeRTOS/Source/portable/MemMang/heap_4.c **** 				else
 226:../../core/ST/Middlewares/Third_Party/FreeRTOS/Source/portable/MemMang/heap_4.c **** 				{
 227:../../core/ST/Middlewares/Third_Party/FreeRTOS/Source/portable/MemMang/heap_4.c **** 					mtCOVERAGE_TEST_MARKER();
 228:../../core/ST/Middlewares/Third_Party/FreeRTOS/Source/portable/MemMang/heap_4.c **** 				}
 229:../../core/ST/Middlewares/Third_Party/FreeRTOS/Source/portable/MemMang/heap_4.c **** 			}
 230:../../core/ST/Middlewares/Third_Party/FreeRTOS/Source/portable/MemMang/heap_4.c **** 			else
 231:../../core/ST/Middlewares/Third_Party/FreeRTOS/Source/portable/MemMang/heap_4.c **** 			{
 232:../../core/ST/Middlewares/Third_Party/FreeRTOS/Source/portable/MemMang/heap_4.c **** 				mtCOVERAGE_TEST_MARKER();
 233:../../core/ST/Middlewares/Third_Party/FreeRTOS/Source/portable/MemMang/heap_4.c **** 			}
 234:../../core/ST/Middlewares/Third_Party/FreeRTOS/Source/portable/MemMang/heap_4.c **** 		}
 235:../../core/ST/Middlewares/Third_Party/FreeRTOS/Source/portable/MemMang/heap_4.c **** 		else
 236:../../core/ST/Middlewares/Third_Party/FreeRTOS/Source/portable/MemMang/heap_4.c **** 		{
 237:../../core/ST/Middlewares/Third_Party/FreeRTOS/Source/portable/MemMang/heap_4.c **** 			mtCOVERAGE_TEST_MARKER();
 238:../../core/ST/Middlewares/Third_Party/FreeRTOS/Source/portable/MemMang/heap_4.c **** 		}
 239:../../core/ST/Middlewares/Third_Party/FreeRTOS/Source/portable/MemMang/heap_4.c **** 
 240:../../core/ST/Middlewares/Third_Party/FreeRTOS/Source/portable/MemMang/heap_4.c **** 		traceMALLOC( pvReturn, xWantedSize );
 241:../../core/ST/Middlewares/Third_Party/FreeRTOS/Source/portable/MemMang/heap_4.c **** 	}
 242:../../core/ST/Middlewares/Third_Party/FreeRTOS/Source/portable/MemMang/heap_4.c **** 	( void ) xTaskResumeAll();
 243:../../core/ST/Middlewares/Third_Party/FreeRTOS/Source/portable/MemMang/heap_4.c **** 
 244:../../core/ST/Middlewares/Third_Party/FreeRTOS/Source/portable/MemMang/heap_4.c **** 	#if( configUSE_MALLOC_FAILED_HOOK == 1 )
 245:../../core/ST/Middlewares/Third_Party/FreeRTOS/Source/portable/MemMang/heap_4.c **** 	{
 246:../../core/ST/Middlewares/Third_Party/FreeRTOS/Source/portable/MemMang/heap_4.c **** 		if( pvReturn == NULL )
 247:../../core/ST/Middlewares/Third_Party/FreeRTOS/Source/portable/MemMang/heap_4.c **** 		{
 248:../../core/ST/Middlewares/Third_Party/FreeRTOS/Source/portable/MemMang/heap_4.c **** 			extern void vApplicationMallocFailedHook( void );
 249:../../core/ST/Middlewares/Third_Party/FreeRTOS/Source/portable/MemMang/heap_4.c **** 			vApplicationMallocFailedHook();
 250:../../core/ST/Middlewares/Third_Party/FreeRTOS/Source/portable/MemMang/heap_4.c **** 		}
 251:../../core/ST/Middlewares/Third_Party/FreeRTOS/Source/portable/MemMang/heap_4.c **** 		else
 252:../../core/ST/Middlewares/Third_Party/FreeRTOS/Source/portable/MemMang/heap_4.c **** 		{
 253:../../core/ST/Middlewares/Third_Party/FreeRTOS/Source/portable/MemMang/heap_4.c **** 			mtCOVERAGE_TEST_MARKER();
 254:../../core/ST/Middlewares/Third_Party/FreeRTOS/Source/portable/MemMang/heap_4.c **** 		}
 255:../../core/ST/Middlewares/Third_Party/FreeRTOS/Source/portable/MemMang/heap_4.c **** 	}
 256:../../core/ST/Middlewares/Third_Party/FreeRTOS/Source/portable/MemMang/heap_4.c **** 	#endif
 257:../../core/ST/Middlewares/Third_Party/FreeRTOS/Source/portable/MemMang/heap_4.c **** 
 258:../../core/ST/Middlewares/Third_Party/FreeRTOS/Source/portable/MemMang/heap_4.c **** 	configASSERT( ( ( ( size_t ) pvReturn ) & ( size_t ) portBYTE_ALIGNMENT_MASK ) == 0 );
 259:../../core/ST/Middlewares/Third_Party/FreeRTOS/Source/portable/MemMang/heap_4.c **** 	return pvReturn;
 260:../../core/ST/Middlewares/Third_Party/FreeRTOS/Source/portable/MemMang/heap_4.c **** }
ARM GAS  /tmp/ccJOP78g.s 			page 6


 261:../../core/ST/Middlewares/Third_Party/FreeRTOS/Source/portable/MemMang/heap_4.c **** /*-----------------------------------------------------------*/
 262:../../core/ST/Middlewares/Third_Party/FreeRTOS/Source/portable/MemMang/heap_4.c **** 
 263:../../core/ST/Middlewares/Third_Party/FreeRTOS/Source/portable/MemMang/heap_4.c **** void vPortFree( void *pv )
 264:../../core/ST/Middlewares/Third_Party/FreeRTOS/Source/portable/MemMang/heap_4.c **** {
 265:../../core/ST/Middlewares/Third_Party/FreeRTOS/Source/portable/MemMang/heap_4.c **** uint8_t *puc = ( uint8_t * ) pv;
 266:../../core/ST/Middlewares/Third_Party/FreeRTOS/Source/portable/MemMang/heap_4.c **** BlockLink_t *pxLink;
 267:../../core/ST/Middlewares/Third_Party/FreeRTOS/Source/portable/MemMang/heap_4.c **** 
 268:../../core/ST/Middlewares/Third_Party/FreeRTOS/Source/portable/MemMang/heap_4.c **** 	if( pv != NULL )
 269:../../core/ST/Middlewares/Third_Party/FreeRTOS/Source/portable/MemMang/heap_4.c **** 	{
 270:../../core/ST/Middlewares/Third_Party/FreeRTOS/Source/portable/MemMang/heap_4.c **** 		/* The memory being freed will have an BlockLink_t structure immediately
 271:../../core/ST/Middlewares/Third_Party/FreeRTOS/Source/portable/MemMang/heap_4.c **** 		before it. */
 272:../../core/ST/Middlewares/Third_Party/FreeRTOS/Source/portable/MemMang/heap_4.c **** 		puc -= xHeapStructSize;
 273:../../core/ST/Middlewares/Third_Party/FreeRTOS/Source/portable/MemMang/heap_4.c **** 
 274:../../core/ST/Middlewares/Third_Party/FreeRTOS/Source/portable/MemMang/heap_4.c **** 		/* This casting is to keep the compiler from issuing warnings. */
 275:../../core/ST/Middlewares/Third_Party/FreeRTOS/Source/portable/MemMang/heap_4.c **** 		pxLink = ( void * ) puc;
 276:../../core/ST/Middlewares/Third_Party/FreeRTOS/Source/portable/MemMang/heap_4.c **** 
 277:../../core/ST/Middlewares/Third_Party/FreeRTOS/Source/portable/MemMang/heap_4.c **** 		/* Check the block is actually allocated. */
 278:../../core/ST/Middlewares/Third_Party/FreeRTOS/Source/portable/MemMang/heap_4.c **** 		configASSERT( ( pxLink->xBlockSize & xBlockAllocatedBit ) != 0 );
 279:../../core/ST/Middlewares/Third_Party/FreeRTOS/Source/portable/MemMang/heap_4.c **** 		configASSERT( pxLink->pxNextFreeBlock == NULL );
 280:../../core/ST/Middlewares/Third_Party/FreeRTOS/Source/portable/MemMang/heap_4.c **** 
 281:../../core/ST/Middlewares/Third_Party/FreeRTOS/Source/portable/MemMang/heap_4.c **** 		if( ( pxLink->xBlockSize & xBlockAllocatedBit ) != 0 )
 282:../../core/ST/Middlewares/Third_Party/FreeRTOS/Source/portable/MemMang/heap_4.c **** 		{
 283:../../core/ST/Middlewares/Third_Party/FreeRTOS/Source/portable/MemMang/heap_4.c **** 			if( pxLink->pxNextFreeBlock == NULL )
 284:../../core/ST/Middlewares/Third_Party/FreeRTOS/Source/portable/MemMang/heap_4.c **** 			{
 285:../../core/ST/Middlewares/Third_Party/FreeRTOS/Source/portable/MemMang/heap_4.c **** 				/* The block is being returned to the heap - it is no longer
 286:../../core/ST/Middlewares/Third_Party/FreeRTOS/Source/portable/MemMang/heap_4.c **** 				allocated. */
 287:../../core/ST/Middlewares/Third_Party/FreeRTOS/Source/portable/MemMang/heap_4.c **** 				pxLink->xBlockSize &= ~xBlockAllocatedBit;
 288:../../core/ST/Middlewares/Third_Party/FreeRTOS/Source/portable/MemMang/heap_4.c **** 
 289:../../core/ST/Middlewares/Third_Party/FreeRTOS/Source/portable/MemMang/heap_4.c **** 				vTaskSuspendAll();
 290:../../core/ST/Middlewares/Third_Party/FreeRTOS/Source/portable/MemMang/heap_4.c **** 				{
 291:../../core/ST/Middlewares/Third_Party/FreeRTOS/Source/portable/MemMang/heap_4.c **** 					/* Add this block to the list of free blocks. */
 292:../../core/ST/Middlewares/Third_Party/FreeRTOS/Source/portable/MemMang/heap_4.c **** 					xFreeBytesRemaining += pxLink->xBlockSize;
 293:../../core/ST/Middlewares/Third_Party/FreeRTOS/Source/portable/MemMang/heap_4.c **** 					traceFREE( pv, pxLink->xBlockSize );
 294:../../core/ST/Middlewares/Third_Party/FreeRTOS/Source/portable/MemMang/heap_4.c **** 					prvInsertBlockIntoFreeList( ( ( BlockLink_t * ) pxLink ) );
 295:../../core/ST/Middlewares/Third_Party/FreeRTOS/Source/portable/MemMang/heap_4.c **** 				}
 296:../../core/ST/Middlewares/Third_Party/FreeRTOS/Source/portable/MemMang/heap_4.c **** 				( void ) xTaskResumeAll();
 297:../../core/ST/Middlewares/Third_Party/FreeRTOS/Source/portable/MemMang/heap_4.c **** 			}
 298:../../core/ST/Middlewares/Third_Party/FreeRTOS/Source/portable/MemMang/heap_4.c **** 			else
 299:../../core/ST/Middlewares/Third_Party/FreeRTOS/Source/portable/MemMang/heap_4.c **** 			{
 300:../../core/ST/Middlewares/Third_Party/FreeRTOS/Source/portable/MemMang/heap_4.c **** 				mtCOVERAGE_TEST_MARKER();
 301:../../core/ST/Middlewares/Third_Party/FreeRTOS/Source/portable/MemMang/heap_4.c **** 			}
 302:../../core/ST/Middlewares/Third_Party/FreeRTOS/Source/portable/MemMang/heap_4.c **** 		}
 303:../../core/ST/Middlewares/Third_Party/FreeRTOS/Source/portable/MemMang/heap_4.c **** 		else
 304:../../core/ST/Middlewares/Third_Party/FreeRTOS/Source/portable/MemMang/heap_4.c **** 		{
 305:../../core/ST/Middlewares/Third_Party/FreeRTOS/Source/portable/MemMang/heap_4.c **** 			mtCOVERAGE_TEST_MARKER();
 306:../../core/ST/Middlewares/Third_Party/FreeRTOS/Source/portable/MemMang/heap_4.c **** 		}
 307:../../core/ST/Middlewares/Third_Party/FreeRTOS/Source/portable/MemMang/heap_4.c **** 	}
 308:../../core/ST/Middlewares/Third_Party/FreeRTOS/Source/portable/MemMang/heap_4.c **** }
 309:../../core/ST/Middlewares/Third_Party/FreeRTOS/Source/portable/MemMang/heap_4.c **** /*-----------------------------------------------------------*/
 310:../../core/ST/Middlewares/Third_Party/FreeRTOS/Source/portable/MemMang/heap_4.c **** 
 311:../../core/ST/Middlewares/Third_Party/FreeRTOS/Source/portable/MemMang/heap_4.c **** size_t xPortGetFreeHeapSize( void )
 312:../../core/ST/Middlewares/Third_Party/FreeRTOS/Source/portable/MemMang/heap_4.c **** {
 313:../../core/ST/Middlewares/Third_Party/FreeRTOS/Source/portable/MemMang/heap_4.c **** 	return xFreeBytesRemaining;
 314:../../core/ST/Middlewares/Third_Party/FreeRTOS/Source/portable/MemMang/heap_4.c **** }
 315:../../core/ST/Middlewares/Third_Party/FreeRTOS/Source/portable/MemMang/heap_4.c **** /*-----------------------------------------------------------*/
 316:../../core/ST/Middlewares/Third_Party/FreeRTOS/Source/portable/MemMang/heap_4.c **** 
 317:../../core/ST/Middlewares/Third_Party/FreeRTOS/Source/portable/MemMang/heap_4.c **** size_t xPortGetMinimumEverFreeHeapSize( void )
ARM GAS  /tmp/ccJOP78g.s 			page 7


 318:../../core/ST/Middlewares/Third_Party/FreeRTOS/Source/portable/MemMang/heap_4.c **** {
 319:../../core/ST/Middlewares/Third_Party/FreeRTOS/Source/portable/MemMang/heap_4.c **** 	return xMinimumEverFreeBytesRemaining;
 320:../../core/ST/Middlewares/Third_Party/FreeRTOS/Source/portable/MemMang/heap_4.c **** }
 321:../../core/ST/Middlewares/Third_Party/FreeRTOS/Source/portable/MemMang/heap_4.c **** /*-----------------------------------------------------------*/
 322:../../core/ST/Middlewares/Third_Party/FreeRTOS/Source/portable/MemMang/heap_4.c **** 
 323:../../core/ST/Middlewares/Third_Party/FreeRTOS/Source/portable/MemMang/heap_4.c **** void vPortInitialiseBlocks( void )
 324:../../core/ST/Middlewares/Third_Party/FreeRTOS/Source/portable/MemMang/heap_4.c **** {
 325:../../core/ST/Middlewares/Third_Party/FreeRTOS/Source/portable/MemMang/heap_4.c **** 	/* This just exists to keep the linker quiet. */
 326:../../core/ST/Middlewares/Third_Party/FreeRTOS/Source/portable/MemMang/heap_4.c **** }
 327:../../core/ST/Middlewares/Third_Party/FreeRTOS/Source/portable/MemMang/heap_4.c **** /*-----------------------------------------------------------*/
 328:../../core/ST/Middlewares/Third_Party/FreeRTOS/Source/portable/MemMang/heap_4.c **** 
 329:../../core/ST/Middlewares/Third_Party/FreeRTOS/Source/portable/MemMang/heap_4.c **** static void prvHeapInit( void )
 330:../../core/ST/Middlewares/Third_Party/FreeRTOS/Source/portable/MemMang/heap_4.c **** {
  27              		.loc 1 330 0
  28              		.cfi_startproc
  29              		@ args = 0, pretend = 0, frame = 0
  30              		@ frame_needed = 0, uses_anonymous_args = 0
  31              		@ link register save eliminated.
  32              	.LVL0:
 331:../../core/ST/Middlewares/Third_Party/FreeRTOS/Source/portable/MemMang/heap_4.c **** BlockLink_t *pxFirstFreeBlock;
 332:../../core/ST/Middlewares/Third_Party/FreeRTOS/Source/portable/MemMang/heap_4.c **** uint8_t *pucAlignedHeap;
 333:../../core/ST/Middlewares/Third_Party/FreeRTOS/Source/portable/MemMang/heap_4.c **** size_t uxAddress;
 334:../../core/ST/Middlewares/Third_Party/FreeRTOS/Source/portable/MemMang/heap_4.c **** size_t xTotalHeapSize = configTOTAL_HEAP_SIZE;
 335:../../core/ST/Middlewares/Third_Party/FreeRTOS/Source/portable/MemMang/heap_4.c **** 
 336:../../core/ST/Middlewares/Third_Party/FreeRTOS/Source/portable/MemMang/heap_4.c **** 	/* Ensure the heap starts on a correctly aligned boundary. */
 337:../../core/ST/Middlewares/Third_Party/FreeRTOS/Source/portable/MemMang/heap_4.c **** 	uxAddress = ( size_t ) ucHeap;
  33              		.loc 1 337 0
  34 0000 124A     		ldr	r2, .L4
  35              	.LVL1:
 338:../../core/ST/Middlewares/Third_Party/FreeRTOS/Source/portable/MemMang/heap_4.c **** 
 339:../../core/ST/Middlewares/Third_Party/FreeRTOS/Source/portable/MemMang/heap_4.c **** 	if( ( uxAddress & portBYTE_ALIGNMENT_MASK ) != 0 )
  36              		.loc 1 339 0
  37 0002 12F0070F 		tst	r2, #7
  38 0006 1ED0     		beq	.L3
 340:../../core/ST/Middlewares/Third_Party/FreeRTOS/Source/portable/MemMang/heap_4.c **** 	{
 341:../../core/ST/Middlewares/Third_Party/FreeRTOS/Source/portable/MemMang/heap_4.c **** 		uxAddress += ( portBYTE_ALIGNMENT - 1 );
  39              		.loc 1 341 0
  40 0008 D11D     		adds	r1, r2, #7
  41              	.LVL2:
 342:../../core/ST/Middlewares/Third_Party/FreeRTOS/Source/portable/MemMang/heap_4.c **** 		uxAddress &= ~( ( size_t ) portBYTE_ALIGNMENT_MASK );
  42              		.loc 1 342 0
  43 000a 21F00701 		bic	r1, r1, #7
  44              	.LVL3:
 343:../../core/ST/Middlewares/Third_Party/FreeRTOS/Source/portable/MemMang/heap_4.c **** 		xTotalHeapSize -= uxAddress - ( size_t ) ucHeap;
  45              		.loc 1 343 0
  46 000e C1F51033 		rsb	r3, r1, #147456
  47 0012 1344     		add	r3, r3, r2
  48              	.LVL4:
 342:../../core/ST/Middlewares/Third_Party/FreeRTOS/Source/portable/MemMang/heap_4.c **** 		uxAddress &= ~( ( size_t ) portBYTE_ALIGNMENT_MASK );
  49              		.loc 1 342 0
  50 0014 0A46     		mov	r2, r1
  51              	.LVL5:
  52              	.L2:
 344:../../core/ST/Middlewares/Third_Party/FreeRTOS/Source/portable/MemMang/heap_4.c **** 	}
 345:../../core/ST/Middlewares/Third_Party/FreeRTOS/Source/portable/MemMang/heap_4.c **** 
 346:../../core/ST/Middlewares/Third_Party/FreeRTOS/Source/portable/MemMang/heap_4.c **** 	pucAlignedHeap = ( uint8_t * ) uxAddress;
 347:../../core/ST/Middlewares/Third_Party/FreeRTOS/Source/portable/MemMang/heap_4.c **** 
ARM GAS  /tmp/ccJOP78g.s 			page 8


 348:../../core/ST/Middlewares/Third_Party/FreeRTOS/Source/portable/MemMang/heap_4.c **** 	/* xStart is used to hold a pointer to the first item in the list of free
 349:../../core/ST/Middlewares/Third_Party/FreeRTOS/Source/portable/MemMang/heap_4.c **** 	blocks.  The void cast is used to prevent compiler warnings. */
 350:../../core/ST/Middlewares/Third_Party/FreeRTOS/Source/portable/MemMang/heap_4.c **** 	xStart.pxNextFreeBlock = ( void * ) pucAlignedHeap;
  53              		.loc 1 350 0
  54 0016 0E48     		ldr	r0, .L4+4
  55 0018 0260     		str	r2, [r0]
 351:../../core/ST/Middlewares/Third_Party/FreeRTOS/Source/portable/MemMang/heap_4.c **** 	xStart.xBlockSize = ( size_t ) 0;
  56              		.loc 1 351 0
  57 001a 0021     		movs	r1, #0
  58 001c 4160     		str	r1, [r0, #4]
 352:../../core/ST/Middlewares/Third_Party/FreeRTOS/Source/portable/MemMang/heap_4.c **** 
 353:../../core/ST/Middlewares/Third_Party/FreeRTOS/Source/portable/MemMang/heap_4.c **** 	/* pxEnd is used to mark the end of the list of free blocks and is inserted
 354:../../core/ST/Middlewares/Third_Party/FreeRTOS/Source/portable/MemMang/heap_4.c **** 	at the end of the heap space. */
 355:../../core/ST/Middlewares/Third_Party/FreeRTOS/Source/portable/MemMang/heap_4.c **** 	uxAddress = ( ( size_t ) pucAlignedHeap ) + xTotalHeapSize;
  59              		.loc 1 355 0
  60 001e 1344     		add	r3, r3, r2
  61              	.LVL6:
 356:../../core/ST/Middlewares/Third_Party/FreeRTOS/Source/portable/MemMang/heap_4.c **** 	uxAddress -= xHeapStructSize;
  62              		.loc 1 356 0
  63 0020 083B     		subs	r3, r3, #8
  64              	.LVL7:
 357:../../core/ST/Middlewares/Third_Party/FreeRTOS/Source/portable/MemMang/heap_4.c **** 	uxAddress &= ~( ( size_t ) portBYTE_ALIGNMENT_MASK );
  65              		.loc 1 357 0
  66 0022 23F00703 		bic	r3, r3, #7
  67              	.LVL8:
 358:../../core/ST/Middlewares/Third_Party/FreeRTOS/Source/portable/MemMang/heap_4.c **** 	pxEnd = ( void * ) uxAddress;
  68              		.loc 1 358 0
  69 0026 0B48     		ldr	r0, .L4+8
  70 0028 0360     		str	r3, [r0]
 359:../../core/ST/Middlewares/Third_Party/FreeRTOS/Source/portable/MemMang/heap_4.c **** 	pxEnd->xBlockSize = 0;
  71              		.loc 1 359 0
  72 002a 5960     		str	r1, [r3, #4]
 360:../../core/ST/Middlewares/Third_Party/FreeRTOS/Source/portable/MemMang/heap_4.c **** 	pxEnd->pxNextFreeBlock = NULL;
  73              		.loc 1 360 0
  74 002c 1960     		str	r1, [r3]
  75              	.LVL9:
 361:../../core/ST/Middlewares/Third_Party/FreeRTOS/Source/portable/MemMang/heap_4.c **** 
 362:../../core/ST/Middlewares/Third_Party/FreeRTOS/Source/portable/MemMang/heap_4.c **** 	/* To start with there is a single free block that is sized to take up the
 363:../../core/ST/Middlewares/Third_Party/FreeRTOS/Source/portable/MemMang/heap_4.c **** 	entire heap space, minus the space taken by pxEnd. */
 364:../../core/ST/Middlewares/Third_Party/FreeRTOS/Source/portable/MemMang/heap_4.c **** 	pxFirstFreeBlock = ( void * ) pucAlignedHeap;
 365:../../core/ST/Middlewares/Third_Party/FreeRTOS/Source/portable/MemMang/heap_4.c **** 	pxFirstFreeBlock->xBlockSize = uxAddress - ( size_t ) pxFirstFreeBlock;
  76              		.loc 1 365 0
  77 002e 991A     		subs	r1, r3, r2
  78 0030 5160     		str	r1, [r2, #4]
 366:../../core/ST/Middlewares/Third_Party/FreeRTOS/Source/portable/MemMang/heap_4.c **** 	pxFirstFreeBlock->pxNextFreeBlock = pxEnd;
  79              		.loc 1 366 0
  80 0032 1360     		str	r3, [r2]
 367:../../core/ST/Middlewares/Third_Party/FreeRTOS/Source/portable/MemMang/heap_4.c **** 
 368:../../core/ST/Middlewares/Third_Party/FreeRTOS/Source/portable/MemMang/heap_4.c **** 	/* Only one block exists - and it covers the entire usable heap space. */
 369:../../core/ST/Middlewares/Third_Party/FreeRTOS/Source/portable/MemMang/heap_4.c **** 	xMinimumEverFreeBytesRemaining = pxFirstFreeBlock->xBlockSize;
  81              		.loc 1 369 0
  82 0034 084B     		ldr	r3, .L4+12
  83              	.LVL10:
  84 0036 1960     		str	r1, [r3]
 370:../../core/ST/Middlewares/Third_Party/FreeRTOS/Source/portable/MemMang/heap_4.c **** 	xFreeBytesRemaining = pxFirstFreeBlock->xBlockSize;
  85              		.loc 1 370 0
  86 0038 084B     		ldr	r3, .L4+16
ARM GAS  /tmp/ccJOP78g.s 			page 9


  87 003a 1960     		str	r1, [r3]
 371:../../core/ST/Middlewares/Third_Party/FreeRTOS/Source/portable/MemMang/heap_4.c **** 
 372:../../core/ST/Middlewares/Third_Party/FreeRTOS/Source/portable/MemMang/heap_4.c **** 	/* Work out the position of the top bit in a size_t variable. */
 373:../../core/ST/Middlewares/Third_Party/FreeRTOS/Source/portable/MemMang/heap_4.c **** 	xBlockAllocatedBit = ( ( size_t ) 1 ) << ( ( sizeof( size_t ) * heapBITS_PER_BYTE ) - 1 );
  88              		.loc 1 373 0
  89 003c 084B     		ldr	r3, .L4+20
  90 003e 4FF00042 		mov	r2, #-2147483648
  91              	.LVL11:
  92 0042 1A60     		str	r2, [r3]
 374:../../core/ST/Middlewares/Third_Party/FreeRTOS/Source/portable/MemMang/heap_4.c **** }
  93              		.loc 1 374 0
  94 0044 7047     		bx	lr
  95              	.LVL12:
  96              	.L3:
 334:../../core/ST/Middlewares/Third_Party/FreeRTOS/Source/portable/MemMang/heap_4.c **** 
  97              		.loc 1 334 0
  98 0046 4FF41033 		mov	r3, #147456
  99 004a E4E7     		b	.L2
 100              	.L5:
 101              		.align	2
 102              	.L4:
 103 004c 00000000 		.word	ucHeap
 104 0050 00000000 		.word	.LANCHOR0
 105 0054 00000000 		.word	.LANCHOR1
 106 0058 00000000 		.word	.LANCHOR2
 107 005c 00000000 		.word	.LANCHOR3
 108 0060 00000000 		.word	.LANCHOR4
 109              		.cfi_endproc
 110              	.LFE10:
 112              		.section	.text.prvInsertBlockIntoFreeList,"ax",%progbits
 113              		.align	1
 114              		.syntax unified
 115              		.thumb
 116              		.thumb_func
 117              		.fpu fpv4-sp-d16
 119              	prvInsertBlockIntoFreeList:
 120              	.LFB11:
 375:../../core/ST/Middlewares/Third_Party/FreeRTOS/Source/portable/MemMang/heap_4.c **** /*-----------------------------------------------------------*/
 376:../../core/ST/Middlewares/Third_Party/FreeRTOS/Source/portable/MemMang/heap_4.c **** 
 377:../../core/ST/Middlewares/Third_Party/FreeRTOS/Source/portable/MemMang/heap_4.c **** static void prvInsertBlockIntoFreeList( BlockLink_t *pxBlockToInsert )
 378:../../core/ST/Middlewares/Third_Party/FreeRTOS/Source/portable/MemMang/heap_4.c **** {
 121              		.loc 1 378 0
 122              		.cfi_startproc
 123              		@ args = 0, pretend = 0, frame = 0
 124              		@ frame_needed = 0, uses_anonymous_args = 0
 125              		@ link register save eliminated.
 126              	.LVL13:
 127 0000 10B4     		push	{r4}
 128              	.LCFI0:
 129              		.cfi_def_cfa_offset 4
 130              		.cfi_offset 4, -4
 131              	.LVL14:
 379:../../core/ST/Middlewares/Third_Party/FreeRTOS/Source/portable/MemMang/heap_4.c **** BlockLink_t *pxIterator;
 380:../../core/ST/Middlewares/Third_Party/FreeRTOS/Source/portable/MemMang/heap_4.c **** uint8_t *puc;
 381:../../core/ST/Middlewares/Third_Party/FreeRTOS/Source/portable/MemMang/heap_4.c **** 
 382:../../core/ST/Middlewares/Third_Party/FreeRTOS/Source/portable/MemMang/heap_4.c **** 	/* Iterate through the list until a block is found that has a higher address
 383:../../core/ST/Middlewares/Third_Party/FreeRTOS/Source/portable/MemMang/heap_4.c **** 	than the block being inserted. */
ARM GAS  /tmp/ccJOP78g.s 			page 10


 384:../../core/ST/Middlewares/Third_Party/FreeRTOS/Source/portable/MemMang/heap_4.c **** 	for( pxIterator = &xStart; pxIterator->pxNextFreeBlock < pxBlockToInsert; pxIterator = pxIterator-
 132              		.loc 1 384 0
 133 0002 134B     		ldr	r3, .L15
 134              	.LVL15:
 135              	.L7:
 136              		.loc 1 384 0 is_stmt 0 discriminator 1
 137 0004 1A68     		ldr	r2, [r3]
 138 0006 8242     		cmp	r2, r0
 139 0008 1BD3     		bcc	.L13
 140              	.LVL16:
 385:../../core/ST/Middlewares/Third_Party/FreeRTOS/Source/portable/MemMang/heap_4.c **** 	{
 386:../../core/ST/Middlewares/Third_Party/FreeRTOS/Source/portable/MemMang/heap_4.c **** 		/* Nothing to do here, just iterate to the right position. */
 387:../../core/ST/Middlewares/Third_Party/FreeRTOS/Source/portable/MemMang/heap_4.c **** 	}
 388:../../core/ST/Middlewares/Third_Party/FreeRTOS/Source/portable/MemMang/heap_4.c **** 
 389:../../core/ST/Middlewares/Third_Party/FreeRTOS/Source/portable/MemMang/heap_4.c **** 	/* Do the block being inserted, and the block it is being inserted after
 390:../../core/ST/Middlewares/Third_Party/FreeRTOS/Source/portable/MemMang/heap_4.c **** 	make a contiguous block of memory? */
 391:../../core/ST/Middlewares/Third_Party/FreeRTOS/Source/portable/MemMang/heap_4.c **** 	puc = ( uint8_t * ) pxIterator;
 392:../../core/ST/Middlewares/Third_Party/FreeRTOS/Source/portable/MemMang/heap_4.c **** 	if( ( puc + pxIterator->xBlockSize ) == ( uint8_t * ) pxBlockToInsert )
 141              		.loc 1 392 0 is_stmt 1
 142 000a 5968     		ldr	r1, [r3, #4]
 143 000c 5C18     		adds	r4, r3, r1
 144 000e 8442     		cmp	r4, r0
 145 0010 03D1     		bne	.L8
 393:../../core/ST/Middlewares/Third_Party/FreeRTOS/Source/portable/MemMang/heap_4.c **** 	{
 394:../../core/ST/Middlewares/Third_Party/FreeRTOS/Source/portable/MemMang/heap_4.c **** 		pxIterator->xBlockSize += pxBlockToInsert->xBlockSize;
 146              		.loc 1 394 0
 147 0012 4068     		ldr	r0, [r0, #4]
 148              	.LVL17:
 149 0014 0144     		add	r1, r1, r0
 150 0016 5960     		str	r1, [r3, #4]
 151              	.LVL18:
 395:../../core/ST/Middlewares/Third_Party/FreeRTOS/Source/portable/MemMang/heap_4.c **** 		pxBlockToInsert = pxIterator;
 152              		.loc 1 395 0
 153 0018 1846     		mov	r0, r3
 154              	.LVL19:
 155              	.L8:
 396:../../core/ST/Middlewares/Third_Party/FreeRTOS/Source/portable/MemMang/heap_4.c **** 	}
 397:../../core/ST/Middlewares/Third_Party/FreeRTOS/Source/portable/MemMang/heap_4.c **** 	else
 398:../../core/ST/Middlewares/Third_Party/FreeRTOS/Source/portable/MemMang/heap_4.c **** 	{
 399:../../core/ST/Middlewares/Third_Party/FreeRTOS/Source/portable/MemMang/heap_4.c **** 		mtCOVERAGE_TEST_MARKER();
 400:../../core/ST/Middlewares/Third_Party/FreeRTOS/Source/portable/MemMang/heap_4.c **** 	}
 401:../../core/ST/Middlewares/Third_Party/FreeRTOS/Source/portable/MemMang/heap_4.c **** 
 402:../../core/ST/Middlewares/Third_Party/FreeRTOS/Source/portable/MemMang/heap_4.c **** 	/* Do the block being inserted, and the block it is being inserted before
 403:../../core/ST/Middlewares/Third_Party/FreeRTOS/Source/portable/MemMang/heap_4.c **** 	make a contiguous block of memory? */
 404:../../core/ST/Middlewares/Third_Party/FreeRTOS/Source/portable/MemMang/heap_4.c **** 	puc = ( uint8_t * ) pxBlockToInsert;
 405:../../core/ST/Middlewares/Third_Party/FreeRTOS/Source/portable/MemMang/heap_4.c **** 	if( ( puc + pxBlockToInsert->xBlockSize ) == ( uint8_t * ) pxIterator->pxNextFreeBlock )
 156              		.loc 1 405 0
 157 001a 4168     		ldr	r1, [r0, #4]
 158 001c 4418     		adds	r4, r0, r1
 159 001e A242     		cmp	r2, r4
 160 0020 13D1     		bne	.L9
 406:../../core/ST/Middlewares/Third_Party/FreeRTOS/Source/portable/MemMang/heap_4.c **** 	{
 407:../../core/ST/Middlewares/Third_Party/FreeRTOS/Source/portable/MemMang/heap_4.c **** 		if( pxIterator->pxNextFreeBlock != pxEnd )
 161              		.loc 1 407 0
 162 0022 0C4C     		ldr	r4, .L15+4
 163 0024 2468     		ldr	r4, [r4]
 164 0026 A242     		cmp	r2, r4
ARM GAS  /tmp/ccJOP78g.s 			page 11


 165 0028 0DD0     		beq	.L10
 408:../../core/ST/Middlewares/Third_Party/FreeRTOS/Source/portable/MemMang/heap_4.c **** 		{
 409:../../core/ST/Middlewares/Third_Party/FreeRTOS/Source/portable/MemMang/heap_4.c **** 			/* Form one big block from the two blocks. */
 410:../../core/ST/Middlewares/Third_Party/FreeRTOS/Source/portable/MemMang/heap_4.c **** 			pxBlockToInsert->xBlockSize += pxIterator->pxNextFreeBlock->xBlockSize;
 166              		.loc 1 410 0
 167 002a 5268     		ldr	r2, [r2, #4]
 168 002c 1144     		add	r1, r1, r2
 169 002e 4160     		str	r1, [r0, #4]
 411:../../core/ST/Middlewares/Third_Party/FreeRTOS/Source/portable/MemMang/heap_4.c **** 			pxBlockToInsert->pxNextFreeBlock = pxIterator->pxNextFreeBlock->pxNextFreeBlock;
 170              		.loc 1 411 0
 171 0030 1A68     		ldr	r2, [r3]
 172 0032 1268     		ldr	r2, [r2]
 173 0034 0260     		str	r2, [r0]
 174              	.L11:
 412:../../core/ST/Middlewares/Third_Party/FreeRTOS/Source/portable/MemMang/heap_4.c **** 		}
 413:../../core/ST/Middlewares/Third_Party/FreeRTOS/Source/portable/MemMang/heap_4.c **** 		else
 414:../../core/ST/Middlewares/Third_Party/FreeRTOS/Source/portable/MemMang/heap_4.c **** 		{
 415:../../core/ST/Middlewares/Third_Party/FreeRTOS/Source/portable/MemMang/heap_4.c **** 			pxBlockToInsert->pxNextFreeBlock = pxEnd;
 416:../../core/ST/Middlewares/Third_Party/FreeRTOS/Source/portable/MemMang/heap_4.c **** 		}
 417:../../core/ST/Middlewares/Third_Party/FreeRTOS/Source/portable/MemMang/heap_4.c **** 	}
 418:../../core/ST/Middlewares/Third_Party/FreeRTOS/Source/portable/MemMang/heap_4.c **** 	else
 419:../../core/ST/Middlewares/Third_Party/FreeRTOS/Source/portable/MemMang/heap_4.c **** 	{
 420:../../core/ST/Middlewares/Third_Party/FreeRTOS/Source/portable/MemMang/heap_4.c **** 		pxBlockToInsert->pxNextFreeBlock = pxIterator->pxNextFreeBlock;
 421:../../core/ST/Middlewares/Third_Party/FreeRTOS/Source/portable/MemMang/heap_4.c **** 	}
 422:../../core/ST/Middlewares/Third_Party/FreeRTOS/Source/portable/MemMang/heap_4.c **** 
 423:../../core/ST/Middlewares/Third_Party/FreeRTOS/Source/portable/MemMang/heap_4.c **** 	/* If the block being inserted plugged a gab, so was merged with the block
 424:../../core/ST/Middlewares/Third_Party/FreeRTOS/Source/portable/MemMang/heap_4.c **** 	before and the block after, then it's pxNextFreeBlock pointer will have
 425:../../core/ST/Middlewares/Third_Party/FreeRTOS/Source/portable/MemMang/heap_4.c **** 	already been set, and should not be set here as that would make it point
 426:../../core/ST/Middlewares/Third_Party/FreeRTOS/Source/portable/MemMang/heap_4.c **** 	to itself. */
 427:../../core/ST/Middlewares/Third_Party/FreeRTOS/Source/portable/MemMang/heap_4.c **** 	if( pxIterator != pxBlockToInsert )
 175              		.loc 1 427 0
 176 0036 9842     		cmp	r0, r3
 177 0038 00D0     		beq	.L6
 428:../../core/ST/Middlewares/Third_Party/FreeRTOS/Source/portable/MemMang/heap_4.c **** 	{
 429:../../core/ST/Middlewares/Third_Party/FreeRTOS/Source/portable/MemMang/heap_4.c **** 		pxIterator->pxNextFreeBlock = pxBlockToInsert;
 178              		.loc 1 429 0
 179 003a 1860     		str	r0, [r3]
 180              	.L6:
 430:../../core/ST/Middlewares/Third_Party/FreeRTOS/Source/portable/MemMang/heap_4.c **** 	}
 431:../../core/ST/Middlewares/Third_Party/FreeRTOS/Source/portable/MemMang/heap_4.c **** 	else
 432:../../core/ST/Middlewares/Third_Party/FreeRTOS/Source/portable/MemMang/heap_4.c **** 	{
 433:../../core/ST/Middlewares/Third_Party/FreeRTOS/Source/portable/MemMang/heap_4.c **** 		mtCOVERAGE_TEST_MARKER();
 434:../../core/ST/Middlewares/Third_Party/FreeRTOS/Source/portable/MemMang/heap_4.c **** 	}
 435:../../core/ST/Middlewares/Third_Party/FreeRTOS/Source/portable/MemMang/heap_4.c **** }
 181              		.loc 1 435 0
 182 003c 5DF8044B 		ldr	r4, [sp], #4
 183              	.LCFI1:
 184              		.cfi_remember_state
 185              		.cfi_restore 4
 186              		.cfi_def_cfa_offset 0
 187 0040 7047     		bx	lr
 188              	.LVL20:
 189              	.L13:
 190              	.LCFI2:
 191              		.cfi_restore_state
 384:../../core/ST/Middlewares/Third_Party/FreeRTOS/Source/portable/MemMang/heap_4.c **** 	{
 192              		.loc 1 384 0
ARM GAS  /tmp/ccJOP78g.s 			page 12


 193 0042 1346     		mov	r3, r2
 194              	.LVL21:
 195 0044 DEE7     		b	.L7
 196              	.LVL22:
 197              	.L10:
 415:../../core/ST/Middlewares/Third_Party/FreeRTOS/Source/portable/MemMang/heap_4.c **** 		}
 198              		.loc 1 415 0
 199 0046 0460     		str	r4, [r0]
 200 0048 F5E7     		b	.L11
 201              	.L9:
 420:../../core/ST/Middlewares/Third_Party/FreeRTOS/Source/portable/MemMang/heap_4.c **** 	}
 202              		.loc 1 420 0
 203 004a 0260     		str	r2, [r0]
 204 004c F3E7     		b	.L11
 205              	.L16:
 206 004e 00BF     		.align	2
 207              	.L15:
 208 0050 00000000 		.word	.LANCHOR0
 209 0054 00000000 		.word	.LANCHOR1
 210              		.cfi_endproc
 211              	.LFE11:
 213              		.section	.text.pvPortMalloc,"ax",%progbits
 214              		.align	1
 215              		.global	pvPortMalloc
 216              		.syntax unified
 217              		.thumb
 218              		.thumb_func
 219              		.fpu fpv4-sp-d16
 221              	pvPortMalloc:
 222              	.LFB5:
 114:../../core/ST/Middlewares/Third_Party/FreeRTOS/Source/portable/MemMang/heap_4.c **** BlockLink_t *pxBlock, *pxPreviousBlock, *pxNewBlockLink;
 223              		.loc 1 114 0
 224              		.cfi_startproc
 225              		@ args = 0, pretend = 0, frame = 0
 226              		@ frame_needed = 0, uses_anonymous_args = 0
 227              	.LVL23:
 228 0000 70B5     		push	{r4, r5, r6, lr}
 229              	.LCFI3:
 230              		.cfi_def_cfa_offset 16
 231              		.cfi_offset 4, -16
 232              		.cfi_offset 5, -12
 233              		.cfi_offset 6, -8
 234              		.cfi_offset 14, -4
 235 0002 0446     		mov	r4, r0
 236              	.LVL24:
 118:../../core/ST/Middlewares/Third_Party/FreeRTOS/Source/portable/MemMang/heap_4.c **** 	{
 237              		.loc 1 118 0
 238 0004 FFF7FEFF 		bl	vTaskSuspendAll
 239              	.LVL25:
 122:../../core/ST/Middlewares/Third_Party/FreeRTOS/Source/portable/MemMang/heap_4.c **** 		{
 240              		.loc 1 122 0
 241 0008 3A4B     		ldr	r3, .L37
 242 000a 1B68     		ldr	r3, [r3]
 243 000c BBB1     		cbz	r3, .L36
 244              	.L18:
 135:../../core/ST/Middlewares/Third_Party/FreeRTOS/Source/portable/MemMang/heap_4.c **** 		{
 245              		.loc 1 135 0
ARM GAS  /tmp/ccJOP78g.s 			page 13


 246 000e 3A4B     		ldr	r3, .L37+4
 247 0010 1B68     		ldr	r3, [r3]
 248 0012 1C42     		tst	r4, r3
 249 0014 63D1     		bne	.L30
 139:../../core/ST/Middlewares/Third_Party/FreeRTOS/Source/portable/MemMang/heap_4.c **** 			{
 250              		.loc 1 139 0
 251 0016 ACB1     		cbz	r4, .L20
 141:../../core/ST/Middlewares/Third_Party/FreeRTOS/Source/portable/MemMang/heap_4.c **** 
 252              		.loc 1 141 0
 253 0018 0834     		adds	r4, r4, #8
 254              	.LVL26:
 145:../../core/ST/Middlewares/Third_Party/FreeRTOS/Source/portable/MemMang/heap_4.c **** 				{
 255              		.loc 1 145 0
 256 001a 14F0070F 		tst	r4, #7
 257 001e 11D0     		beq	.L20
 148:../../core/ST/Middlewares/Third_Party/FreeRTOS/Source/portable/MemMang/heap_4.c **** 					configASSERT( ( xWantedSize & portBYTE_ALIGNMENT_MASK ) == 0 );
 258              		.loc 1 148 0
 259 0020 24F00704 		bic	r4, r4, #7
 260              	.LVL27:
 261 0024 0834     		adds	r4, r4, #8
 262              	.LVL28:
 149:../../core/ST/Middlewares/Third_Party/FreeRTOS/Source/portable/MemMang/heap_4.c **** 				}
 263              		.loc 1 149 0
 264 0026 04F00703 		and	r3, r4, #7
 265 002a 5BB1     		cbz	r3, .L20
 266              	.LBB12:
 267              	.LBB13:
 268              		.file 2 "../../core/ST/Middlewares/Third_Party/FreeRTOS/Source/portable/GCC/ARM_CM4F/portmacro.h"
   1:../../core/ST/Middlewares/Third_Party/FreeRTOS/Source/portable/GCC/ARM_CM4F/portmacro.h **** /*
   2:../../core/ST/Middlewares/Third_Party/FreeRTOS/Source/portable/GCC/ARM_CM4F/portmacro.h ****  * FreeRTOS Kernel V10.0.1
   3:../../core/ST/Middlewares/Third_Party/FreeRTOS/Source/portable/GCC/ARM_CM4F/portmacro.h ****  * Copyright (C) 2017 Amazon.com, Inc. or its affiliates.  All Rights Reserved.
   4:../../core/ST/Middlewares/Third_Party/FreeRTOS/Source/portable/GCC/ARM_CM4F/portmacro.h ****  *
   5:../../core/ST/Middlewares/Third_Party/FreeRTOS/Source/portable/GCC/ARM_CM4F/portmacro.h ****  * Permission is hereby granted, free of charge, to any person obtaining a copy of
   6:../../core/ST/Middlewares/Third_Party/FreeRTOS/Source/portable/GCC/ARM_CM4F/portmacro.h ****  * this software and associated documentation files (the "Software"), to deal in
   7:../../core/ST/Middlewares/Third_Party/FreeRTOS/Source/portable/GCC/ARM_CM4F/portmacro.h ****  * the Software without restriction, including without limitation the rights to
   8:../../core/ST/Middlewares/Third_Party/FreeRTOS/Source/portable/GCC/ARM_CM4F/portmacro.h ****  * use, copy, modify, merge, publish, distribute, sublicense, and/or sell copies of
   9:../../core/ST/Middlewares/Third_Party/FreeRTOS/Source/portable/GCC/ARM_CM4F/portmacro.h ****  * the Software, and to permit persons to whom the Software is furnished to do so,
  10:../../core/ST/Middlewares/Third_Party/FreeRTOS/Source/portable/GCC/ARM_CM4F/portmacro.h ****  * subject to the following conditions:
  11:../../core/ST/Middlewares/Third_Party/FreeRTOS/Source/portable/GCC/ARM_CM4F/portmacro.h ****  *
  12:../../core/ST/Middlewares/Third_Party/FreeRTOS/Source/portable/GCC/ARM_CM4F/portmacro.h ****  * The above copyright notice and this permission notice shall be included in all
  13:../../core/ST/Middlewares/Third_Party/FreeRTOS/Source/portable/GCC/ARM_CM4F/portmacro.h ****  * copies or substantial portions of the Software.
  14:../../core/ST/Middlewares/Third_Party/FreeRTOS/Source/portable/GCC/ARM_CM4F/portmacro.h ****  *
  15:../../core/ST/Middlewares/Third_Party/FreeRTOS/Source/portable/GCC/ARM_CM4F/portmacro.h ****  * THE SOFTWARE IS PROVIDED "AS IS", WITHOUT WARRANTY OF ANY KIND, EXPRESS OR
  16:../../core/ST/Middlewares/Third_Party/FreeRTOS/Source/portable/GCC/ARM_CM4F/portmacro.h ****  * IMPLIED, INCLUDING BUT NOT LIMITED TO THE WARRANTIES OF MERCHANTABILITY, FITNESS
  17:../../core/ST/Middlewares/Third_Party/FreeRTOS/Source/portable/GCC/ARM_CM4F/portmacro.h ****  * FOR A PARTICULAR PURPOSE AND NONINFRINGEMENT. IN NO EVENT SHALL THE AUTHORS OR
  18:../../core/ST/Middlewares/Third_Party/FreeRTOS/Source/portable/GCC/ARM_CM4F/portmacro.h ****  * COPYRIGHT HOLDERS BE LIABLE FOR ANY CLAIM, DAMAGES OR OTHER LIABILITY, WHETHER
  19:../../core/ST/Middlewares/Third_Party/FreeRTOS/Source/portable/GCC/ARM_CM4F/portmacro.h ****  * IN AN ACTION OF CONTRACT, TORT OR OTHERWISE, ARISING FROM, OUT OF OR IN
  20:../../core/ST/Middlewares/Third_Party/FreeRTOS/Source/portable/GCC/ARM_CM4F/portmacro.h ****  * CONNECTION WITH THE SOFTWARE OR THE USE OR OTHER DEALINGS IN THE SOFTWARE.
  21:../../core/ST/Middlewares/Third_Party/FreeRTOS/Source/portable/GCC/ARM_CM4F/portmacro.h ****  *
  22:../../core/ST/Middlewares/Third_Party/FreeRTOS/Source/portable/GCC/ARM_CM4F/portmacro.h ****  * http://www.FreeRTOS.org
  23:../../core/ST/Middlewares/Third_Party/FreeRTOS/Source/portable/GCC/ARM_CM4F/portmacro.h ****  * http://aws.amazon.com/freertos
  24:../../core/ST/Middlewares/Third_Party/FreeRTOS/Source/portable/GCC/ARM_CM4F/portmacro.h ****  *
  25:../../core/ST/Middlewares/Third_Party/FreeRTOS/Source/portable/GCC/ARM_CM4F/portmacro.h ****  * 1 tab == 4 spaces!
  26:../../core/ST/Middlewares/Third_Party/FreeRTOS/Source/portable/GCC/ARM_CM4F/portmacro.h ****  */
  27:../../core/ST/Middlewares/Third_Party/FreeRTOS/Source/portable/GCC/ARM_CM4F/portmacro.h **** 
  28:../../core/ST/Middlewares/Third_Party/FreeRTOS/Source/portable/GCC/ARM_CM4F/portmacro.h **** 
  29:../../core/ST/Middlewares/Third_Party/FreeRTOS/Source/portable/GCC/ARM_CM4F/portmacro.h **** #ifndef PORTMACRO_H
ARM GAS  /tmp/ccJOP78g.s 			page 14


  30:../../core/ST/Middlewares/Third_Party/FreeRTOS/Source/portable/GCC/ARM_CM4F/portmacro.h **** #define PORTMACRO_H
  31:../../core/ST/Middlewares/Third_Party/FreeRTOS/Source/portable/GCC/ARM_CM4F/portmacro.h **** 
  32:../../core/ST/Middlewares/Third_Party/FreeRTOS/Source/portable/GCC/ARM_CM4F/portmacro.h **** #ifdef __cplusplus
  33:../../core/ST/Middlewares/Third_Party/FreeRTOS/Source/portable/GCC/ARM_CM4F/portmacro.h **** extern "C" {
  34:../../core/ST/Middlewares/Third_Party/FreeRTOS/Source/portable/GCC/ARM_CM4F/portmacro.h **** #endif
  35:../../core/ST/Middlewares/Third_Party/FreeRTOS/Source/portable/GCC/ARM_CM4F/portmacro.h **** 
  36:../../core/ST/Middlewares/Third_Party/FreeRTOS/Source/portable/GCC/ARM_CM4F/portmacro.h **** /*-----------------------------------------------------------
  37:../../core/ST/Middlewares/Third_Party/FreeRTOS/Source/portable/GCC/ARM_CM4F/portmacro.h ****  * Port specific definitions.
  38:../../core/ST/Middlewares/Third_Party/FreeRTOS/Source/portable/GCC/ARM_CM4F/portmacro.h ****  *
  39:../../core/ST/Middlewares/Third_Party/FreeRTOS/Source/portable/GCC/ARM_CM4F/portmacro.h ****  * The settings in this file configure FreeRTOS correctly for the
  40:../../core/ST/Middlewares/Third_Party/FreeRTOS/Source/portable/GCC/ARM_CM4F/portmacro.h ****  * given hardware and compiler.
  41:../../core/ST/Middlewares/Third_Party/FreeRTOS/Source/portable/GCC/ARM_CM4F/portmacro.h ****  *
  42:../../core/ST/Middlewares/Third_Party/FreeRTOS/Source/portable/GCC/ARM_CM4F/portmacro.h ****  * These settings should not be altered.
  43:../../core/ST/Middlewares/Third_Party/FreeRTOS/Source/portable/GCC/ARM_CM4F/portmacro.h ****  *-----------------------------------------------------------
  44:../../core/ST/Middlewares/Third_Party/FreeRTOS/Source/portable/GCC/ARM_CM4F/portmacro.h ****  */
  45:../../core/ST/Middlewares/Third_Party/FreeRTOS/Source/portable/GCC/ARM_CM4F/portmacro.h **** 
  46:../../core/ST/Middlewares/Third_Party/FreeRTOS/Source/portable/GCC/ARM_CM4F/portmacro.h **** /* Type definitions. */
  47:../../core/ST/Middlewares/Third_Party/FreeRTOS/Source/portable/GCC/ARM_CM4F/portmacro.h **** #define portCHAR		char
  48:../../core/ST/Middlewares/Third_Party/FreeRTOS/Source/portable/GCC/ARM_CM4F/portmacro.h **** #define portFLOAT		float
  49:../../core/ST/Middlewares/Third_Party/FreeRTOS/Source/portable/GCC/ARM_CM4F/portmacro.h **** #define portDOUBLE		double
  50:../../core/ST/Middlewares/Third_Party/FreeRTOS/Source/portable/GCC/ARM_CM4F/portmacro.h **** #define portLONG		long
  51:../../core/ST/Middlewares/Third_Party/FreeRTOS/Source/portable/GCC/ARM_CM4F/portmacro.h **** #define portSHORT		short
  52:../../core/ST/Middlewares/Third_Party/FreeRTOS/Source/portable/GCC/ARM_CM4F/portmacro.h **** #define portSTACK_TYPE	uint32_t
  53:../../core/ST/Middlewares/Third_Party/FreeRTOS/Source/portable/GCC/ARM_CM4F/portmacro.h **** #define portBASE_TYPE	long
  54:../../core/ST/Middlewares/Third_Party/FreeRTOS/Source/portable/GCC/ARM_CM4F/portmacro.h **** 
  55:../../core/ST/Middlewares/Third_Party/FreeRTOS/Source/portable/GCC/ARM_CM4F/portmacro.h **** typedef portSTACK_TYPE StackType_t;
  56:../../core/ST/Middlewares/Third_Party/FreeRTOS/Source/portable/GCC/ARM_CM4F/portmacro.h **** typedef long BaseType_t;
  57:../../core/ST/Middlewares/Third_Party/FreeRTOS/Source/portable/GCC/ARM_CM4F/portmacro.h **** typedef unsigned long UBaseType_t;
  58:../../core/ST/Middlewares/Third_Party/FreeRTOS/Source/portable/GCC/ARM_CM4F/portmacro.h **** 
  59:../../core/ST/Middlewares/Third_Party/FreeRTOS/Source/portable/GCC/ARM_CM4F/portmacro.h **** #if( configUSE_16_BIT_TICKS == 1 )
  60:../../core/ST/Middlewares/Third_Party/FreeRTOS/Source/portable/GCC/ARM_CM4F/portmacro.h **** 	typedef uint16_t TickType_t;
  61:../../core/ST/Middlewares/Third_Party/FreeRTOS/Source/portable/GCC/ARM_CM4F/portmacro.h **** 	#define portMAX_DELAY ( TickType_t ) 0xffff
  62:../../core/ST/Middlewares/Third_Party/FreeRTOS/Source/portable/GCC/ARM_CM4F/portmacro.h **** #else
  63:../../core/ST/Middlewares/Third_Party/FreeRTOS/Source/portable/GCC/ARM_CM4F/portmacro.h **** 	typedef uint32_t TickType_t;
  64:../../core/ST/Middlewares/Third_Party/FreeRTOS/Source/portable/GCC/ARM_CM4F/portmacro.h **** 	#define portMAX_DELAY ( TickType_t ) 0xffffffffUL
  65:../../core/ST/Middlewares/Third_Party/FreeRTOS/Source/portable/GCC/ARM_CM4F/portmacro.h **** 
  66:../../core/ST/Middlewares/Third_Party/FreeRTOS/Source/portable/GCC/ARM_CM4F/portmacro.h **** 	/* 32-bit tick type on a 32-bit architecture, so reads of the tick count do
  67:../../core/ST/Middlewares/Third_Party/FreeRTOS/Source/portable/GCC/ARM_CM4F/portmacro.h **** 	not need to be guarded with a critical section. */
  68:../../core/ST/Middlewares/Third_Party/FreeRTOS/Source/portable/GCC/ARM_CM4F/portmacro.h **** 	#define portTICK_TYPE_IS_ATOMIC 1
  69:../../core/ST/Middlewares/Third_Party/FreeRTOS/Source/portable/GCC/ARM_CM4F/portmacro.h **** #endif
  70:../../core/ST/Middlewares/Third_Party/FreeRTOS/Source/portable/GCC/ARM_CM4F/portmacro.h **** /*-----------------------------------------------------------*/
  71:../../core/ST/Middlewares/Third_Party/FreeRTOS/Source/portable/GCC/ARM_CM4F/portmacro.h **** 
  72:../../core/ST/Middlewares/Third_Party/FreeRTOS/Source/portable/GCC/ARM_CM4F/portmacro.h **** /* Architecture specifics. */
  73:../../core/ST/Middlewares/Third_Party/FreeRTOS/Source/portable/GCC/ARM_CM4F/portmacro.h **** #define portSTACK_GROWTH			( -1 )
  74:../../core/ST/Middlewares/Third_Party/FreeRTOS/Source/portable/GCC/ARM_CM4F/portmacro.h **** #define portTICK_PERIOD_MS			( ( TickType_t ) 1000 / configTICK_RATE_HZ )
  75:../../core/ST/Middlewares/Third_Party/FreeRTOS/Source/portable/GCC/ARM_CM4F/portmacro.h **** #define portBYTE_ALIGNMENT			8
  76:../../core/ST/Middlewares/Third_Party/FreeRTOS/Source/portable/GCC/ARM_CM4F/portmacro.h **** /*-----------------------------------------------------------*/
  77:../../core/ST/Middlewares/Third_Party/FreeRTOS/Source/portable/GCC/ARM_CM4F/portmacro.h **** 
  78:../../core/ST/Middlewares/Third_Party/FreeRTOS/Source/portable/GCC/ARM_CM4F/portmacro.h **** /* Scheduler utilities. */
  79:../../core/ST/Middlewares/Third_Party/FreeRTOS/Source/portable/GCC/ARM_CM4F/portmacro.h **** #define portYIELD() 															\
  80:../../core/ST/Middlewares/Third_Party/FreeRTOS/Source/portable/GCC/ARM_CM4F/portmacro.h **** {																				\
  81:../../core/ST/Middlewares/Third_Party/FreeRTOS/Source/portable/GCC/ARM_CM4F/portmacro.h **** 	/* Set a PendSV to request a context switch. */								\
  82:../../core/ST/Middlewares/Third_Party/FreeRTOS/Source/portable/GCC/ARM_CM4F/portmacro.h **** 	portNVIC_INT_CTRL_REG = portNVIC_PENDSVSET_BIT;								\
  83:../../core/ST/Middlewares/Third_Party/FreeRTOS/Source/portable/GCC/ARM_CM4F/portmacro.h **** 																				\
  84:../../core/ST/Middlewares/Third_Party/FreeRTOS/Source/portable/GCC/ARM_CM4F/portmacro.h **** 	/* Barriers are normally not required but do ensure the code is completely	\
  85:../../core/ST/Middlewares/Third_Party/FreeRTOS/Source/portable/GCC/ARM_CM4F/portmacro.h **** 	within the specified behaviour for the architecture. */						\
  86:../../core/ST/Middlewares/Third_Party/FreeRTOS/Source/portable/GCC/ARM_CM4F/portmacro.h **** 	__asm volatile( "dsb" ::: "memory" );										\
ARM GAS  /tmp/ccJOP78g.s 			page 15


  87:../../core/ST/Middlewares/Third_Party/FreeRTOS/Source/portable/GCC/ARM_CM4F/portmacro.h **** 	__asm volatile( "isb" );													\
  88:../../core/ST/Middlewares/Third_Party/FreeRTOS/Source/portable/GCC/ARM_CM4F/portmacro.h **** }
  89:../../core/ST/Middlewares/Third_Party/FreeRTOS/Source/portable/GCC/ARM_CM4F/portmacro.h **** 
  90:../../core/ST/Middlewares/Third_Party/FreeRTOS/Source/portable/GCC/ARM_CM4F/portmacro.h **** #define portNVIC_INT_CTRL_REG		( * ( ( volatile uint32_t * ) 0xe000ed04 ) )
  91:../../core/ST/Middlewares/Third_Party/FreeRTOS/Source/portable/GCC/ARM_CM4F/portmacro.h **** #define portNVIC_PENDSVSET_BIT		( 1UL << 28UL )
  92:../../core/ST/Middlewares/Third_Party/FreeRTOS/Source/portable/GCC/ARM_CM4F/portmacro.h **** #define portEND_SWITCHING_ISR( xSwitchRequired ) if( xSwitchRequired != pdFALSE ) portYIELD()
  93:../../core/ST/Middlewares/Third_Party/FreeRTOS/Source/portable/GCC/ARM_CM4F/portmacro.h **** #define portYIELD_FROM_ISR( x ) portEND_SWITCHING_ISR( x )
  94:../../core/ST/Middlewares/Third_Party/FreeRTOS/Source/portable/GCC/ARM_CM4F/portmacro.h **** /*-----------------------------------------------------------*/
  95:../../core/ST/Middlewares/Third_Party/FreeRTOS/Source/portable/GCC/ARM_CM4F/portmacro.h **** 
  96:../../core/ST/Middlewares/Third_Party/FreeRTOS/Source/portable/GCC/ARM_CM4F/portmacro.h **** /* Critical section management. */
  97:../../core/ST/Middlewares/Third_Party/FreeRTOS/Source/portable/GCC/ARM_CM4F/portmacro.h **** extern void vPortEnterCritical( void );
  98:../../core/ST/Middlewares/Third_Party/FreeRTOS/Source/portable/GCC/ARM_CM4F/portmacro.h **** extern void vPortExitCritical( void );
  99:../../core/ST/Middlewares/Third_Party/FreeRTOS/Source/portable/GCC/ARM_CM4F/portmacro.h **** #define portSET_INTERRUPT_MASK_FROM_ISR()		ulPortRaiseBASEPRI()
 100:../../core/ST/Middlewares/Third_Party/FreeRTOS/Source/portable/GCC/ARM_CM4F/portmacro.h **** #define portCLEAR_INTERRUPT_MASK_FROM_ISR(x)	vPortSetBASEPRI(x)
 101:../../core/ST/Middlewares/Third_Party/FreeRTOS/Source/portable/GCC/ARM_CM4F/portmacro.h **** #define portDISABLE_INTERRUPTS()				vPortRaiseBASEPRI()
 102:../../core/ST/Middlewares/Third_Party/FreeRTOS/Source/portable/GCC/ARM_CM4F/portmacro.h **** #define portENABLE_INTERRUPTS()					vPortSetBASEPRI(0)
 103:../../core/ST/Middlewares/Third_Party/FreeRTOS/Source/portable/GCC/ARM_CM4F/portmacro.h **** #define portENTER_CRITICAL()					vPortEnterCritical()
 104:../../core/ST/Middlewares/Third_Party/FreeRTOS/Source/portable/GCC/ARM_CM4F/portmacro.h **** #define portEXIT_CRITICAL()						vPortExitCritical()
 105:../../core/ST/Middlewares/Third_Party/FreeRTOS/Source/portable/GCC/ARM_CM4F/portmacro.h **** 
 106:../../core/ST/Middlewares/Third_Party/FreeRTOS/Source/portable/GCC/ARM_CM4F/portmacro.h **** /*-----------------------------------------------------------*/
 107:../../core/ST/Middlewares/Third_Party/FreeRTOS/Source/portable/GCC/ARM_CM4F/portmacro.h **** 
 108:../../core/ST/Middlewares/Third_Party/FreeRTOS/Source/portable/GCC/ARM_CM4F/portmacro.h **** /* Task function macros as described on the FreeRTOS.org WEB site.  These are
 109:../../core/ST/Middlewares/Third_Party/FreeRTOS/Source/portable/GCC/ARM_CM4F/portmacro.h **** not necessary for to use this port.  They are defined so the common demo files
 110:../../core/ST/Middlewares/Third_Party/FreeRTOS/Source/portable/GCC/ARM_CM4F/portmacro.h **** (which build with all the ports) will build. */
 111:../../core/ST/Middlewares/Third_Party/FreeRTOS/Source/portable/GCC/ARM_CM4F/portmacro.h **** #define portTASK_FUNCTION_PROTO( vFunction, pvParameters ) void vFunction( void *pvParameters )
 112:../../core/ST/Middlewares/Third_Party/FreeRTOS/Source/portable/GCC/ARM_CM4F/portmacro.h **** #define portTASK_FUNCTION( vFunction, pvParameters ) void vFunction( void *pvParameters )
 113:../../core/ST/Middlewares/Third_Party/FreeRTOS/Source/portable/GCC/ARM_CM4F/portmacro.h **** /*-----------------------------------------------------------*/
 114:../../core/ST/Middlewares/Third_Party/FreeRTOS/Source/portable/GCC/ARM_CM4F/portmacro.h **** 
 115:../../core/ST/Middlewares/Third_Party/FreeRTOS/Source/portable/GCC/ARM_CM4F/portmacro.h **** /* Tickless idle/low power functionality. */
 116:../../core/ST/Middlewares/Third_Party/FreeRTOS/Source/portable/GCC/ARM_CM4F/portmacro.h **** #ifndef portSUPPRESS_TICKS_AND_SLEEP
 117:../../core/ST/Middlewares/Third_Party/FreeRTOS/Source/portable/GCC/ARM_CM4F/portmacro.h **** 	extern void vPortSuppressTicksAndSleep( TickType_t xExpectedIdleTime );
 118:../../core/ST/Middlewares/Third_Party/FreeRTOS/Source/portable/GCC/ARM_CM4F/portmacro.h **** 	#define portSUPPRESS_TICKS_AND_SLEEP( xExpectedIdleTime ) vPortSuppressTicksAndSleep( xExpectedIdl
 119:../../core/ST/Middlewares/Third_Party/FreeRTOS/Source/portable/GCC/ARM_CM4F/portmacro.h **** #endif
 120:../../core/ST/Middlewares/Third_Party/FreeRTOS/Source/portable/GCC/ARM_CM4F/portmacro.h **** /*-----------------------------------------------------------*/
 121:../../core/ST/Middlewares/Third_Party/FreeRTOS/Source/portable/GCC/ARM_CM4F/portmacro.h **** 
 122:../../core/ST/Middlewares/Third_Party/FreeRTOS/Source/portable/GCC/ARM_CM4F/portmacro.h **** /* Architecture specific optimisations. */
 123:../../core/ST/Middlewares/Third_Party/FreeRTOS/Source/portable/GCC/ARM_CM4F/portmacro.h **** #ifndef configUSE_PORT_OPTIMISED_TASK_SELECTION
 124:../../core/ST/Middlewares/Third_Party/FreeRTOS/Source/portable/GCC/ARM_CM4F/portmacro.h **** 	#define configUSE_PORT_OPTIMISED_TASK_SELECTION 1
 125:../../core/ST/Middlewares/Third_Party/FreeRTOS/Source/portable/GCC/ARM_CM4F/portmacro.h **** #endif
 126:../../core/ST/Middlewares/Third_Party/FreeRTOS/Source/portable/GCC/ARM_CM4F/portmacro.h **** 
 127:../../core/ST/Middlewares/Third_Party/FreeRTOS/Source/portable/GCC/ARM_CM4F/portmacro.h **** #if configUSE_PORT_OPTIMISED_TASK_SELECTION == 1
 128:../../core/ST/Middlewares/Third_Party/FreeRTOS/Source/portable/GCC/ARM_CM4F/portmacro.h **** 
 129:../../core/ST/Middlewares/Third_Party/FreeRTOS/Source/portable/GCC/ARM_CM4F/portmacro.h **** 	/* Generic helper function. */
 130:../../core/ST/Middlewares/Third_Party/FreeRTOS/Source/portable/GCC/ARM_CM4F/portmacro.h **** 	__attribute__( ( always_inline ) ) static inline uint8_t ucPortCountLeadingZeros( uint32_t ulBitma
 131:../../core/ST/Middlewares/Third_Party/FreeRTOS/Source/portable/GCC/ARM_CM4F/portmacro.h **** 	{
 132:../../core/ST/Middlewares/Third_Party/FreeRTOS/Source/portable/GCC/ARM_CM4F/portmacro.h **** 	uint8_t ucReturn;
 133:../../core/ST/Middlewares/Third_Party/FreeRTOS/Source/portable/GCC/ARM_CM4F/portmacro.h **** 
 134:../../core/ST/Middlewares/Third_Party/FreeRTOS/Source/portable/GCC/ARM_CM4F/portmacro.h **** 		__asm volatile ( "clz %0, %1" : "=r" ( ucReturn ) : "r" ( ulBitmap ) : "memory" );
 135:../../core/ST/Middlewares/Third_Party/FreeRTOS/Source/portable/GCC/ARM_CM4F/portmacro.h **** 		return ucReturn;
 136:../../core/ST/Middlewares/Third_Party/FreeRTOS/Source/portable/GCC/ARM_CM4F/portmacro.h **** 	}
 137:../../core/ST/Middlewares/Third_Party/FreeRTOS/Source/portable/GCC/ARM_CM4F/portmacro.h **** 
 138:../../core/ST/Middlewares/Third_Party/FreeRTOS/Source/portable/GCC/ARM_CM4F/portmacro.h **** 	/* Check the configuration. */
 139:../../core/ST/Middlewares/Third_Party/FreeRTOS/Source/portable/GCC/ARM_CM4F/portmacro.h **** 	#if( configMAX_PRIORITIES > 32 )
 140:../../core/ST/Middlewares/Third_Party/FreeRTOS/Source/portable/GCC/ARM_CM4F/portmacro.h **** 		#error configUSE_PORT_OPTIMISED_TASK_SELECTION can only be set to 1 when configMAX_PRIORITIES is 
 141:../../core/ST/Middlewares/Third_Party/FreeRTOS/Source/portable/GCC/ARM_CM4F/portmacro.h **** 	#endif
 142:../../core/ST/Middlewares/Third_Party/FreeRTOS/Source/portable/GCC/ARM_CM4F/portmacro.h **** 
 143:../../core/ST/Middlewares/Third_Party/FreeRTOS/Source/portable/GCC/ARM_CM4F/portmacro.h **** 	/* Store/clear the ready priorities in a bit map. */
ARM GAS  /tmp/ccJOP78g.s 			page 16


 144:../../core/ST/Middlewares/Third_Party/FreeRTOS/Source/portable/GCC/ARM_CM4F/portmacro.h **** 	#define portRECORD_READY_PRIORITY( uxPriority, uxReadyPriorities ) ( uxReadyPriorities ) |= ( 1UL 
 145:../../core/ST/Middlewares/Third_Party/FreeRTOS/Source/portable/GCC/ARM_CM4F/portmacro.h **** 	#define portRESET_READY_PRIORITY( uxPriority, uxReadyPriorities ) ( uxReadyPriorities ) &= ~( 1UL 
 146:../../core/ST/Middlewares/Third_Party/FreeRTOS/Source/portable/GCC/ARM_CM4F/portmacro.h **** 
 147:../../core/ST/Middlewares/Third_Party/FreeRTOS/Source/portable/GCC/ARM_CM4F/portmacro.h **** 	/*-----------------------------------------------------------*/
 148:../../core/ST/Middlewares/Third_Party/FreeRTOS/Source/portable/GCC/ARM_CM4F/portmacro.h **** 
 149:../../core/ST/Middlewares/Third_Party/FreeRTOS/Source/portable/GCC/ARM_CM4F/portmacro.h **** 	#define portGET_HIGHEST_PRIORITY( uxTopPriority, uxReadyPriorities ) uxTopPriority = ( 31UL - ( ui
 150:../../core/ST/Middlewares/Third_Party/FreeRTOS/Source/portable/GCC/ARM_CM4F/portmacro.h **** 
 151:../../core/ST/Middlewares/Third_Party/FreeRTOS/Source/portable/GCC/ARM_CM4F/portmacro.h **** #endif /* configUSE_PORT_OPTIMISED_TASK_SELECTION */
 152:../../core/ST/Middlewares/Third_Party/FreeRTOS/Source/portable/GCC/ARM_CM4F/portmacro.h **** 
 153:../../core/ST/Middlewares/Third_Party/FreeRTOS/Source/portable/GCC/ARM_CM4F/portmacro.h **** /*-----------------------------------------------------------*/
 154:../../core/ST/Middlewares/Third_Party/FreeRTOS/Source/portable/GCC/ARM_CM4F/portmacro.h **** 
 155:../../core/ST/Middlewares/Third_Party/FreeRTOS/Source/portable/GCC/ARM_CM4F/portmacro.h **** #ifdef configASSERT
 156:../../core/ST/Middlewares/Third_Party/FreeRTOS/Source/portable/GCC/ARM_CM4F/portmacro.h **** 	void vPortValidateInterruptPriority( void );
 157:../../core/ST/Middlewares/Third_Party/FreeRTOS/Source/portable/GCC/ARM_CM4F/portmacro.h **** 	#define portASSERT_IF_INTERRUPT_PRIORITY_INVALID() 	vPortValidateInterruptPriority()
 158:../../core/ST/Middlewares/Third_Party/FreeRTOS/Source/portable/GCC/ARM_CM4F/portmacro.h **** #endif
 159:../../core/ST/Middlewares/Third_Party/FreeRTOS/Source/portable/GCC/ARM_CM4F/portmacro.h **** 
 160:../../core/ST/Middlewares/Third_Party/FreeRTOS/Source/portable/GCC/ARM_CM4F/portmacro.h **** /* portNOP() is not required by this port. */
 161:../../core/ST/Middlewares/Third_Party/FreeRTOS/Source/portable/GCC/ARM_CM4F/portmacro.h **** #define portNOP()
 162:../../core/ST/Middlewares/Third_Party/FreeRTOS/Source/portable/GCC/ARM_CM4F/portmacro.h **** 
 163:../../core/ST/Middlewares/Third_Party/FreeRTOS/Source/portable/GCC/ARM_CM4F/portmacro.h **** #define portINLINE	__inline
 164:../../core/ST/Middlewares/Third_Party/FreeRTOS/Source/portable/GCC/ARM_CM4F/portmacro.h **** 
 165:../../core/ST/Middlewares/Third_Party/FreeRTOS/Source/portable/GCC/ARM_CM4F/portmacro.h **** #ifndef portFORCE_INLINE
 166:../../core/ST/Middlewares/Third_Party/FreeRTOS/Source/portable/GCC/ARM_CM4F/portmacro.h **** 	#define portFORCE_INLINE inline __attribute__(( always_inline))
 167:../../core/ST/Middlewares/Third_Party/FreeRTOS/Source/portable/GCC/ARM_CM4F/portmacro.h **** #endif
 168:../../core/ST/Middlewares/Third_Party/FreeRTOS/Source/portable/GCC/ARM_CM4F/portmacro.h **** 
 169:../../core/ST/Middlewares/Third_Party/FreeRTOS/Source/portable/GCC/ARM_CM4F/portmacro.h **** portFORCE_INLINE static BaseType_t xPortIsInsideInterrupt( void )
 170:../../core/ST/Middlewares/Third_Party/FreeRTOS/Source/portable/GCC/ARM_CM4F/portmacro.h **** {
 171:../../core/ST/Middlewares/Third_Party/FreeRTOS/Source/portable/GCC/ARM_CM4F/portmacro.h **** uint32_t ulCurrentInterrupt;
 172:../../core/ST/Middlewares/Third_Party/FreeRTOS/Source/portable/GCC/ARM_CM4F/portmacro.h **** BaseType_t xReturn;
 173:../../core/ST/Middlewares/Third_Party/FreeRTOS/Source/portable/GCC/ARM_CM4F/portmacro.h **** 
 174:../../core/ST/Middlewares/Third_Party/FreeRTOS/Source/portable/GCC/ARM_CM4F/portmacro.h **** 	/* Obtain the number of the currently executing interrupt. */
 175:../../core/ST/Middlewares/Third_Party/FreeRTOS/Source/portable/GCC/ARM_CM4F/portmacro.h **** 	__asm volatile( "mrs %0, ipsr" : "=r"( ulCurrentInterrupt ) :: "memory" );
 176:../../core/ST/Middlewares/Third_Party/FreeRTOS/Source/portable/GCC/ARM_CM4F/portmacro.h **** 
 177:../../core/ST/Middlewares/Third_Party/FreeRTOS/Source/portable/GCC/ARM_CM4F/portmacro.h **** 	if( ulCurrentInterrupt == 0 )
 178:../../core/ST/Middlewares/Third_Party/FreeRTOS/Source/portable/GCC/ARM_CM4F/portmacro.h **** 	{
 179:../../core/ST/Middlewares/Third_Party/FreeRTOS/Source/portable/GCC/ARM_CM4F/portmacro.h **** 		xReturn = pdFALSE;
 180:../../core/ST/Middlewares/Third_Party/FreeRTOS/Source/portable/GCC/ARM_CM4F/portmacro.h **** 	}
 181:../../core/ST/Middlewares/Third_Party/FreeRTOS/Source/portable/GCC/ARM_CM4F/portmacro.h **** 	else
 182:../../core/ST/Middlewares/Third_Party/FreeRTOS/Source/portable/GCC/ARM_CM4F/portmacro.h **** 	{
 183:../../core/ST/Middlewares/Third_Party/FreeRTOS/Source/portable/GCC/ARM_CM4F/portmacro.h **** 		xReturn = pdTRUE;
 184:../../core/ST/Middlewares/Third_Party/FreeRTOS/Source/portable/GCC/ARM_CM4F/portmacro.h **** 	}
 185:../../core/ST/Middlewares/Third_Party/FreeRTOS/Source/portable/GCC/ARM_CM4F/portmacro.h **** 
 186:../../core/ST/Middlewares/Third_Party/FreeRTOS/Source/portable/GCC/ARM_CM4F/portmacro.h **** 	return xReturn;
 187:../../core/ST/Middlewares/Third_Party/FreeRTOS/Source/portable/GCC/ARM_CM4F/portmacro.h **** }
 188:../../core/ST/Middlewares/Third_Party/FreeRTOS/Source/portable/GCC/ARM_CM4F/portmacro.h **** 
 189:../../core/ST/Middlewares/Third_Party/FreeRTOS/Source/portable/GCC/ARM_CM4F/portmacro.h **** /*-----------------------------------------------------------*/
 190:../../core/ST/Middlewares/Third_Party/FreeRTOS/Source/portable/GCC/ARM_CM4F/portmacro.h **** 
 191:../../core/ST/Middlewares/Third_Party/FreeRTOS/Source/portable/GCC/ARM_CM4F/portmacro.h **** portFORCE_INLINE static void vPortRaiseBASEPRI( void )
 192:../../core/ST/Middlewares/Third_Party/FreeRTOS/Source/portable/GCC/ARM_CM4F/portmacro.h **** {
 193:../../core/ST/Middlewares/Third_Party/FreeRTOS/Source/portable/GCC/ARM_CM4F/portmacro.h **** uint32_t ulNewBASEPRI;
 194:../../core/ST/Middlewares/Third_Party/FreeRTOS/Source/portable/GCC/ARM_CM4F/portmacro.h **** 
 195:../../core/ST/Middlewares/Third_Party/FreeRTOS/Source/portable/GCC/ARM_CM4F/portmacro.h **** 	__asm volatile
 269              		.loc 2 195 0
 270              		.syntax unified
 271              	@ 195 "../../core/ST/Middlewares/Third_Party/FreeRTOS/Source/portable/GCC/ARM_CM4F/portmacro.h" 1
 272 002c 4FF01003 			mov r3, #16												
 273 0030 83F31188 		msr basepri, r3											
ARM GAS  /tmp/ccJOP78g.s 			page 17


 274 0034 BFF36F8F 		isb														
 275 0038 BFF34F8F 		dsb														
 276              	
 277              	@ 0 "" 2
 278              	.LVL29:
 279              		.thumb
 280              		.syntax unified
 281              	.L21:
 282 003c FEE7     		b	.L21
 283              	.L36:
 284              	.LBE13:
 285              	.LBE12:
 124:../../core/ST/Middlewares/Third_Party/FreeRTOS/Source/portable/MemMang/heap_4.c **** 		}
 286              		.loc 1 124 0
 287 003e FFF7FEFF 		bl	prvHeapInit
 288              	.LVL30:
 289 0042 E4E7     		b	.L18
 290              	.L20:
 161:../../core/ST/Middlewares/Third_Party/FreeRTOS/Source/portable/MemMang/heap_4.c **** 			{
 291              		.loc 1 161 0
 292 0044 002C     		cmp	r4, #0
 293 0046 4CD0     		beq	.L31
 161:../../core/ST/Middlewares/Third_Party/FreeRTOS/Source/portable/MemMang/heap_4.c **** 			{
 294              		.loc 1 161 0 is_stmt 0 discriminator 1
 295 0048 2C4B     		ldr	r3, .L37+8
 296 004a 1B68     		ldr	r3, [r3]
 297 004c A342     		cmp	r3, r4
 298 004e 4AD3     		bcc	.L32
 299              	.LVL31:
 166:../../core/ST/Middlewares/Third_Party/FreeRTOS/Source/portable/MemMang/heap_4.c **** 				while( ( pxBlock->xBlockSize < xWantedSize ) && ( pxBlock->pxNextFreeBlock != NULL ) )
 300              		.loc 1 166 0 is_stmt 1
 301 0050 2B4B     		ldr	r3, .L37+12
 302 0052 1D68     		ldr	r5, [r3]
 303              	.LVL32:
 167:../../core/ST/Middlewares/Third_Party/FreeRTOS/Source/portable/MemMang/heap_4.c **** 				{
 304              		.loc 1 167 0
 305 0054 01E0     		b	.L23
 306              	.LVL33:
 307              	.L33:
 169:../../core/ST/Middlewares/Third_Party/FreeRTOS/Source/portable/MemMang/heap_4.c **** 					pxBlock = pxBlock->pxNextFreeBlock;
 308              		.loc 1 169 0
 309 0056 2B46     		mov	r3, r5
 310              	.LVL34:
 170:../../core/ST/Middlewares/Third_Party/FreeRTOS/Source/portable/MemMang/heap_4.c **** 				}
 311              		.loc 1 170 0
 312 0058 1546     		mov	r5, r2
 313              	.LVL35:
 314              	.L23:
 167:../../core/ST/Middlewares/Third_Party/FreeRTOS/Source/portable/MemMang/heap_4.c **** 				{
 315              		.loc 1 167 0
 316 005a 6A68     		ldr	r2, [r5, #4]
 317 005c A242     		cmp	r2, r4
 318 005e 02D2     		bcs	.L22
 167:../../core/ST/Middlewares/Third_Party/FreeRTOS/Source/portable/MemMang/heap_4.c **** 				{
 319              		.loc 1 167 0 is_stmt 0 discriminator 1
 320 0060 2A68     		ldr	r2, [r5]
 321 0062 002A     		cmp	r2, #0
ARM GAS  /tmp/ccJOP78g.s 			page 18


 322 0064 F7D1     		bne	.L33
 323              	.L22:
 175:../../core/ST/Middlewares/Third_Party/FreeRTOS/Source/portable/MemMang/heap_4.c **** 				{
 324              		.loc 1 175 0 is_stmt 1
 325 0066 234A     		ldr	r2, .L37
 326 0068 1268     		ldr	r2, [r2]
 327 006a AA42     		cmp	r2, r5
 328 006c 3DD0     		beq	.L34
 179:../../core/ST/Middlewares/Third_Party/FreeRTOS/Source/portable/MemMang/heap_4.c **** 
 329              		.loc 1 179 0
 330 006e 1E68     		ldr	r6, [r3]
 331 0070 0836     		adds	r6, r6, #8
 332              	.LVL36:
 183:../../core/ST/Middlewares/Third_Party/FreeRTOS/Source/portable/MemMang/heap_4.c **** 
 333              		.loc 1 183 0
 334 0072 2A68     		ldr	r2, [r5]
 335 0074 1A60     		str	r2, [r3]
 187:../../core/ST/Middlewares/Third_Party/FreeRTOS/Source/portable/MemMang/heap_4.c **** 					{
 336              		.loc 1 187 0
 337 0076 6B68     		ldr	r3, [r5, #4]
 338              	.LVL37:
 339 0078 1B1B     		subs	r3, r3, r4
 340 007a 102B     		cmp	r3, #16
 341 007c 10D9     		bls	.L24
 193:../../core/ST/Middlewares/Third_Party/FreeRTOS/Source/portable/MemMang/heap_4.c **** 						configASSERT( ( ( ( size_t ) pxNewBlockLink ) & portBYTE_ALIGNMENT_MASK ) == 0 );
 342              		.loc 1 193 0
 343 007e 2819     		adds	r0, r5, r4
 344              	.LVL38:
 194:../../core/ST/Middlewares/Third_Party/FreeRTOS/Source/portable/MemMang/heap_4.c **** 
 345              		.loc 1 194 0
 346 0080 10F0070F 		tst	r0, #7
 347 0084 08D0     		beq	.L25
 348              	.LBB14:
 349              	.LBB15:
 350              		.loc 2 195 0
 351              		.syntax unified
 352              	@ 195 "../../core/ST/Middlewares/Third_Party/FreeRTOS/Source/portable/GCC/ARM_CM4F/portmacro.h" 1
 353 0086 4FF01003 			mov r3, #16												
 354 008a 83F31188 		msr basepri, r3											
 355 008e BFF36F8F 		isb														
 356 0092 BFF34F8F 		dsb														
 357              	
 358              	@ 0 "" 2
 359              	.LVL39:
 360              		.thumb
 361              		.syntax unified
 362              	.L26:
 363 0096 FEE7     		b	.L26
 364              	.L25:
 365              	.LBE15:
 366              	.LBE14:
 198:../../core/ST/Middlewares/Third_Party/FreeRTOS/Source/portable/MemMang/heap_4.c **** 						pxBlock->xBlockSize = xWantedSize;
 367              		.loc 1 198 0
 368 0098 4360     		str	r3, [r0, #4]
 199:../../core/ST/Middlewares/Third_Party/FreeRTOS/Source/portable/MemMang/heap_4.c **** 
 369              		.loc 1 199 0
 370 009a 6C60     		str	r4, [r5, #4]
ARM GAS  /tmp/ccJOP78g.s 			page 19


 202:../../core/ST/Middlewares/Third_Party/FreeRTOS/Source/portable/MemMang/heap_4.c **** 					}
 371              		.loc 1 202 0
 372 009c FFF7FEFF 		bl	prvInsertBlockIntoFreeList
 373              	.LVL40:
 374              	.L24:
 209:../../core/ST/Middlewares/Third_Party/FreeRTOS/Source/portable/MemMang/heap_4.c **** 
 375              		.loc 1 209 0
 376 00a0 6A68     		ldr	r2, [r5, #4]
 377 00a2 1649     		ldr	r1, .L37+8
 378 00a4 0B68     		ldr	r3, [r1]
 379 00a6 9B1A     		subs	r3, r3, r2
 380 00a8 0B60     		str	r3, [r1]
 211:../../core/ST/Middlewares/Third_Party/FreeRTOS/Source/portable/MemMang/heap_4.c **** 					{
 381              		.loc 1 211 0
 382 00aa 1649     		ldr	r1, .L37+16
 383 00ac 0968     		ldr	r1, [r1]
 384 00ae 8B42     		cmp	r3, r1
 385 00b0 01D2     		bcs	.L27
 213:../../core/ST/Middlewares/Third_Party/FreeRTOS/Source/portable/MemMang/heap_4.c **** 					}
 386              		.loc 1 213 0
 387 00b2 1449     		ldr	r1, .L37+16
 388 00b4 0B60     		str	r3, [r1]
 389              	.L27:
 222:../../core/ST/Middlewares/Third_Party/FreeRTOS/Source/portable/MemMang/heap_4.c **** 					pxBlock->pxNextFreeBlock = NULL;
 390              		.loc 1 222 0
 391 00b6 104B     		ldr	r3, .L37+4
 392 00b8 1B68     		ldr	r3, [r3]
 393 00ba 1343     		orrs	r3, r3, r2
 394 00bc 6B60     		str	r3, [r5, #4]
 223:../../core/ST/Middlewares/Third_Party/FreeRTOS/Source/portable/MemMang/heap_4.c **** 				}
 395              		.loc 1 223 0
 396 00be 0023     		movs	r3, #0
 397 00c0 2B60     		str	r3, [r5]
 398              	.LVL41:
 399              	.L19:
 242:../../core/ST/Middlewares/Third_Party/FreeRTOS/Source/portable/MemMang/heap_4.c **** 
 400              		.loc 1 242 0
 401 00c2 FFF7FEFF 		bl	xTaskResumeAll
 402              	.LVL42:
 258:../../core/ST/Middlewares/Third_Party/FreeRTOS/Source/portable/MemMang/heap_4.c **** 	return pvReturn;
 403              		.loc 1 258 0
 404 00c6 16F0070F 		tst	r6, #7
 405 00ca 10D0     		beq	.L17
 406              	.LBB16:
 407              	.LBB17:
 408              		.loc 2 195 0
 409              		.syntax unified
 410              	@ 195 "../../core/ST/Middlewares/Third_Party/FreeRTOS/Source/portable/GCC/ARM_CM4F/portmacro.h" 1
 411 00cc 4FF01003 			mov r3, #16												
 412 00d0 83F31188 		msr basepri, r3											
 413 00d4 BFF36F8F 		isb														
 414 00d8 BFF34F8F 		dsb														
 415              	
 416              	@ 0 "" 2
 417              	.LVL43:
 418              		.thumb
 419              		.syntax unified
ARM GAS  /tmp/ccJOP78g.s 			page 20


 420              	.L29:
 421 00dc FEE7     		b	.L29
 422              	.LVL44:
 423              	.L30:
 424              	.LBE17:
 425              	.LBE16:
 116:../../core/ST/Middlewares/Third_Party/FreeRTOS/Source/portable/MemMang/heap_4.c **** 
 426              		.loc 1 116 0
 427 00de 0026     		movs	r6, #0
 428 00e0 EFE7     		b	.L19
 429              	.L31:
 430 00e2 0026     		movs	r6, #0
 431 00e4 EDE7     		b	.L19
 432              	.L32:
 433 00e6 0026     		movs	r6, #0
 434 00e8 EBE7     		b	.L19
 435              	.LVL45:
 436              	.L34:
 437 00ea 0026     		movs	r6, #0
 438 00ec E9E7     		b	.L19
 439              	.LVL46:
 440              	.L17:
 260:../../core/ST/Middlewares/Third_Party/FreeRTOS/Source/portable/MemMang/heap_4.c **** /*-----------------------------------------------------------*/
 441              		.loc 1 260 0
 442 00ee 3046     		mov	r0, r6
 443 00f0 70BD     		pop	{r4, r5, r6, pc}
 444              	.LVL47:
 445              	.L38:
 446 00f2 00BF     		.align	2
 447              	.L37:
 448 00f4 00000000 		.word	.LANCHOR1
 449 00f8 00000000 		.word	.LANCHOR4
 450 00fc 00000000 		.word	.LANCHOR3
 451 0100 00000000 		.word	.LANCHOR0
 452 0104 00000000 		.word	.LANCHOR2
 453              		.cfi_endproc
 454              	.LFE5:
 456              		.section	.text.vPortFree,"ax",%progbits
 457              		.align	1
 458              		.global	vPortFree
 459              		.syntax unified
 460              		.thumb
 461              		.thumb_func
 462              		.fpu fpv4-sp-d16
 464              	vPortFree:
 465              	.LFB6:
 264:../../core/ST/Middlewares/Third_Party/FreeRTOS/Source/portable/MemMang/heap_4.c **** uint8_t *puc = ( uint8_t * ) pv;
 466              		.loc 1 264 0
 467              		.cfi_startproc
 468              		@ args = 0, pretend = 0, frame = 0
 469              		@ frame_needed = 0, uses_anonymous_args = 0
 470              	.LVL48:
 268:../../core/ST/Middlewares/Third_Party/FreeRTOS/Source/portable/MemMang/heap_4.c **** 	{
 471              		.loc 1 268 0
 472 0000 80B3     		cbz	r0, .L46
 264:../../core/ST/Middlewares/Third_Party/FreeRTOS/Source/portable/MemMang/heap_4.c **** uint8_t *puc = ( uint8_t * ) pv;
 473              		.loc 1 264 0
ARM GAS  /tmp/ccJOP78g.s 			page 21


 474 0002 38B5     		push	{r3, r4, r5, lr}
 475              	.LCFI4:
 476              		.cfi_def_cfa_offset 16
 477              		.cfi_offset 3, -16
 478              		.cfi_offset 4, -12
 479              		.cfi_offset 5, -8
 480              		.cfi_offset 14, -4
 481 0004 0446     		mov	r4, r0
 272:../../core/ST/Middlewares/Third_Party/FreeRTOS/Source/portable/MemMang/heap_4.c **** 
 482              		.loc 1 272 0
 483 0006 A0F10805 		sub	r5, r0, #8
 484              	.LVL49:
 278:../../core/ST/Middlewares/Third_Party/FreeRTOS/Source/portable/MemMang/heap_4.c **** 		configASSERT( pxLink->pxNextFreeBlock == NULL );
 485              		.loc 1 278 0
 486 000a 50F8042C 		ldr	r2, [r0, #-4]
 487 000e 1649     		ldr	r1, .L49
 488 0010 0968     		ldr	r1, [r1]
 489 0012 0A42     		tst	r2, r1
 490 0014 08D1     		bne	.L41
 491              	.LBB18:
 492              	.LBB19:
 493              		.loc 2 195 0
 494              		.syntax unified
 495              	@ 195 "../../core/ST/Middlewares/Third_Party/FreeRTOS/Source/portable/GCC/ARM_CM4F/portmacro.h" 1
 496 0016 4FF01003 			mov r3, #16												
 497 001a 83F31188 		msr basepri, r3											
 498 001e BFF36F8F 		isb														
 499 0022 BFF34F8F 		dsb														
 500              	
 501              	@ 0 "" 2
 502              	.LVL50:
 503              		.thumb
 504              		.syntax unified
 505              	.L42:
 506 0026 FEE7     		b	.L42
 507              	.L41:
 508              	.LBE19:
 509              	.LBE18:
 279:../../core/ST/Middlewares/Third_Party/FreeRTOS/Source/portable/MemMang/heap_4.c **** 
 510              		.loc 1 279 0
 511 0028 50F8080C 		ldr	r0, [r0, #-8]
 512              	.LVL51:
 513 002c 40B1     		cbz	r0, .L43
 514              	.LBB20:
 515              	.LBB21:
 516              		.loc 2 195 0
 517              		.syntax unified
 518              	@ 195 "../../core/ST/Middlewares/Third_Party/FreeRTOS/Source/portable/GCC/ARM_CM4F/portmacro.h" 1
 519 002e 4FF01003 			mov r3, #16												
 520 0032 83F31188 		msr basepri, r3											
 521 0036 BFF36F8F 		isb														
 522 003a BFF34F8F 		dsb														
 523              	
 524              	@ 0 "" 2
 525              	.LVL52:
 526              		.thumb
 527              		.syntax unified
ARM GAS  /tmp/ccJOP78g.s 			page 22


 528              	.L44:
 529 003e FEE7     		b	.L44
 530              	.L43:
 531              	.LBE21:
 532              	.LBE20:
 287:../../core/ST/Middlewares/Third_Party/FreeRTOS/Source/portable/MemMang/heap_4.c **** 
 533              		.loc 1 287 0
 534 0040 22EA0102 		bic	r2, r2, r1
 535 0044 44F8042C 		str	r2, [r4, #-4]
 289:../../core/ST/Middlewares/Third_Party/FreeRTOS/Source/portable/MemMang/heap_4.c **** 				{
 536              		.loc 1 289 0
 537 0048 FFF7FEFF 		bl	vTaskSuspendAll
 538              	.LVL53:
 292:../../core/ST/Middlewares/Third_Party/FreeRTOS/Source/portable/MemMang/heap_4.c **** 					traceFREE( pv, pxLink->xBlockSize );
 539              		.loc 1 292 0
 540 004c 54F8041C 		ldr	r1, [r4, #-4]
 541 0050 064A     		ldr	r2, .L49+4
 542 0052 1368     		ldr	r3, [r2]
 543 0054 0B44     		add	r3, r3, r1
 544 0056 1360     		str	r3, [r2]
 294:../../core/ST/Middlewares/Third_Party/FreeRTOS/Source/portable/MemMang/heap_4.c **** 				}
 545              		.loc 1 294 0
 546 0058 2846     		mov	r0, r5
 547 005a FFF7FEFF 		bl	prvInsertBlockIntoFreeList
 548              	.LVL54:
 296:../../core/ST/Middlewares/Third_Party/FreeRTOS/Source/portable/MemMang/heap_4.c **** 			}
 549              		.loc 1 296 0
 550 005e FFF7FEFF 		bl	xTaskResumeAll
 551              	.LVL55:
 308:../../core/ST/Middlewares/Third_Party/FreeRTOS/Source/portable/MemMang/heap_4.c **** /*-----------------------------------------------------------*/
 552              		.loc 1 308 0
 553 0062 38BD     		pop	{r3, r4, r5, pc}
 554              	.LVL56:
 555              	.L46:
 556              	.LCFI5:
 557              		.cfi_def_cfa_offset 0
 558              		.cfi_restore 3
 559              		.cfi_restore 4
 560              		.cfi_restore 5
 561              		.cfi_restore 14
 562 0064 7047     		bx	lr
 563              	.L50:
 564 0066 00BF     		.align	2
 565              	.L49:
 566 0068 00000000 		.word	.LANCHOR4
 567 006c 00000000 		.word	.LANCHOR3
 568              		.cfi_endproc
 569              	.LFE6:
 571              		.section	.text.xPortGetFreeHeapSize,"ax",%progbits
 572              		.align	1
 573              		.global	xPortGetFreeHeapSize
 574              		.syntax unified
 575              		.thumb
 576              		.thumb_func
 577              		.fpu fpv4-sp-d16
 579              	xPortGetFreeHeapSize:
 580              	.LFB7:
ARM GAS  /tmp/ccJOP78g.s 			page 23


 312:../../core/ST/Middlewares/Third_Party/FreeRTOS/Source/portable/MemMang/heap_4.c **** 	return xFreeBytesRemaining;
 581              		.loc 1 312 0
 582              		.cfi_startproc
 583              		@ args = 0, pretend = 0, frame = 0
 584              		@ frame_needed = 0, uses_anonymous_args = 0
 585              		@ link register save eliminated.
 314:../../core/ST/Middlewares/Third_Party/FreeRTOS/Source/portable/MemMang/heap_4.c **** /*-----------------------------------------------------------*/
 586              		.loc 1 314 0
 587 0000 014B     		ldr	r3, .L52
 588 0002 1868     		ldr	r0, [r3]
 589 0004 7047     		bx	lr
 590              	.L53:
 591 0006 00BF     		.align	2
 592              	.L52:
 593 0008 00000000 		.word	.LANCHOR3
 594              		.cfi_endproc
 595              	.LFE7:
 597              		.section	.text.xPortGetMinimumEverFreeHeapSize,"ax",%progbits
 598              		.align	1
 599              		.global	xPortGetMinimumEverFreeHeapSize
 600              		.syntax unified
 601              		.thumb
 602              		.thumb_func
 603              		.fpu fpv4-sp-d16
 605              	xPortGetMinimumEverFreeHeapSize:
 606              	.LFB8:
 318:../../core/ST/Middlewares/Third_Party/FreeRTOS/Source/portable/MemMang/heap_4.c **** 	return xMinimumEverFreeBytesRemaining;
 607              		.loc 1 318 0
 608              		.cfi_startproc
 609              		@ args = 0, pretend = 0, frame = 0
 610              		@ frame_needed = 0, uses_anonymous_args = 0
 611              		@ link register save eliminated.
 320:../../core/ST/Middlewares/Third_Party/FreeRTOS/Source/portable/MemMang/heap_4.c **** /*-----------------------------------------------------------*/
 612              		.loc 1 320 0
 613 0000 014B     		ldr	r3, .L55
 614 0002 1868     		ldr	r0, [r3]
 615 0004 7047     		bx	lr
 616              	.L56:
 617 0006 00BF     		.align	2
 618              	.L55:
 619 0008 00000000 		.word	.LANCHOR2
 620              		.cfi_endproc
 621              	.LFE8:
 623              		.section	.text.vPortInitialiseBlocks,"ax",%progbits
 624              		.align	1
 625              		.global	vPortInitialiseBlocks
 626              		.syntax unified
 627              		.thumb
 628              		.thumb_func
 629              		.fpu fpv4-sp-d16
 631              	vPortInitialiseBlocks:
 632              	.LFB9:
 324:../../core/ST/Middlewares/Third_Party/FreeRTOS/Source/portable/MemMang/heap_4.c **** 	/* This just exists to keep the linker quiet. */
 633              		.loc 1 324 0
 634              		.cfi_startproc
 635              		@ args = 0, pretend = 0, frame = 0
 636              		@ frame_needed = 0, uses_anonymous_args = 0
ARM GAS  /tmp/ccJOP78g.s 			page 24


 637              		@ link register save eliminated.
 326:../../core/ST/Middlewares/Third_Party/FreeRTOS/Source/portable/MemMang/heap_4.c **** /*-----------------------------------------------------------*/
 638              		.loc 1 326 0
 639 0000 7047     		bx	lr
 640              		.cfi_endproc
 641              	.LFE9:
 643              		.section	.bss.pxEnd,"aw",%nobits
 644              		.align	2
 645              		.set	.LANCHOR1,. + 0
 648              	pxEnd:
 649 0000 00000000 		.space	4
 650              		.section	.bss.ucHeap,"aw",%nobits
 651              		.align	2
 654              	ucHeap:
 655 0000 00000000 		.space	147456
 655      00000000 
 655      00000000 
 655      00000000 
 655      00000000 
 656              		.section	.bss.xBlockAllocatedBit,"aw",%nobits
 657              		.align	2
 658              		.set	.LANCHOR4,. + 0
 661              	xBlockAllocatedBit:
 662 0000 00000000 		.space	4
 663              		.section	.bss.xFreeBytesRemaining,"aw",%nobits
 664              		.align	2
 665              		.set	.LANCHOR3,. + 0
 668              	xFreeBytesRemaining:
 669 0000 00000000 		.space	4
 670              		.section	.bss.xMinimumEverFreeBytesRemaining,"aw",%nobits
 671              		.align	2
 672              		.set	.LANCHOR2,. + 0
 675              	xMinimumEverFreeBytesRemaining:
 676 0000 00000000 		.space	4
 677              		.section	.bss.xStart,"aw",%nobits
 678              		.align	2
 679              		.set	.LANCHOR0,. + 0
 682              	xStart:
 683 0000 00000000 		.space	8
 683      00000000 
 684              		.text
 685              	.Letext0:
 686              		.file 3 "/home/mats/gcc-arm-none-eabi-7-2018-q2-update/lib/gcc/arm-none-eabi/7.3.1/include/stddef.
 687              		.file 4 "/home/mats/gcc-arm-none-eabi-7-2018-q2-update/arm-none-eabi/include/machine/_default_type
 688              		.file 5 "/home/mats/gcc-arm-none-eabi-7-2018-q2-update/arm-none-eabi/include/sys/lock.h"
 689              		.file 6 "/home/mats/gcc-arm-none-eabi-7-2018-q2-update/arm-none-eabi/include/sys/_types.h"
 690              		.file 7 "/home/mats/gcc-arm-none-eabi-7-2018-q2-update/arm-none-eabi/include/sys/reent.h"
 691              		.file 8 "/home/mats/gcc-arm-none-eabi-7-2018-q2-update/arm-none-eabi/include/stdlib.h"
 692              		.file 9 "/home/mats/gcc-arm-none-eabi-7-2018-q2-update/arm-none-eabi/include/sys/_stdint.h"
 693              		.file 10 "../../core/platform/octa/inc/FreeRTOSConfig.h"
 694              		.file 11 "../../core/ST/Middlewares/Third_Party/FreeRTOS/Source/include/task.h"
ARM GAS  /tmp/ccJOP78g.s 			page 25

