ARM GAS  /tmp/ccdttWaD.s 			page 1


   1              		.cpu cortex-m4
   2              		.eabi_attribute 27, 1
   3              		.eabi_attribute 28, 1
   4              		.eabi_attribute 20, 1
   5              		.eabi_attribute 21, 1
   6              		.eabi_attribute 23, 3
   7              		.eabi_attribute 24, 1
   8              		.eabi_attribute 25, 1
   9              		.eabi_attribute 26, 1
  10              		.eabi_attribute 30, 1
  11              		.eabi_attribute 34, 1
  12              		.eabi_attribute 18, 4
  13              		.file	"octa-flash-example.c"
  14              		.text
  15              	.Ltext0:
  16              		.cfi_sections	.debug_frame
  17              		.section	.text.printWelcome,"ax",%progbits
  18              		.align	1
  19              		.global	printWelcome
  20              		.syntax unified
  21              		.thumb
  22              		.thumb_func
  23              		.fpu fpv4-sp-d16
  25              	printWelcome:
  26              	.LFB129:
  27              		.file 1 "../../applications/octa-flash-example/src/octa-flash-example.c"
   1:../../applications/octa-flash-example/src/octa-flash-example.c **** /* USER CODE BEGIN Header */
   2:../../applications/octa-flash-example/src/octa-flash-example.c **** /**
   3:../../applications/octa-flash-example/src/octa-flash-example.c ****   ******************************************************************************
   4:../../applications/octa-flash-example/src/octa-flash-example.c ****   * @file           : main.c
   5:../../applications/octa-flash-example/src/octa-flash-example.c ****   * @brief          : Main program body
   6:../../applications/octa-flash-example/src/octa-flash-example.c ****   ******************************************************************************
   7:../../applications/octa-flash-example/src/octa-flash-example.c ****   * This notice applies to any and all portions of this file
   8:../../applications/octa-flash-example/src/octa-flash-example.c ****   * that are not between comment pairs USER CODE BEGIN and
   9:../../applications/octa-flash-example/src/octa-flash-example.c ****   * USER CODE END. Other portions of this file, whether 
  10:../../applications/octa-flash-example/src/octa-flash-example.c ****   * inserted by the user or by software development tools
  11:../../applications/octa-flash-example/src/octa-flash-example.c ****   * are owned by their respective copyright owners.
  12:../../applications/octa-flash-example/src/octa-flash-example.c ****   *
  13:../../applications/octa-flash-example/src/octa-flash-example.c ****   * Copyright (c) 2019 STMicroelectronics International N.V. 
  14:../../applications/octa-flash-example/src/octa-flash-example.c ****   * All rights reserved.
  15:../../applications/octa-flash-example/src/octa-flash-example.c ****   *
  16:../../applications/octa-flash-example/src/octa-flash-example.c ****   * Redistribution and use in source and binary forms, with or without 
  17:../../applications/octa-flash-example/src/octa-flash-example.c ****   * modification, are permitted, provided that the following conditions are met:
  18:../../applications/octa-flash-example/src/octa-flash-example.c ****   *
  19:../../applications/octa-flash-example/src/octa-flash-example.c ****   * 1. Redistribution of source code must retain the above copyright notice, 
  20:../../applications/octa-flash-example/src/octa-flash-example.c ****   *    this list of conditions and the following disclaimer.
  21:../../applications/octa-flash-example/src/octa-flash-example.c ****   * 2. Redistributions in binary form must reproduce the above copyright notice,
  22:../../applications/octa-flash-example/src/octa-flash-example.c ****   *    this list of conditions and the following disclaimer in the documentation
  23:../../applications/octa-flash-example/src/octa-flash-example.c ****   *    and/or other materials provided with the distribution.
  24:../../applications/octa-flash-example/src/octa-flash-example.c ****   * 3. Neither the name of STMicroelectronics nor the names of other 
  25:../../applications/octa-flash-example/src/octa-flash-example.c ****   *    contributors to this software may be used to endorse or promote products 
  26:../../applications/octa-flash-example/src/octa-flash-example.c ****   *    derived from this software without specific written permission.
  27:../../applications/octa-flash-example/src/octa-flash-example.c ****   * 4. This software, including modifications and/or derivative works of this 
  28:../../applications/octa-flash-example/src/octa-flash-example.c ****   *    software, must execute solely and exclusively on microcontroller or
  29:../../applications/octa-flash-example/src/octa-flash-example.c ****   *    microprocessor devices manufactured by or for STMicroelectronics.
  30:../../applications/octa-flash-example/src/octa-flash-example.c ****   * 5. Redistribution and use of this software other than as permitted under 
  31:../../applications/octa-flash-example/src/octa-flash-example.c ****   *    this license is void and will automatically terminate your rights under 
ARM GAS  /tmp/ccdttWaD.s 			page 2


  32:../../applications/octa-flash-example/src/octa-flash-example.c ****   *    this license. 
  33:../../applications/octa-flash-example/src/octa-flash-example.c ****   *
  34:../../applications/octa-flash-example/src/octa-flash-example.c ****   * THIS SOFTWARE IS PROVIDED BY STMICROELECTRONICS AND CONTRIBUTORS "AS IS" 
  35:../../applications/octa-flash-example/src/octa-flash-example.c ****   * AND ANY EXPRESS, IMPLIED OR STATUTORY WARRANTIES, INCLUDING, BUT NOT 
  36:../../applications/octa-flash-example/src/octa-flash-example.c ****   * LIMITED TO, THE IMPLIED WARRANTIES OF MERCHANTABILITY, FITNESS FOR A 
  37:../../applications/octa-flash-example/src/octa-flash-example.c ****   * PARTICULAR PURPOSE AND NON-INFRINGEMENT OF THIRD PARTY INTELLECTUAL PROPERTY
  38:../../applications/octa-flash-example/src/octa-flash-example.c ****   * RIGHTS ARE DISCLAIMED TO THE FULLEST EXTENT PERMITTED BY LAW. IN NO EVENT 
  39:../../applications/octa-flash-example/src/octa-flash-example.c ****   * SHALL STMICROELECTRONICS OR CONTRIBUTORS BE LIABLE FOR ANY DIRECT, INDIRECT,
  40:../../applications/octa-flash-example/src/octa-flash-example.c ****   * INCIDENTAL, SPECIAL, EXEMPLARY, OR CONSEQUENTIAL DAMAGES (INCLUDING, BUT NOT
  41:../../applications/octa-flash-example/src/octa-flash-example.c ****   * LIMITED TO, PROCUREMENT OF SUBSTITUTE GOODS OR SERVICES; LOSS OF USE, DATA, 
  42:../../applications/octa-flash-example/src/octa-flash-example.c ****   * OR PROFITS; OR BUSINESS INTERRUPTION) HOWEVER CAUSED AND ON ANY THEORY OF 
  43:../../applications/octa-flash-example/src/octa-flash-example.c ****   * LIABILITY, WHETHER IN CONTRACT, STRICT LIABILITY, OR TORT (INCLUDING 
  44:../../applications/octa-flash-example/src/octa-flash-example.c ****   * NEGLIGENCE OR OTHERWISE) ARISING IN ANY WAY OUT OF THE USE OF THIS SOFTWARE,
  45:../../applications/octa-flash-example/src/octa-flash-example.c ****   * EVEN IF ADVISED OF THE POSSIBILITY OF SUCH DAMAGE.
  46:../../applications/octa-flash-example/src/octa-flash-example.c ****   *
  47:../../applications/octa-flash-example/src/octa-flash-example.c ****   ******************************************************************************
  48:../../applications/octa-flash-example/src/octa-flash-example.c ****   */
  49:../../applications/octa-flash-example/src/octa-flash-example.c **** /* USER CODE END Header */
  50:../../applications/octa-flash-example/src/octa-flash-example.c **** 
  51:../../applications/octa-flash-example/src/octa-flash-example.c **** /* Includes ------------------------------------------------------------------*/
  52:../../applications/octa-flash-example/src/octa-flash-example.c **** #include "octa-flash-example.h"
  53:../../applications/octa-flash-example/src/octa-flash-example.c **** /* Private includes ----------------------------------------------------------*/
  54:../../applications/octa-flash-example/src/octa-flash-example.c **** /* USER CODE BEGIN Includes */
  55:../../applications/octa-flash-example/src/octa-flash-example.c **** 
  56:../../applications/octa-flash-example/src/octa-flash-example.c **** 
  57:../../applications/octa-flash-example/src/octa-flash-example.c **** /* USER CODE END Includes */
  58:../../applications/octa-flash-example/src/octa-flash-example.c **** 
  59:../../applications/octa-flash-example/src/octa-flash-example.c **** /* Private typedef -----------------------------------------------------------*/
  60:../../applications/octa-flash-example/src/octa-flash-example.c **** /* USER CODE BEGIN PTD */
  61:../../applications/octa-flash-example/src/octa-flash-example.c **** 
  62:../../applications/octa-flash-example/src/octa-flash-example.c **** /* USER CODE END PTD */
  63:../../applications/octa-flash-example/src/octa-flash-example.c **** 
  64:../../applications/octa-flash-example/src/octa-flash-example.c **** /* Private define ------------------------------------------------------------*/
  65:../../applications/octa-flash-example/src/octa-flash-example.c **** /* USER CODE BEGIN PD */
  66:../../applications/octa-flash-example/src/octa-flash-example.c **** 
  67:../../applications/octa-flash-example/src/octa-flash-example.c **** /* USER CODE END PD */
  68:../../applications/octa-flash-example/src/octa-flash-example.c **** 
  69:../../applications/octa-flash-example/src/octa-flash-example.c **** /* Private macro -------------------------------------------------------------*/
  70:../../applications/octa-flash-example/src/octa-flash-example.c **** /* USER CODE BEGIN PM */
  71:../../applications/octa-flash-example/src/octa-flash-example.c **** 
  72:../../applications/octa-flash-example/src/octa-flash-example.c **** /* USER CODE END PM */
  73:../../applications/octa-flash-example/src/octa-flash-example.c **** 
  74:../../applications/octa-flash-example/src/octa-flash-example.c **** /* Private user code ---------------------------------------------------------*/
  75:../../applications/octa-flash-example/src/octa-flash-example.c **** /* USER CODE BEGIN 0 */
  76:../../applications/octa-flash-example/src/octa-flash-example.c **** /* USER CODE END 0 */
  77:../../applications/octa-flash-example/src/octa-flash-example.c **** 
  78:../../applications/octa-flash-example/src/octa-flash-example.c **** /**
  79:../../applications/octa-flash-example/src/octa-flash-example.c ****   * @brief  The application entry point.
  80:../../applications/octa-flash-example/src/octa-flash-example.c ****   * @retval int
  81:../../applications/octa-flash-example/src/octa-flash-example.c ****   */
  82:../../applications/octa-flash-example/src/octa-flash-example.c **** int main(void)
  83:../../applications/octa-flash-example/src/octa-flash-example.c **** {
  84:../../applications/octa-flash-example/src/octa-flash-example.c ****   /* USER CODE BEGIN 1 */
  85:../../applications/octa-flash-example/src/octa-flash-example.c **** 
  86:../../applications/octa-flash-example/src/octa-flash-example.c ****   /* USER CODE END 1 */
  87:../../applications/octa-flash-example/src/octa-flash-example.c **** 
  88:../../applications/octa-flash-example/src/octa-flash-example.c ****   /* MCU Configuration--------------------------------------------------------*/
ARM GAS  /tmp/ccdttWaD.s 			page 3


  89:../../applications/octa-flash-example/src/octa-flash-example.c **** 
  90:../../applications/octa-flash-example/src/octa-flash-example.c ****   /* Reset of all peripherals, Initializes the Flash interface and the Systick. */
  91:../../applications/octa-flash-example/src/octa-flash-example.c ****   HAL_Init();
  92:../../applications/octa-flash-example/src/octa-flash-example.c **** 
  93:../../applications/octa-flash-example/src/octa-flash-example.c ****   /* USER CODE BEGIN Init */
  94:../../applications/octa-flash-example/src/octa-flash-example.c **** 
  95:../../applications/octa-flash-example/src/octa-flash-example.c ****   /* USER CODE END Init */
  96:../../applications/octa-flash-example/src/octa-flash-example.c **** 
  97:../../applications/octa-flash-example/src/octa-flash-example.c ****   /* Configure the system clock */
  98:../../applications/octa-flash-example/src/octa-flash-example.c ****   SystemClock_Config();
  99:../../applications/octa-flash-example/src/octa-flash-example.c **** 
 100:../../applications/octa-flash-example/src/octa-flash-example.c ****   /* USER CODE BEGIN SysInit */
 101:../../applications/octa-flash-example/src/octa-flash-example.c **** 
 102:../../applications/octa-flash-example/src/octa-flash-example.c ****   /* USER CODE END SysInit */
 103:../../applications/octa-flash-example/src/octa-flash-example.c **** 
 104:../../applications/octa-flash-example/src/octa-flash-example.c ****   /* Initialize theplatform */
 105:../../applications/octa-flash-example/src/octa-flash-example.c ****   Initialize_Platform();
 106:../../applications/octa-flash-example/src/octa-flash-example.c ****   /* USER CODE BEGIN 2 */
 107:../../applications/octa-flash-example/src/octa-flash-example.c **** 
 108:../../applications/octa-flash-example/src/octa-flash-example.c ****   printWelcome();
 109:../../applications/octa-flash-example/src/octa-flash-example.c **** 
 110:../../applications/octa-flash-example/src/octa-flash-example.c ****   S25FL256_Initialize(&FLASH_SPI);
 111:../../applications/octa-flash-example/src/octa-flash-example.c ****   
 112:../../applications/octa-flash-example/src/octa-flash-example.c ****   //RW test
 113:../../applications/octa-flash-example/src/octa-flash-example.c ****   uint8_t RWsuccess = S25FL256_TestRW(); 
 114:../../applications/octa-flash-example/src/octa-flash-example.c ****   if(RWsuccess)
 115:../../applications/octa-flash-example/src/octa-flash-example.c ****   {
 116:../../applications/octa-flash-example/src/octa-flash-example.c ****       printf("octa-flash RW test OK\r\n");
 117:../../applications/octa-flash-example/src/octa-flash-example.c ****   }
 118:../../applications/octa-flash-example/src/octa-flash-example.c ****   else
 119:../../applications/octa-flash-example/src/octa-flash-example.c ****   {
 120:../../applications/octa-flash-example/src/octa-flash-example.c ****       printf("octa-flash RW test NOK\r\n");
 121:../../applications/octa-flash-example/src/octa-flash-example.c ****   }
 122:../../applications/octa-flash-example/src/octa-flash-example.c **** 
 123:../../applications/octa-flash-example/src/octa-flash-example.c ****   /* USER CODE END 2 */
 124:../../applications/octa-flash-example/src/octa-flash-example.c **** 
 125:../../applications/octa-flash-example/src/octa-flash-example.c **** 
 126:../../applications/octa-flash-example/src/octa-flash-example.c ****   /* Infinite loop */
 127:../../applications/octa-flash-example/src/octa-flash-example.c ****   /* USER CODE BEGIN WHILE */
 128:../../applications/octa-flash-example/src/octa-flash-example.c ****   while (1)
 129:../../applications/octa-flash-example/src/octa-flash-example.c ****   {
 130:../../applications/octa-flash-example/src/octa-flash-example.c ****     /* USER CODE END WHILE */
 131:../../applications/octa-flash-example/src/octa-flash-example.c ****     IWDG_feed(NULL);
 132:../../applications/octa-flash-example/src/octa-flash-example.c ****     HAL_GPIO_TogglePin(OCTA_RLED_GPIO_Port, OCTA_RLED_Pin);
 133:../../applications/octa-flash-example/src/octa-flash-example.c ****     HAL_Delay(1000);
 134:../../applications/octa-flash-example/src/octa-flash-example.c ****     HAL_GPIO_TogglePin(OCTA_RLED_GPIO_Port, OCTA_RLED_Pin);
 135:../../applications/octa-flash-example/src/octa-flash-example.c ****     HAL_GPIO_TogglePin(OCTA_GLED_GPIO_Port, OCTA_GLED_Pin);
 136:../../applications/octa-flash-example/src/octa-flash-example.c ****     HAL_Delay(1000);
 137:../../applications/octa-flash-example/src/octa-flash-example.c ****     HAL_GPIO_TogglePin(OCTA_GLED_GPIO_Port, OCTA_GLED_Pin);
 138:../../applications/octa-flash-example/src/octa-flash-example.c ****     HAL_GPIO_TogglePin(OCTA_BLED_GPIO_Port, OCTA_BLED_Pin);
 139:../../applications/octa-flash-example/src/octa-flash-example.c ****     HAL_Delay(1000);
 140:../../applications/octa-flash-example/src/octa-flash-example.c ****     HAL_GPIO_TogglePin(OCTA_BLED_GPIO_Port, OCTA_BLED_Pin);
 141:../../applications/octa-flash-example/src/octa-flash-example.c **** 
 142:../../applications/octa-flash-example/src/octa-flash-example.c ****     /* USER CODE BEGIN 3 */
 143:../../applications/octa-flash-example/src/octa-flash-example.c ****   }
 144:../../applications/octa-flash-example/src/octa-flash-example.c ****   /* USER CODE END 3 */
 145:../../applications/octa-flash-example/src/octa-flash-example.c **** }
ARM GAS  /tmp/ccdttWaD.s 			page 4


 146:../../applications/octa-flash-example/src/octa-flash-example.c **** 
 147:../../applications/octa-flash-example/src/octa-flash-example.c **** void printWelcome(void)
 148:../../applications/octa-flash-example/src/octa-flash-example.c **** {
  28              		.loc 1 148 0
  29              		.cfi_startproc
  30              		@ args = 0, pretend = 0, frame = 0
  31              		@ frame_needed = 0, uses_anonymous_args = 0
  32 0000 38B5     		push	{r3, r4, r5, lr}
  33              	.LCFI0:
  34              		.cfi_def_cfa_offset 16
  35              		.cfi_offset 3, -16
  36              		.cfi_offset 4, -12
  37              		.cfi_offset 5, -8
  38              		.cfi_offset 14, -4
 149:../../applications/octa-flash-example/src/octa-flash-example.c ****   printf("\r\n");
  39              		.loc 1 149 0
  40 0002 104C     		ldr	r4, .L3
  41 0004 2046     		mov	r0, r4
  42 0006 FFF7FEFF 		bl	puts
  43              	.LVL0:
 150:../../applications/octa-flash-example/src/octa-flash-example.c ****   printf("*****************************************\r\n");
  44              		.loc 1 150 0
  45 000a 0F4D     		ldr	r5, .L3+4
  46 000c 2846     		mov	r0, r5
  47 000e FFF7FEFF 		bl	puts
  48              	.LVL1:
 151:../../applications/octa-flash-example/src/octa-flash-example.c ****   printf("OCTA-flash-example\r\n");
  49              		.loc 1 151 0
  50 0012 0E48     		ldr	r0, .L3+8
  51 0014 FFF7FEFF 		bl	puts
  52              	.LVL2:
 152:../../applications/octa-flash-example/src/octa-flash-example.c ****   printf("*****************************************\r\n");
  53              		.loc 1 152 0
  54 0018 2846     		mov	r0, r5
  55 001a FFF7FEFF 		bl	puts
  56              	.LVL3:
 153:../../applications/octa-flash-example/src/octa-flash-example.c ****   printf("\r\n");
  57              		.loc 1 153 0
  58 001e 2046     		mov	r0, r4
  59 0020 FFF7FEFF 		bl	puts
  60              	.LVL4:
 154:../../applications/octa-flash-example/src/octa-flash-example.c ****   HAL_GPIO_TogglePin(OCTA_BLED_GPIO_Port, OCTA_BLED_Pin);
  61              		.loc 1 154 0
  62 0024 0A4C     		ldr	r4, .L3+12
  63 0026 4FF40041 		mov	r1, #32768
  64 002a 2046     		mov	r0, r4
  65 002c FFF7FEFF 		bl	HAL_GPIO_TogglePin
  66              	.LVL5:
 155:../../applications/octa-flash-example/src/octa-flash-example.c ****   HAL_Delay(2000);
  67              		.loc 1 155 0
  68 0030 4FF4FA60 		mov	r0, #2000
  69 0034 FFF7FEFF 		bl	HAL_Delay
  70              	.LVL6:
 156:../../applications/octa-flash-example/src/octa-flash-example.c ****   HAL_GPIO_TogglePin(OCTA_BLED_GPIO_Port, OCTA_BLED_Pin);
  71              		.loc 1 156 0
  72 0038 4FF40041 		mov	r1, #32768
  73 003c 2046     		mov	r0, r4
ARM GAS  /tmp/ccdttWaD.s 			page 5


  74 003e FFF7FEFF 		bl	HAL_GPIO_TogglePin
  75              	.LVL7:
 157:../../applications/octa-flash-example/src/octa-flash-example.c **** }
  76              		.loc 1 157 0
  77 0042 38BD     		pop	{r3, r4, r5, pc}
  78              	.L4:
  79              		.align	2
  80              	.L3:
  81 0044 00000000 		.word	.LC0
  82 0048 04000000 		.word	.LC1
  83 004c 30000000 		.word	.LC2
  84 0050 000C0048 		.word	1207962624
  85              		.cfi_endproc
  86              	.LFE129:
  88              		.section	.text.main,"ax",%progbits
  89              		.align	1
  90              		.global	main
  91              		.syntax unified
  92              		.thumb
  93              		.thumb_func
  94              		.fpu fpv4-sp-d16
  96              	main:
  97              	.LFB128:
  83:../../applications/octa-flash-example/src/octa-flash-example.c ****   /* USER CODE BEGIN 1 */
  98              		.loc 1 83 0
  99              		.cfi_startproc
 100              		@ args = 0, pretend = 0, frame = 0
 101              		@ frame_needed = 0, uses_anonymous_args = 0
 102 0000 38B5     		push	{r3, r4, r5, lr}
 103              	.LCFI1:
 104              		.cfi_def_cfa_offset 16
 105              		.cfi_offset 3, -16
 106              		.cfi_offset 4, -12
 107              		.cfi_offset 5, -8
 108              		.cfi_offset 14, -4
  91:../../applications/octa-flash-example/src/octa-flash-example.c **** 
 109              		.loc 1 91 0
 110 0002 FFF7FEFF 		bl	HAL_Init
 111              	.LVL8:
  98:../../applications/octa-flash-example/src/octa-flash-example.c **** 
 112              		.loc 1 98 0
 113 0006 FFF7FEFF 		bl	SystemClock_Config
 114              	.LVL9:
 105:../../applications/octa-flash-example/src/octa-flash-example.c ****   /* USER CODE BEGIN 2 */
 115              		.loc 1 105 0
 116 000a FFF7FEFF 		bl	Initialize_Platform
 117              	.LVL10:
 108:../../applications/octa-flash-example/src/octa-flash-example.c **** 
 118              		.loc 1 108 0
 119 000e FFF7FEFF 		bl	printWelcome
 120              	.LVL11:
 110:../../applications/octa-flash-example/src/octa-flash-example.c ****   
 121              		.loc 1 110 0
 122 0012 1E48     		ldr	r0, .L10
 123 0014 FFF7FEFF 		bl	S25FL256_Initialize
 124              	.LVL12:
 113:../../applications/octa-flash-example/src/octa-flash-example.c ****   if(RWsuccess)
ARM GAS  /tmp/ccdttWaD.s 			page 6


 125              		.loc 1 113 0
 126 0018 FFF7FEFF 		bl	S25FL256_TestRW
 127              	.LVL13:
 128 001c C0B2     		uxtb	r0, r0
 129              	.LVL14:
 114:../../applications/octa-flash-example/src/octa-flash-example.c ****   {
 130              		.loc 1 114 0
 131 001e 80B3     		cbz	r0, .L6
 132              	.LBB2:
 116:../../applications/octa-flash-example/src/octa-flash-example.c ****   }
 133              		.loc 1 116 0
 134 0020 1B48     		ldr	r0, .L10+4
 135              	.LVL15:
 136 0022 FFF7FEFF 		bl	puts
 137              	.LVL16:
 138              	.L7:
 139              	.LBE2:
 131:../../applications/octa-flash-example/src/octa-flash-example.c ****     HAL_GPIO_TogglePin(OCTA_RLED_GPIO_Port, OCTA_RLED_Pin);
 140              		.loc 1 131 0 discriminator 1
 141 0026 0020     		movs	r0, #0
 142 0028 FFF7FEFF 		bl	IWDG_feed
 143              	.LVL17:
 132:../../applications/octa-flash-example/src/octa-flash-example.c ****     HAL_Delay(1000);
 144              		.loc 1 132 0 discriminator 1
 145 002c 194C     		ldr	r4, .L10+8
 146 002e 4FF48041 		mov	r1, #16384
 147 0032 2046     		mov	r0, r4
 148 0034 FFF7FEFF 		bl	HAL_GPIO_TogglePin
 149              	.LVL18:
 133:../../applications/octa-flash-example/src/octa-flash-example.c ****     HAL_GPIO_TogglePin(OCTA_RLED_GPIO_Port, OCTA_RLED_Pin);
 150              		.loc 1 133 0 discriminator 1
 151 0038 4FF47A70 		mov	r0, #1000
 152 003c FFF7FEFF 		bl	HAL_Delay
 153              	.LVL19:
 134:../../applications/octa-flash-example/src/octa-flash-example.c ****     HAL_GPIO_TogglePin(OCTA_GLED_GPIO_Port, OCTA_GLED_Pin);
 154              		.loc 1 134 0 discriminator 1
 155 0040 4FF48041 		mov	r1, #16384
 156 0044 2046     		mov	r0, r4
 157 0046 FFF7FEFF 		bl	HAL_GPIO_TogglePin
 158              	.LVL20:
 135:../../applications/octa-flash-example/src/octa-flash-example.c ****     HAL_Delay(1000);
 159              		.loc 1 135 0 discriminator 1
 160 004a 134D     		ldr	r5, .L10+12
 161 004c 0121     		movs	r1, #1
 162 004e 2846     		mov	r0, r5
 163 0050 FFF7FEFF 		bl	HAL_GPIO_TogglePin
 164              	.LVL21:
 136:../../applications/octa-flash-example/src/octa-flash-example.c ****     HAL_GPIO_TogglePin(OCTA_GLED_GPIO_Port, OCTA_GLED_Pin);
 165              		.loc 1 136 0 discriminator 1
 166 0054 4FF47A70 		mov	r0, #1000
 167 0058 FFF7FEFF 		bl	HAL_Delay
 168              	.LVL22:
 137:../../applications/octa-flash-example/src/octa-flash-example.c ****     HAL_GPIO_TogglePin(OCTA_BLED_GPIO_Port, OCTA_BLED_Pin);
 169              		.loc 1 137 0 discriminator 1
 170 005c 0121     		movs	r1, #1
 171 005e 2846     		mov	r0, r5
 172 0060 FFF7FEFF 		bl	HAL_GPIO_TogglePin
ARM GAS  /tmp/ccdttWaD.s 			page 7


 173              	.LVL23:
 138:../../applications/octa-flash-example/src/octa-flash-example.c ****     HAL_Delay(1000);
 174              		.loc 1 138 0 discriminator 1
 175 0064 4FF40041 		mov	r1, #32768
 176 0068 2046     		mov	r0, r4
 177 006a FFF7FEFF 		bl	HAL_GPIO_TogglePin
 178              	.LVL24:
 139:../../applications/octa-flash-example/src/octa-flash-example.c ****     HAL_GPIO_TogglePin(OCTA_BLED_GPIO_Port, OCTA_BLED_Pin);
 179              		.loc 1 139 0 discriminator 1
 180 006e 4FF47A70 		mov	r0, #1000
 181 0072 FFF7FEFF 		bl	HAL_Delay
 182              	.LVL25:
 140:../../applications/octa-flash-example/src/octa-flash-example.c **** 
 183              		.loc 1 140 0 discriminator 1
 184 0076 4FF40041 		mov	r1, #32768
 185 007a 2046     		mov	r0, r4
 186 007c FFF7FEFF 		bl	HAL_GPIO_TogglePin
 187              	.LVL26:
 188 0080 D1E7     		b	.L7
 189              	.LVL27:
 190              	.L6:
 191              	.LBB3:
 120:../../applications/octa-flash-example/src/octa-flash-example.c ****   }
 192              		.loc 1 120 0
 193 0082 0648     		ldr	r0, .L10+16
 194              	.LVL28:
 195 0084 FFF7FEFF 		bl	puts
 196              	.LVL29:
 197 0088 CDE7     		b	.L7
 198              	.L11:
 199 008a 00BF     		.align	2
 200              	.L10:
 201 008c 00000000 		.word	FLASH_SPI
 202 0090 00000000 		.word	.LC3
 203 0094 000C0048 		.word	1207962624
 204 0098 00040048 		.word	1207960576
 205 009c 18000000 		.word	.LC4
 206              	.LBE3:
 207              		.cfi_endproc
 208              	.LFE128:
 210              		.section	.text.HAL_TIM_PeriodElapsedCallback,"ax",%progbits
 211              		.align	1
 212              		.global	HAL_TIM_PeriodElapsedCallback
 213              		.syntax unified
 214              		.thumb
 215              		.thumb_func
 216              		.fpu fpv4-sp-d16
 218              	HAL_TIM_PeriodElapsedCallback:
 219              	.LFB130:
 158:../../applications/octa-flash-example/src/octa-flash-example.c **** 
 159:../../applications/octa-flash-example/src/octa-flash-example.c **** void HAL_TIM_PeriodElapsedCallback(TIM_HandleTypeDef *htim)
 160:../../applications/octa-flash-example/src/octa-flash-example.c **** {
 220              		.loc 1 160 0
 221              		.cfi_startproc
 222              		@ args = 0, pretend = 0, frame = 0
 223              		@ frame_needed = 0, uses_anonymous_args = 0
 224              	.LVL30:
ARM GAS  /tmp/ccdttWaD.s 			page 8


 225 0000 08B5     		push	{r3, lr}
 226              	.LCFI2:
 227              		.cfi_def_cfa_offset 8
 228              		.cfi_offset 3, -8
 229              		.cfi_offset 14, -4
 161:../../applications/octa-flash-example/src/octa-flash-example.c ****   /* USER CODE BEGIN Callback 0 */
 162:../../applications/octa-flash-example/src/octa-flash-example.c **** 
 163:../../applications/octa-flash-example/src/octa-flash-example.c ****   /* USER CODE END Callback 0 */
 164:../../applications/octa-flash-example/src/octa-flash-example.c ****   if (htim->Instance == TIM1)
 230              		.loc 1 164 0
 231 0002 0268     		ldr	r2, [r0]
 232 0004 034B     		ldr	r3, .L16
 233 0006 9A42     		cmp	r2, r3
 234 0008 00D0     		beq	.L15
 235              	.LVL31:
 236              	.L12:
 165:../../applications/octa-flash-example/src/octa-flash-example.c ****   {
 166:../../applications/octa-flash-example/src/octa-flash-example.c ****     HAL_IncTick();
 167:../../applications/octa-flash-example/src/octa-flash-example.c ****   }
 168:../../applications/octa-flash-example/src/octa-flash-example.c ****   /* USER CODE BEGIN Callback 1 */
 169:../../applications/octa-flash-example/src/octa-flash-example.c **** 
 170:../../applications/octa-flash-example/src/octa-flash-example.c ****   /* USER CODE END Callback 1 */
 171:../../applications/octa-flash-example/src/octa-flash-example.c **** }
 237              		.loc 1 171 0
 238 000a 08BD     		pop	{r3, pc}
 239              	.LVL32:
 240              	.L15:
 166:../../applications/octa-flash-example/src/octa-flash-example.c ****   }
 241              		.loc 1 166 0
 242 000c FFF7FEFF 		bl	HAL_IncTick
 243              	.LVL33:
 244              		.loc 1 171 0
 245 0010 FBE7     		b	.L12
 246              	.L17:
 247 0012 00BF     		.align	2
 248              	.L16:
 249 0014 002C0140 		.word	1073818624
 250              		.cfi_endproc
 251              	.LFE130:
 253              		.section	.text.Error_Handler,"ax",%progbits
 254              		.align	1
 255              		.global	Error_Handler
 256              		.syntax unified
 257              		.thumb
 258              		.thumb_func
 259              		.fpu fpv4-sp-d16
 261              	Error_Handler:
 262              	.LFB131:
 172:../../applications/octa-flash-example/src/octa-flash-example.c **** 
 173:../../applications/octa-flash-example/src/octa-flash-example.c **** /* USER CODE END 4 */
 174:../../applications/octa-flash-example/src/octa-flash-example.c **** 
 175:../../applications/octa-flash-example/src/octa-flash-example.c **** 
 176:../../applications/octa-flash-example/src/octa-flash-example.c **** /**
 177:../../applications/octa-flash-example/src/octa-flash-example.c ****   * @brief  This function is executed in case of error occurrence.
 178:../../applications/octa-flash-example/src/octa-flash-example.c ****   * @retval None
 179:../../applications/octa-flash-example/src/octa-flash-example.c ****   */
 180:../../applications/octa-flash-example/src/octa-flash-example.c **** void Error_Handler(void)
ARM GAS  /tmp/ccdttWaD.s 			page 9


 181:../../applications/octa-flash-example/src/octa-flash-example.c **** {
 263              		.loc 1 181 0
 264              		.cfi_startproc
 265              		@ args = 0, pretend = 0, frame = 0
 266              		@ frame_needed = 0, uses_anonymous_args = 0
 267              		@ link register save eliminated.
 182:../../applications/octa-flash-example/src/octa-flash-example.c ****   /* USER CODE BEGIN Error_Handler_Debug */
 183:../../applications/octa-flash-example/src/octa-flash-example.c ****   /* User can add his own implementation to report the HAL error return state */
 184:../../applications/octa-flash-example/src/octa-flash-example.c **** 
 185:../../applications/octa-flash-example/src/octa-flash-example.c ****   /* USER CODE END Error_Handler_Debug */
 186:../../applications/octa-flash-example/src/octa-flash-example.c **** }
 268              		.loc 1 186 0
 269 0000 7047     		bx	lr
 270              		.cfi_endproc
 271              	.LFE131:
 273              		.comm	P3_header,44,4
 274              		.comm	P2_header,44,4
 275              		.comm	P1_header,44,4
 276              		.comm	FLASH_SPI,100,4
 277              		.comm	P3_SPI,100,4
 278              		.comm	P2_SPI,100,4
 279              		.comm	P1_SPI,100,4
 280              		.comm	P3_I2C,76,4
 281              		.comm	P2_I2C,76,4
 282              		.comm	P1_I2C,76,4
 283              		.comm	common_I2C,76,4
 284              		.comm	P3_UART,120,4
 285              		.comm	P2_UART,120,4
 286              		.comm	P1_UART,120,4
 287              		.comm	BLE_UART,120,4
 288              		.comm	USB_UART,120,4
 289              		.comm	hiwdg,16,4
 290              		.comm	P3_DIO6,8,4
 291              		.comm	P3_DIO5,8,4
 292              		.comm	P3_DIO4,8,4
 293              		.comm	P3_DIO3,8,4
 294              		.comm	P3_DIO2,8,4
 295              		.comm	P3_DIO1,8,4
 296              		.comm	P2_DIO6,8,4
 297              		.comm	P2_DIO5,8,4
 298              		.comm	P2_DIO4,8,4
 299              		.comm	P2_DIO3,8,4
 300              		.comm	P2_DIO2,8,4
 301              		.comm	P2_DIO1,8,4
 302              		.comm	P1_DIO6,8,4
 303              		.comm	P1_DIO5,8,4
 304              		.comm	P1_DIO4,8,4
 305              		.comm	P1_DIO3,8,4
 306              		.comm	P1_DIO2,8,4
 307              		.comm	P1_DIO1,8,4
 308              		.section	.rodata.main.str1.4,"aMS",%progbits,1
 309              		.align	2
 310              	.LC3:
 311 0000 6F637461 		.ascii	"octa-flash RW test OK\015\000"
 311      2D666C61 
 311      73682052 
 311      57207465 
ARM GAS  /tmp/ccdttWaD.s 			page 10


 311      7374204F 
 312 0017 00       		.space	1
 313              	.LC4:
 314 0018 6F637461 		.ascii	"octa-flash RW test NOK\015\000"
 314      2D666C61 
 314      73682052 
 314      57207465 
 314      7374204E 
 315              		.section	.rodata.printWelcome.str1.4,"aMS",%progbits,1
 316              		.align	2
 317              	.LC0:
 318 0000 0D00     		.ascii	"\015\000"
 319 0002 0000     		.space	2
 320              	.LC1:
 321 0004 2A2A2A2A 		.ascii	"*****************************************\015\000"
 321      2A2A2A2A 
 321      2A2A2A2A 
 321      2A2A2A2A 
 321      2A2A2A2A 
 322 002f 00       		.space	1
 323              	.LC2:
 324 0030 4F435441 		.ascii	"OCTA-flash-example\015\000"
 324      2D666C61 
 324      73682D65 
 324      78616D70 
 324      6C650D00 
 325              		.weak	SystemClock_Config
 326              		.text
 327              	.Letext0:
 328              		.file 2 "/home/mats/gcc-arm-none-eabi-7-2018-q2-update/arm-none-eabi/include/machine/_default_type
 329              		.file 3 "/home/mats/gcc-arm-none-eabi-7-2018-q2-update/arm-none-eabi/include/sys/_stdint.h"
 330              		.file 4 "../../core/ST/CMSIS/Include/core_cm4.h"
 331              		.file 5 "../../core/ST/CMSIS/Device/ST/STM32L4xx/Include/system_stm32l4xx.h"
 332              		.file 6 "../../core/ST/CMSIS/Device/ST/STM32L4xx/Include/stm32l496xx.h"
 333              		.file 7 "../../core/ST/STM32L4xx_HAL_Driver/Inc/stm32l4xx_hal_def.h"
 334              		.file 8 "../../core/ST/STM32L4xx_HAL_Driver/Inc/stm32l4xx_hal_dma.h"
 335              		.file 9 "../../core/ST/STM32L4xx_HAL_Driver/Inc/stm32l4xx_hal_i2c.h"
 336              		.file 10 "../../core/ST/STM32L4xx_HAL_Driver/Inc/stm32l4xx_hal_iwdg.h"
 337              		.file 11 "../../core/ST/STM32L4xx_HAL_Driver/Inc/stm32l4xx_hal_spi.h"
 338              		.file 12 "../../core/ST/STM32L4xx_HAL_Driver/Inc/stm32l4xx_hal_tim.h"
 339              		.file 13 "../../core/ST/STM32L4xx_HAL_Driver/Inc/stm32l4xx_hal_uart.h"
 340              		.file 14 "../../core/ST/STM32L4xx_HAL_Driver/Inc/stm32l4xx_hal.h"
 341              		.file 15 "../../core/platform/octa/inc/gpio.h"
 342              		.file 16 "../../core/platform/octa/inc/iwdg.h"
 343              		.file 17 "../../core/platform/octa/inc/uart.h"
 344              		.file 18 "../../core/platform/octa/inc/i2c.h"
 345              		.file 19 "../../core/platform/octa/inc/spi.h"
 346              		.file 20 "../../core/platform/octa/inc/octa.h"
 347              		.file 21 "<built-in>"
 348              		.file 22 "../../core/ST/STM32L4xx_HAL_Driver/Inc/stm32l4xx_hal_gpio.h"
 349              		.file 23 "../../core/platform/octa/inc/sysclock.h"
 350              		.file 24 "../../core/platform/common/inc/platform.h"
ARM GAS  /tmp/ccdttWaD.s 			page 11

