ARM GAS  /tmp/ccnLq8Cp.s 			page 1


   1              		.cpu cortex-m4
   2              		.eabi_attribute 27, 1
   3              		.eabi_attribute 28, 1
   4              		.eabi_attribute 20, 1
   5              		.eabi_attribute 21, 1
   6              		.eabi_attribute 23, 3
   7              		.eabi_attribute 24, 1
   8              		.eabi_attribute 25, 1
   9              		.eabi_attribute 26, 1
  10              		.eabi_attribute 30, 1
  11              		.eabi_attribute 34, 1
  12              		.eabi_attribute 18, 4
  13              		.file	"stc3115.c"
  14              		.text
  15              	.Ltext0:
  16              		.cfi_sections	.debug_frame
  17              		.section	.text.STC3115_conv,"ax",%progbits
  18              		.align	1
  19              		.syntax unified
  20              		.thumb
  21              		.thumb_func
  22              		.fpu fpv4-sp-d16
  24              	STC3115_conv:
  25              	.LFB137:
  26              		.file 1 "../../core/drivers/STC3115/src/stc3115.c"
   1:../../core/drivers/STC3115/src/stc3115.c **** /******************** (C) COPYRIGHT 2011 STMicroelectronics ********************
   2:../../core/drivers/STC3115/src/stc3115.c **** * File Name          : stc3115_Driver.c
   3:../../core/drivers/STC3115/src/stc3115.c **** * Author             : AMS - IMS application
   4:../../core/drivers/STC3115/src/stc3115.c **** * Version            : V01
   5:../../core/drivers/STC3115/src/stc3115.c **** * Date               : 10 October 2014
   6:../../core/drivers/STC3115/src/stc3115.c **** * Description        : STC3115 driver source code
   7:../../core/drivers/STC3115/src/stc3115.c **** ********************************************************************************
   8:../../core/drivers/STC3115/src/stc3115.c **** * THE PRESENT SOFTWARE WHICH IS FOR GUIDANCE ONLY AIMS AT PROVIDING CUSTOMERS
   9:../../core/drivers/STC3115/src/stc3115.c **** * WITH CODING INFORMATION REGARDING THEIR PRODUCTS IN ORDER FOR THEM TO SAVE TIME.
  10:../../core/drivers/STC3115/src/stc3115.c **** * AS A RESULT, STMICROELECTRONICS SHALL NOT BE HELD LIABLE FOR ANY DIRECT,
  11:../../core/drivers/STC3115/src/stc3115.c **** * INDIRECT OR CONSEQUENTIAL DAMAGES WITH RESPECT TO ANY CLAIMS ARISING FROM THE
  12:../../core/drivers/STC3115/src/stc3115.c **** * CONTENT OF SUCH SOFTWARE AND/OR THE USE MADE BY CUSTOMERS OF THE CODING
  13:../../core/drivers/STC3115/src/stc3115.c **** * INFORMATION CONTAINED HEREIN IN CONNECTION WITH THEIR PRODUCTS.
  14:../../core/drivers/STC3115/src/stc3115.c **** 
  15:../../core/drivers/STC3115/src/stc3115.c **** * THIS SOURCE CODE IS PROTECTED BY A LICENSE.
  16:../../core/drivers/STC3115/src/stc3115.c **** * FOR MORE INFORMATION PLEASE CAREFULLY READ THE LICENSE AGREEMENT FILE LOCATED
  17:../../core/drivers/STC3115/src/stc3115.c **** * IN THE ROOT DIRECTORY OF THIS FIRMWARE PACKAGE.
  18:../../core/drivers/STC3115/src/stc3115.c **** *******************************************************************************/
  19:../../core/drivers/STC3115/src/stc3115.c **** 
  20:../../core/drivers/STC3115/src/stc3115.c **** /* Includes ------------------------------------------------------------------*/
  21:../../core/drivers/STC3115/src/stc3115.c **** #include "stc3115.h" 
  22:../../core/drivers/STC3115/src/stc3115.c **** #include "stc3115_Battery.h" 
  23:../../core/drivers/STC3115/src/stc3115.c **** #include "stm32l4xx_hal.h"
  24:../../core/drivers/STC3115/src/stc3115.c **** 
  25:../../core/drivers/STC3115/src/stc3115.c **** /*
  26:../../core/drivers/STC3115/src/stc3115.c ****   ===============================================================================
  27:../../core/drivers/STC3115/src/stc3115.c ****                    ##### STC3115 driver description #####
  28:../../core/drivers/STC3115/src/stc3115.c ****   ===============================================================================
  29:../../core/drivers/STC3115/src/stc3115.c **** 
  30:../../core/drivers/STC3115/src/stc3115.c **** 	This driver is dedicated to STC3115 battery monitoring IC management, it allows
  31:../../core/drivers/STC3115/src/stc3115.c **** 	the stc3115 to be configured, and used without external software.
  32:../../core/drivers/STC3115/src/stc3115.c **** 	
ARM GAS  /tmp/ccnLq8Cp.s 			page 2


  33:../../core/drivers/STC3115/src/stc3115.c **** 	++ stc3115_Driver.c file contains the functions to initialize and report the 
  34:../../core/drivers/STC3115/src/stc3115.c **** 			battery state based on STC3115 algorithms.
  35:../../core/drivers/STC3115/src/stc3115.c **** 		- Driver contains its own I2C access functions, they have to be linked with 
  36:../../core/drivers/STC3115/src/stc3115.c **** 			I2C driver interface  functions. HW system have to support multi I2C access 
  37:../../core/drivers/STC3115/src/stc3115.c **** 			commands to guaranty the data integrity during the 16 bits register R/W 
  38:../../core/drivers/STC3115/src/stc3115.c **** 			operations.
  39:../../core/drivers/STC3115/src/stc3115.c **** 		- First part of the driver is composed by driver own functions, which should 
  40:../../core/drivers/STC3115/src/stc3115.c **** 			not be accessed by external functions.
  41:../../core/drivers/STC3115/src/stc3115.c **** 		- Then the GasGauge functions are the main interface functions which have to 
  42:../../core/drivers/STC3115/src/stc3115.c **** 			be used by the application to initialize, monitor and stop the STC3115 
  43:../../core/drivers/STC3115/src/stc3115.c **** 			device.
  44:../../core/drivers/STC3115/src/stc3115.c **** 		- Power saving functions can be used to manage the STC3115 operating mode 
  45:../../core/drivers/STC3115/src/stc3115.c **** 			(mixed mode or Voltage mode). These two functions have to be called by 
  46:../../core/drivers/STC3115/src/stc3115.c **** 			external program to switch the STC3115 operating mode after STC3115 
  47:../../core/drivers/STC3115/src/stc3115.c **** 			initialization.
  48:../../core/drivers/STC3115/src/stc3115.c **** 		- Alarm management functions have to be called to set, stop, get, clear and
  49:../../core/drivers/STC3115/src/stc3115.c **** 			change alarm thresholds after STC3115 initialization.
  50:../../core/drivers/STC3115/src/stc3115.c **** 		- The relaxation register can also be updated after initialization thanks to 
  51:../../core/drivers/STC3115/src/stc3115.c **** 			the STC3115_RelxTmrSet.
  52:../../core/drivers/STC3115/src/stc3115.c **** 	
  53:../../core/drivers/STC3115/src/stc3115.c **** 	++ stc3115_Driver.h file defines the STC3115 static numbers, driver API 
  54:../../core/drivers/STC3115/src/stc3115.c **** 			structures and driver API functions.	
  55:../../core/drivers/STC3115/src/stc3115.c **** 		- STC3115_BatteryData_TypeDef is filled by the driver with battery state.
  56:../../core/drivers/STC3115/src/stc3115.c **** 		- STC3115_ConfigData_TypeDef is filled by the driver with battery 
  57:../../core/drivers/STC3115/src/stc3115.c **** 			configuration data from stc3115_Battery.h
  58:../../core/drivers/STC3115/src/stc3115.c **** 		- RAMData is the RAM memory map description, used internally of the driver.
  59:../../core/drivers/STC3115/src/stc3115.c **** 			Have no to be modified by external accesses.
  60:../../core/drivers/STC3115/src/stc3115.c **** 	
  61:../../core/drivers/STC3115/src/stc3115.c **** 	++ stc3115_Battery.h file is used to describe the battery and application 
  62:../../core/drivers/STC3115/src/stc3115.c **** 			configurations.
  63:../../core/drivers/STC3115/src/stc3115.c **** 	
  64:../../core/drivers/STC3115/src/stc3115.c **** 	++ stc3115_I2C.c file is used to interface STC3115 driver I2C functions with 
  65:../../core/drivers/STC3115/src/stc3115.c **** 		application I2C functions.
  66:../../core/drivers/STC3115/src/stc3115.c **** 		
  67:../../core/drivers/STC3115/src/stc3115.c **** 	++ stc3115_I2C.h file contains the stc3115_I2C.c function declarations.
  68:../../core/drivers/STC3115/src/stc3115.c **** 
  69:../../core/drivers/STC3115/src/stc3115.c ****   ===============================================================================
  70:../../core/drivers/STC3115/src/stc3115.c ****                     ##### How to use STC3115 driver #####
  71:../../core/drivers/STC3115/src/stc3115.c ****   ===============================================================================
  72:../../core/drivers/STC3115/src/stc3115.c **** 
  73:../../core/drivers/STC3115/src/stc3115.c **** 	++ 	Update 	I2C_Write and I2C_Read functions with application I2C driver functions 
  74:../../core/drivers/STC3115/src/stc3115.c **** 		in stc3115_I2C.C file.
  75:../../core/drivers/STC3115/src/stc3115.c **** 							
  76:../../core/drivers/STC3115/src/stc3115.c **** 	++	Initialize STC3115 dedicated hardware externally of the driver (I2C 
  77:../../core/drivers/STC3115/src/stc3115.c **** 			interface, GPIOs...)			
  78:../../core/drivers/STC3115/src/stc3115.c **** 	
  79:../../core/drivers/STC3115/src/stc3115.c **** 	++	Fill STC3115_Battery.h with battery and application parameters
  80:../../core/drivers/STC3115/src/stc3115.c **** 	
  81:../../core/drivers/STC3115/src/stc3115.c **** 	++  Call one time the the GasGauge_Initialization function
  82:../../core/drivers/STC3115/src/stc3115.c **** 	
  83:../../core/drivers/STC3115/src/stc3115.c **** 			Parameters:
  84:../../core/drivers/STC3115/src/stc3115.c **** 				- STC3115_ConfigData_TypeDef parameter is filled with STC3115_Battery.h 
  85:../../core/drivers/STC3115/src/stc3115.c **** 					data by the driver
  86:../../core/drivers/STC3115/src/stc3115.c **** 				- STC3115_BatteryData_TypeDef parameter is filled with STC3115 algorithm 
  87:../../core/drivers/STC3115/src/stc3115.c **** 					results and returns the battery state to application
  88:../../core/drivers/STC3115/src/stc3115.c **** 				
  89:../../core/drivers/STC3115/src/stc3115.c **** 			Function description:
ARM GAS  /tmp/ccnLq8Cp.s 			page 3


  90:../../core/drivers/STC3115/src/stc3115.c **** 				- Initialize SW structures
  91:../../core/drivers/STC3115/src/stc3115.c **** 				- Check battery history: new battery, swapped battery, already connected 
  92:../../core/drivers/STC3115/src/stc3115.c **** 					battery
  93:../../core/drivers/STC3115/src/stc3115.c **** 				- Initializes STC3115 registers accordingly to battery history
  94:../../core/drivers/STC3115/src/stc3115.c **** 				- Initializes STC3115 RAM memory accordingly to battery history
  95:../../core/drivers/STC3115/src/stc3115.c **** 			
  96:../../core/drivers/STC3115/src/stc3115.c **** 			Returns:
  97:../../core/drivers/STC3115/src/stc3115.c **** 				- (-1) is returned when STC3115 cannot be accessed: I2C bus is not 
  98:../../core/drivers/STC3115/src/stc3115.c **** 					properly configured or STC3115 is not power supplied
  99:../../core/drivers/STC3115/src/stc3115.c **** 				- (0) is returned if initialization succeeds.
 100:../../core/drivers/STC3115/src/stc3115.c **** 			
 101:../../core/drivers/STC3115/src/stc3115.c **** 	++ Call the GasGauge_Task function when battery information is needed: 
 102:../../core/drivers/STC3115/src/stc3115.c **** 			every 1 to 30 seconds (no frequency accuracy needed)
 103:../../core/drivers/STC3115/src/stc3115.c **** 		
 104:../../core/drivers/STC3115/src/stc3115.c **** 			Parameters:
 105:../../core/drivers/STC3115/src/stc3115.c **** 				- STC3115_ConfigData_TypeDef parameter is used in case of STC3115 has to be 
 106:../../core/drivers/STC3115/src/stc3115.c **** 					initialized again
 107:../../core/drivers/STC3115/src/stc3115.c **** 				- STC3115_BatteryData_TypeDef parameter is filled with STC3115 algorithm 
 108:../../core/drivers/STC3115/src/stc3115.c **** 					results and returns the battery state to application
 109:../../core/drivers/STC3115/src/stc3115.c **** 				
 110:../../core/drivers/STC3115/src/stc3115.c **** 			Function description:
 111:../../core/drivers/STC3115/src/stc3115.c **** 				- Check STC3115, battery and application state
 112:../../core/drivers/STC3115/src/stc3115.c **** 				- if battery is well present battery data are updated
 113:../../core/drivers/STC3115/src/stc3115.c **** 				- Available battery state information are returned
 114:../../core/drivers/STC3115/src/stc3115.c **** 			
 115:../../core/drivers/STC3115/src/stc3115.c **** 			Returns:
 116:../../core/drivers/STC3115/src/stc3115.c **** 				- (-1) is returned when STC3115 cannot be accessed (I2C bus is busy or 
 117:../../core/drivers/STC3115/src/stc3115.c **** 					STC3115 is not power supplied) or when BATD/CD pin is in high level state.
 118:../../core/drivers/STC3115/src/stc3115.c **** 				- (0) is returned if only battery SOC,Voltage and OCV data are available
 119:../../core/drivers/STC3115/src/stc3115.c **** 				- (1) is returned if every STC3115_BatteryData_TypeDef data are available.
 120:../../core/drivers/STC3115/src/stc3115.c **** 				
 121:../../core/drivers/STC3115/src/stc3115.c **** 	++ call the GasGauge_Stop function during the application switch off sequence
 122:../../core/drivers/STC3115/src/stc3115.c **** 		 This will stop the STC3115 and save energy. This will help to recover the
 123:../../core/drivers/STC3115/src/stc3115.c **** 		 battery context during the next GasGauge_Initialization function.
 124:../../core/drivers/STC3115/src/stc3115.c **** 				
 125:../../core/drivers/STC3115/src/stc3115.c **** 	++ GasGauge_Reset function has not to be used by default.
 126:../../core/drivers/STC3115/src/stc3115.c **** 		 This function has to be called only in abnormal use cases.
 127:../../core/drivers/STC3115/src/stc3115.c **** 				- (-1) is returned when STC3115 cannot be stopped
 128:../../core/drivers/STC3115/src/stc3115.c **** 				- (0) is returned if reset operation succeeds
 129:../../core/drivers/STC3115/src/stc3115.c **** 				
 130:../../core/drivers/STC3115/src/stc3115.c **** */
 131:../../core/drivers/STC3115/src/stc3115.c **** static I2C_HandleTypeDef *hi2cLib;
 132:../../core/drivers/STC3115/src/stc3115.c **** 
 133:../../core/drivers/STC3115/src/stc3115.c **** /* ---- STC3115 I2C R/W interface --------------------------------------------- */
 134:../../core/drivers/STC3115/src/stc3115.c **** 
 135:../../core/drivers/STC3115/src/stc3115.c **** /*******************************************************************************
 136:../../core/drivers/STC3115/src/stc3115.c **** * Function Name  : STC3115_ReadByte
 137:../../core/drivers/STC3115/src/stc3115.c **** * Description    : utility function to read the value stored in one register
 138:../../core/drivers/STC3115/src/stc3115.c **** * Input          : RegAddress: STC3115 register,
 139:../../core/drivers/STC3115/src/stc3115.c **** * Return         : 8-bit value, or 0 if error
 140:../../core/drivers/STC3115/src/stc3115.c **** *******************************************************************************/
 141:../../core/drivers/STC3115/src/stc3115.c **** static int STC3115_ReadByte(int RegAddress)
 142:../../core/drivers/STC3115/src/stc3115.c **** {
 143:../../core/drivers/STC3115/src/stc3115.c ****   int value;
 144:../../core/drivers/STC3115/src/stc3115.c ****   unsigned char data[2];
 145:../../core/drivers/STC3115/src/stc3115.c ****   int res;
 146:../../core/drivers/STC3115/src/stc3115.c ****   res = HAL_I2C_Mem_Read(hi2cLib, STC3115_SLAVE_ADDRESS_7BIT << 1, RegAddress, 1, (uint8_t *)data, 
ARM GAS  /tmp/ccnLq8Cp.s 			page 4


 147:../../core/drivers/STC3115/src/stc3115.c **** 	
 148:../../core/drivers/STC3115/src/stc3115.c ****   if (res >= 0)
 149:../../core/drivers/STC3115/src/stc3115.c ****   {
 150:../../core/drivers/STC3115/src/stc3115.c ****     /* no error */
 151:../../core/drivers/STC3115/src/stc3115.c ****     value = data[0];
 152:../../core/drivers/STC3115/src/stc3115.c ****   }
 153:../../core/drivers/STC3115/src/stc3115.c ****   else
 154:../../core/drivers/STC3115/src/stc3115.c ****     value=-1;
 155:../../core/drivers/STC3115/src/stc3115.c **** 
 156:../../core/drivers/STC3115/src/stc3115.c ****   return(value);
 157:../../core/drivers/STC3115/src/stc3115.c **** }
 158:../../core/drivers/STC3115/src/stc3115.c **** 
 159:../../core/drivers/STC3115/src/stc3115.c **** 
 160:../../core/drivers/STC3115/src/stc3115.c **** 
 161:../../core/drivers/STC3115/src/stc3115.c **** /*******************************************************************************
 162:../../core/drivers/STC3115/src/stc3115.c **** * Function Name  : STC3115_WriteByte
 163:../../core/drivers/STC3115/src/stc3115.c **** * Description    : utility function to write a 8-bit value into a register
 164:../../core/drivers/STC3115/src/stc3115.c **** * Input          : RegAddress: STC3115 register, Value: 8-bit value to write
 165:../../core/drivers/STC3115/src/stc3115.c **** * Return         : error status (STC3115_OK, !STC3115_OK)
 166:../../core/drivers/STC3115/src/stc3115.c **** *******************************************************************************/
 167:../../core/drivers/STC3115/src/stc3115.c **** static int STC3115_WriteByte(int RegAddress, unsigned char Value)
 168:../../core/drivers/STC3115/src/stc3115.c **** {
 169:../../core/drivers/STC3115/src/stc3115.c ****   int res;
 170:../../core/drivers/STC3115/src/stc3115.c ****   unsigned char data[2];
 171:../../core/drivers/STC3115/src/stc3115.c **** 
 172:../../core/drivers/STC3115/src/stc3115.c ****   data[0]= Value;
 173:../../core/drivers/STC3115/src/stc3115.c ****   res = HAL_I2C_Mem_Write(hi2cLib, STC3115_SLAVE_ADDRESS_7BIT << 1, RegAddress, 1, (uint8_t *)data,
 174:../../core/drivers/STC3115/src/stc3115.c **** 	
 175:../../core/drivers/STC3115/src/stc3115.c ****   return(res);
 176:../../core/drivers/STC3115/src/stc3115.c **** 
 177:../../core/drivers/STC3115/src/stc3115.c **** }
 178:../../core/drivers/STC3115/src/stc3115.c **** 
 179:../../core/drivers/STC3115/src/stc3115.c **** 
 180:../../core/drivers/STC3115/src/stc3115.c **** /*******************************************************************************
 181:../../core/drivers/STC3115/src/stc3115.c **** * Function Name  : STC3115_ReadWord
 182:../../core/drivers/STC3115/src/stc3115.c **** * Description    : utility function to read the value stored in one register pair
 183:../../core/drivers/STC3115/src/stc3115.c **** * Input          : RegAddress: STC3115 register,
 184:../../core/drivers/STC3115/src/stc3115.c **** * Return         : 16-bit value, or 0 if error
 185:../../core/drivers/STC3115/src/stc3115.c **** *******************************************************************************/
 186:../../core/drivers/STC3115/src/stc3115.c **** static int STC3115_ReadWord(int RegAddress)
 187:../../core/drivers/STC3115/src/stc3115.c **** {
 188:../../core/drivers/STC3115/src/stc3115.c ****   int value;
 189:../../core/drivers/STC3115/src/stc3115.c ****   unsigned char data[2];
 190:../../core/drivers/STC3115/src/stc3115.c ****   int res;
 191:../../core/drivers/STC3115/src/stc3115.c **** 
 192:../../core/drivers/STC3115/src/stc3115.c ****   res = HAL_I2C_Mem_Read(hi2cLib, STC3115_SLAVE_ADDRESS_7BIT << 1, RegAddress, 1, (uint8_t *)data, 
 193:../../core/drivers/STC3115/src/stc3115.c ****   
 194:../../core/drivers/STC3115/src/stc3115.c ****   if (res >= 0)
 195:../../core/drivers/STC3115/src/stc3115.c ****   {
 196:../../core/drivers/STC3115/src/stc3115.c ****     /* no error */
 197:../../core/drivers/STC3115/src/stc3115.c ****     value = data[1];
 198:../../core/drivers/STC3115/src/stc3115.c ****     value = (value <<8) | data[0];
 199:../../core/drivers/STC3115/src/stc3115.c ****   }
 200:../../core/drivers/STC3115/src/stc3115.c ****   else
 201:../../core/drivers/STC3115/src/stc3115.c ****     value=-1;
 202:../../core/drivers/STC3115/src/stc3115.c **** 
 203:../../core/drivers/STC3115/src/stc3115.c ****   return(value);
ARM GAS  /tmp/ccnLq8Cp.s 			page 5


 204:../../core/drivers/STC3115/src/stc3115.c **** }
 205:../../core/drivers/STC3115/src/stc3115.c **** 
 206:../../core/drivers/STC3115/src/stc3115.c **** int STC3115_ReadUnsignedWord(unsigned short RegAddress, unsigned short * RegData)
 207:../../core/drivers/STC3115/src/stc3115.c **** {
 208:../../core/drivers/STC3115/src/stc3115.c ****   unsigned short data16;
 209:../../core/drivers/STC3115/src/stc3115.c ****   unsigned char data8[2];
 210:../../core/drivers/STC3115/src/stc3115.c ****   int status;
 211:../../core/drivers/STC3115/src/stc3115.c **** 
 212:../../core/drivers/STC3115/src/stc3115.c ****   status = HAL_I2C_Mem_Read(hi2cLib, STC3115_SLAVE_ADDRESS_7BIT << 1, RegAddress, 1, (uint8_t *)dat
 213:../../core/drivers/STC3115/src/stc3115.c ****   
 214:../../core/drivers/STC3115/src/stc3115.c ****   if (status >= 0)
 215:../../core/drivers/STC3115/src/stc3115.c ****   {
 216:../../core/drivers/STC3115/src/stc3115.c ****     /* no error */
 217:../../core/drivers/STC3115/src/stc3115.c ****     data16 = data8[1];
 218:../../core/drivers/STC3115/src/stc3115.c ****     data16 = (data16 <<8) | data8[0];
 219:../../core/drivers/STC3115/src/stc3115.c ****     *RegData = data16;
 220:../../core/drivers/STC3115/src/stc3115.c ****   }
 221:../../core/drivers/STC3115/src/stc3115.c ****   else
 222:../../core/drivers/STC3115/src/stc3115.c ****     status = -1;
 223:../../core/drivers/STC3115/src/stc3115.c **** 
 224:../../core/drivers/STC3115/src/stc3115.c ****   return(status);
 225:../../core/drivers/STC3115/src/stc3115.c **** }
 226:../../core/drivers/STC3115/src/stc3115.c **** 
 227:../../core/drivers/STC3115/src/stc3115.c **** /*******************************************************************************
 228:../../core/drivers/STC3115/src/stc3115.c **** * Function Name  : STC3115_WriteWord
 229:../../core/drivers/STC3115/src/stc3115.c **** * Description    : utility function to write a 16-bit value into a register pair
 230:../../core/drivers/STC3115/src/stc3115.c **** * Input          : RegAddress: STC3115 register, Value: 16-bit value to write
 231:../../core/drivers/STC3115/src/stc3115.c **** * Return         : error status (STC3115_OK, !STC3115_OK)
 232:../../core/drivers/STC3115/src/stc3115.c **** *******************************************************************************/
 233:../../core/drivers/STC3115/src/stc3115.c **** static int STC3115_WriteWord(int RegAddress, int Value)
 234:../../core/drivers/STC3115/src/stc3115.c **** {
 235:../../core/drivers/STC3115/src/stc3115.c ****   int res;
 236:../../core/drivers/STC3115/src/stc3115.c ****   unsigned char data[2];
 237:../../core/drivers/STC3115/src/stc3115.c **** 
 238:../../core/drivers/STC3115/src/stc3115.c ****   data[0]= Value & 0xff; 
 239:../../core/drivers/STC3115/src/stc3115.c ****   data[1]= (Value>>8) & 0xff;
 240:../../core/drivers/STC3115/src/stc3115.c ****   
 241:../../core/drivers/STC3115/src/stc3115.c ****   res = HAL_I2C_Mem_Write(hi2cLib, STC3115_SLAVE_ADDRESS_7BIT << 1, RegAddress, 1, (uint8_t *)data,
 242:../../core/drivers/STC3115/src/stc3115.c **** 	
 243:../../core/drivers/STC3115/src/stc3115.c ****   return(res);
 244:../../core/drivers/STC3115/src/stc3115.c **** 
 245:../../core/drivers/STC3115/src/stc3115.c **** }
 246:../../core/drivers/STC3115/src/stc3115.c **** 
 247:../../core/drivers/STC3115/src/stc3115.c **** /*******************************************************************************
 248:../../core/drivers/STC3115/src/stc3115.c **** * Function Name  : STC3115_ReadWord
 249:../../core/drivers/STC3115/src/stc3115.c **** * Description    : utility function to read the value stored in one register pair
 250:../../core/drivers/STC3115/src/stc3115.c **** * Input          : RegAddress: STC3115 register, nbr: number of bytes to read
 251:../../core/drivers/STC3115/src/stc3115.c **** * Return         : 16-bit value, or 0 if error
 252:../../core/drivers/STC3115/src/stc3115.c **** *******************************************************************************/
 253:../../core/drivers/STC3115/src/stc3115.c **** static int STC3115_ReadBytes(unsigned char *data,int RegAddress,int nbr)
 254:../../core/drivers/STC3115/src/stc3115.c **** {
 255:../../core/drivers/STC3115/src/stc3115.c ****   int res;
 256:../../core/drivers/STC3115/src/stc3115.c **** 
 257:../../core/drivers/STC3115/src/stc3115.c ****   res = HAL_I2C_Mem_Read(hi2cLib, STC3115_SLAVE_ADDRESS_7BIT << 1, RegAddress, 1, (uint8_t *)data, 
 258:../../core/drivers/STC3115/src/stc3115.c ****   
 259:../../core/drivers/STC3115/src/stc3115.c ****   return(res);
 260:../../core/drivers/STC3115/src/stc3115.c **** }
ARM GAS  /tmp/ccnLq8Cp.s 			page 6


 261:../../core/drivers/STC3115/src/stc3115.c **** 
 262:../../core/drivers/STC3115/src/stc3115.c **** 
 263:../../core/drivers/STC3115/src/stc3115.c **** /*******************************************************************************
 264:../../core/drivers/STC3115/src/stc3115.c **** * Function Name  : STC3115_WriteWord
 265:../../core/drivers/STC3115/src/stc3115.c **** * Description    : utility function to write a 16-bit value into a register pair
 266:../../core/drivers/STC3115/src/stc3115.c **** * Input          : RegAddress: STC3115 register, Value: 16-bit value to write, nbr: number of bytes
 267:../../core/drivers/STC3115/src/stc3115.c **** * Return         : error status (STC3115_OK, !STC3115_OK)
 268:../../core/drivers/STC3115/src/stc3115.c **** *******************************************************************************/
 269:../../core/drivers/STC3115/src/stc3115.c **** static int STC3115_WriteBytes(unsigned char *data,int RegAddress,int nbr)
 270:../../core/drivers/STC3115/src/stc3115.c **** {
 271:../../core/drivers/STC3115/src/stc3115.c ****   int res;
 272:../../core/drivers/STC3115/src/stc3115.c **** 
 273:../../core/drivers/STC3115/src/stc3115.c ****   res = HAL_I2C_Mem_Write(hi2cLib, STC3115_SLAVE_ADDRESS_7BIT << 1, RegAddress, 1, (uint8_t *)data,
 274:../../core/drivers/STC3115/src/stc3115.c **** 	
 275:../../core/drivers/STC3115/src/stc3115.c ****   return(res);
 276:../../core/drivers/STC3115/src/stc3115.c **** }
 277:../../core/drivers/STC3115/src/stc3115.c **** 
 278:../../core/drivers/STC3115/src/stc3115.c **** 
 279:../../core/drivers/STC3115/src/stc3115.c **** 
 280:../../core/drivers/STC3115/src/stc3115.c **** /* ---- End of I2C R/W interface --------------------------------------------- */
 281:../../core/drivers/STC3115/src/stc3115.c **** 
 282:../../core/drivers/STC3115/src/stc3115.c **** /* ---- Internal functions --------------------------------------------------- */
 283:../../core/drivers/STC3115/src/stc3115.c **** 
 284:../../core/drivers/STC3115/src/stc3115.c **** /*******************************************************************************
 285:../../core/drivers/STC3115/src/stc3115.c **** * Function Name  : STC3115_GetStatusWord
 286:../../core/drivers/STC3115/src/stc3115.c **** * Description    :  Read the STC3115 status
 287:../../core/drivers/STC3115/src/stc3115.c **** * Input          : None
 288:../../core/drivers/STC3115/src/stc3115.c **** * Return         : status word (16bit: REG_MODE and REG_CTRL), -1 if error
 289:../../core/drivers/STC3115/src/stc3115.c **** *******************************************************************************/
 290:../../core/drivers/STC3115/src/stc3115.c **** static int STC3115_GetStatusWord(void)
 291:../../core/drivers/STC3115/src/stc3115.c **** {
 292:../../core/drivers/STC3115/src/stc3115.c ****   int value;
 293:../../core/drivers/STC3115/src/stc3115.c **** 
 294:../../core/drivers/STC3115/src/stc3115.c ****   /* first, check the presence of the STC3115 by reading first byte of dev. ID */
 295:../../core/drivers/STC3115/src/stc3115.c ****   if (STC3115_ReadByte(STC3115_REG_ID)!= STC3115_ID) return (-1);
 296:../../core/drivers/STC3115/src/stc3115.c **** 
 297:../../core/drivers/STC3115/src/stc3115.c ****   /* read REG_MODE and REG_CTRL */
 298:../../core/drivers/STC3115/src/stc3115.c ****   value = STC3115_ReadWord(STC3115_REG_MODE);
 299:../../core/drivers/STC3115/src/stc3115.c ****   value &= 0x7fff;   //(MSbit is unused, but used for error dectection here)
 300:../../core/drivers/STC3115/src/stc3115.c **** 
 301:../../core/drivers/STC3115/src/stc3115.c ****   return (value);
 302:../../core/drivers/STC3115/src/stc3115.c **** }
 303:../../core/drivers/STC3115/src/stc3115.c **** 
 304:../../core/drivers/STC3115/src/stc3115.c **** 
 305:../../core/drivers/STC3115/src/stc3115.c **** /*******************************************************************************
 306:../../core/drivers/STC3115/src/stc3115.c **** * Function Name  : STC3115_CheckI2cDeviceId
 307:../../core/drivers/STC3115/src/stc3115.c **** * Description    :  Read the hardcoded STC3115 ID number
 308:../../core/drivers/STC3115/src/stc3115.c **** * Input          : pointer to char
 309:../../core/drivers/STC3115/src/stc3115.c **** * Return         : status, -1 if error, -2 if bad ID
 310:../../core/drivers/STC3115/src/stc3115.c **** *******************************************************************************/
 311:../../core/drivers/STC3115/src/stc3115.c **** int STC3115_CheckI2cDeviceId(void)
 312:../../core/drivers/STC3115/src/stc3115.c **** {
 313:../../core/drivers/STC3115/src/stc3115.c ****   unsigned char RegAddress;
 314:../../core/drivers/STC3115/src/stc3115.c ****   unsigned char data8;
 315:../../core/drivers/STC3115/src/stc3115.c ****   int status;
 316:../../core/drivers/STC3115/src/stc3115.c **** 
 317:../../core/drivers/STC3115/src/stc3115.c ****   RegAddress = STC3115_REG_ID;
ARM GAS  /tmp/ccnLq8Cp.s 			page 7


 318:../../core/drivers/STC3115/src/stc3115.c ****   status = HAL_I2C_Mem_Read(hi2cLib, STC3115_SLAVE_ADDRESS_7BIT << 1, RegAddress, 1, (uint8_t *)dat
 319:../../core/drivers/STC3115/src/stc3115.c **** 
 320:../../core/drivers/STC3115/src/stc3115.c ****   if (status >= 0)
 321:../../core/drivers/STC3115/src/stc3115.c ****   {
 322:../../core/drivers/STC3115/src/stc3115.c **** 	  if(data8 == STC3115_ID)
 323:../../core/drivers/STC3115/src/stc3115.c **** 	  {
 324:../../core/drivers/STC3115/src/stc3115.c **** 		  status = 0; //OK
 325:../../core/drivers/STC3115/src/stc3115.c **** 	  }
 326:../../core/drivers/STC3115/src/stc3115.c **** 	  else
 327:../../core/drivers/STC3115/src/stc3115.c **** 	  {
 328:../../core/drivers/STC3115/src/stc3115.c **** 		  status = -2; //I2C is working, but the ID doesn't match.
 329:../../core/drivers/STC3115/src/stc3115.c **** 	  }
 330:../../core/drivers/STC3115/src/stc3115.c ****   }
 331:../../core/drivers/STC3115/src/stc3115.c ****   else
 332:../../core/drivers/STC3115/src/stc3115.c ****   {
 333:../../core/drivers/STC3115/src/stc3115.c **** 	  status = -1; // I2C error
 334:../../core/drivers/STC3115/src/stc3115.c ****   }
 335:../../core/drivers/STC3115/src/stc3115.c **** 
 336:../../core/drivers/STC3115/src/stc3115.c ****   return(status);
 337:../../core/drivers/STC3115/src/stc3115.c **** }
 338:../../core/drivers/STC3115/src/stc3115.c **** 
 339:../../core/drivers/STC3115/src/stc3115.c **** /*******************************************************************************
 340:../../core/drivers/STC3115/src/stc3115.c **** * Function Name  : STC3115_GetRunningCounter
 341:../../core/drivers/STC3115/src/stc3115.c **** * Description    :  Get the STC3115 Convertion counter value
 342:../../core/drivers/STC3115/src/stc3115.c **** * Input          : None
 343:../../core/drivers/STC3115/src/stc3115.c **** * Return         : status word (REG_COUNTER), -1 if error
 344:../../core/drivers/STC3115/src/stc3115.c **** *******************************************************************************/
 345:../../core/drivers/STC3115/src/stc3115.c **** int STC3115_GetRunningCounter(void)
 346:../../core/drivers/STC3115/src/stc3115.c **** {
 347:../../core/drivers/STC3115/src/stc3115.c ****   unsigned short value;
 348:../../core/drivers/STC3115/src/stc3115.c ****   int status;
 349:../../core/drivers/STC3115/src/stc3115.c **** 
 350:../../core/drivers/STC3115/src/stc3115.c ****   /* read STC3115_REG_COUNTER */
 351:../../core/drivers/STC3115/src/stc3115.c ****   status = STC3115_ReadUnsignedWord(STC3115_REG_COUNTER, &value);
 352:../../core/drivers/STC3115/src/stc3115.c **** 
 353:../../core/drivers/STC3115/src/stc3115.c ****   if(status < 0) //error
 354:../../core/drivers/STC3115/src/stc3115.c **** 	  value = -1;
 355:../../core/drivers/STC3115/src/stc3115.c **** 
 356:../../core/drivers/STC3115/src/stc3115.c ****   return ((int)value);
 357:../../core/drivers/STC3115/src/stc3115.c **** }
 358:../../core/drivers/STC3115/src/stc3115.c **** 
 359:../../core/drivers/STC3115/src/stc3115.c **** /*******************************************************************************
 360:../../core/drivers/STC3115/src/stc3115.c **** * Function Name  : STC3115_SetParamAndRun
 361:../../core/drivers/STC3115/src/stc3115.c **** * Description    :  initialize the STC3115 parameters and Start the device to monitor the battery
 362:../../core/drivers/STC3115/src/stc3115.c **** * Input          : rst: init algo param
 363:../../core/drivers/STC3115/src/stc3115.c **** * Return         : 0
 364:../../core/drivers/STC3115/src/stc3115.c **** *******************************************************************************/
 365:../../core/drivers/STC3115/src/stc3115.c **** static void STC3115_SetParamAndRun(STC3115_ConfigData_TypeDef *ConfigData)
 366:../../core/drivers/STC3115/src/stc3115.c **** {
 367:../../core/drivers/STC3115/src/stc3115.c ****   int value;
 368:../../core/drivers/STC3115/src/stc3115.c ****   
 369:../../core/drivers/STC3115/src/stc3115.c ****   /* set GG_RUN=0 before changing algo parameters */
 370:../../core/drivers/STC3115/src/stc3115.c ****   STC3115_WriteByte(STC3115_REG_MODE, STC3115_REGMODE_DEFAULT_STANDBY);
 371:../../core/drivers/STC3115/src/stc3115.c ****   
 372:../../core/drivers/STC3115/src/stc3115.c ****   /* init OCV curve */
 373:../../core/drivers/STC3115/src/stc3115.c **** 	STC3115_WriteBytes((unsigned char*) ConfigData->OCVOffset, STC3115_REG_OCVTAB, STC3115_OCVTAB_SIZE
 374:../../core/drivers/STC3115/src/stc3115.c ****   
ARM GAS  /tmp/ccnLq8Cp.s 			page 8


 375:../../core/drivers/STC3115/src/stc3115.c ****   /* set alm level if different from default */
 376:../../core/drivers/STC3115/src/stc3115.c ****   if (ConfigData->Alm_SOC !=0 )   
 377:../../core/drivers/STC3115/src/stc3115.c ****      STC3115_WriteByte(STC3115_REG_ALARM_SOC,ConfigData->Alm_SOC*2); 
 378:../../core/drivers/STC3115/src/stc3115.c ****   if (ConfigData->Alm_Vbat !=0 ) 
 379:../../core/drivers/STC3115/src/stc3115.c ****   {
 380:../../core/drivers/STC3115/src/stc3115.c ****     value= ((long)(ConfigData->Alm_Vbat << 9) / VoltageFactor); /* LSB=8*2.2mV */
 381:../../core/drivers/STC3115/src/stc3115.c ****     STC3115_WriteByte(STC3115_REG_ALARM_VOLTAGE, value);
 382:../../core/drivers/STC3115/src/stc3115.c ****   }
 383:../../core/drivers/STC3115/src/stc3115.c ****     
 384:../../core/drivers/STC3115/src/stc3115.c ****   /* relaxation timer */
 385:../../core/drivers/STC3115/src/stc3115.c ****   if (ConfigData->Rsense !=0 )  
 386:../../core/drivers/STC3115/src/stc3115.c ****   {
 387:../../core/drivers/STC3115/src/stc3115.c ****     value= ((long)(ConfigData->RelaxCurrent << 9) / (CurrentFactor / ConfigData->Rsense));   /* LSB
 388:../../core/drivers/STC3115/src/stc3115.c ****     STC3115_WriteByte(STC3115_REG_CURRENT_THRES,value); 
 389:../../core/drivers/STC3115/src/stc3115.c ****   }
 390:../../core/drivers/STC3115/src/stc3115.c ****   
 391:../../core/drivers/STC3115/src/stc3115.c ****   /* set parameters VM_CNF and CC_CNF */
 392:../../core/drivers/STC3115/src/stc3115.c ****   if (ConfigData->CC_cnf != 0 ) STC3115_WriteWord(STC3115_REG_CC_CNF, ConfigData->CC_cnf);
 393:../../core/drivers/STC3115/src/stc3115.c ****   else STC3115_WriteWord(STC3115_REG_CC_CNF, 395); //force writing a default value at startup
 394:../../core/drivers/STC3115/src/stc3115.c ****   
 395:../../core/drivers/STC3115/src/stc3115.c ****   if (ConfigData->VM_cnf !=0 ) STC3115_WriteWord(STC3115_REG_VM_CNF, ConfigData->VM_cnf);
 396:../../core/drivers/STC3115/src/stc3115.c ****   else STC3115_WriteWord(STC3115_REG_VM_CNF, 321); //force writing a default value at startup
 397:../../core/drivers/STC3115/src/stc3115.c **** 
 398:../../core/drivers/STC3115/src/stc3115.c ****   //if (RAMData.reg.CC_cnf != 0) STC3115_WriteWord(STC3115_REG_CC_CNF, RAMData.reg.CC_cnf);
 399:../../core/drivers/STC3115/src/stc3115.c ****   //if (RAMData.reg.VM_cnf != 0) STC3115_WriteWord(STC3115_REG_VM_CNF, RAMData.reg.VM_cnf);
 400:../../core/drivers/STC3115/src/stc3115.c **** 
 401:../../core/drivers/STC3115/src/stc3115.c ****   STC3115_WriteByte(STC3115_REG_CTRL,0x03);  /*   clear PORDET, BATFAIL, free ALM pin, reset conv c
 402:../../core/drivers/STC3115/src/stc3115.c ****   STC3115_WriteByte(STC3115_REG_MODE, STC3115_GG_RUN | (STC3115_VMODE * ConfigData->Vmode) | (STC31
 403:../../core/drivers/STC3115/src/stc3115.c ****  
 404:../../core/drivers/STC3115/src/stc3115.c **** }
 405:../../core/drivers/STC3115/src/stc3115.c **** 
 406:../../core/drivers/STC3115/src/stc3115.c **** 
 407:../../core/drivers/STC3115/src/stc3115.c **** 
 408:../../core/drivers/STC3115/src/stc3115.c **** 
 409:../../core/drivers/STC3115/src/stc3115.c **** /*******************************************************************************
 410:../../core/drivers/STC3115/src/stc3115.c **** * Function Name  : STC3115_Startup
 411:../../core/drivers/STC3115/src/stc3115.c **** * Description    :  initialize and start the STC3115 at application startup
 412:../../core/drivers/STC3115/src/stc3115.c **** * Input          : None
 413:../../core/drivers/STC3115/src/stc3115.c **** * Return         : 0 if ok, -1 if error
 414:../../core/drivers/STC3115/src/stc3115.c **** *******************************************************************************/
 415:../../core/drivers/STC3115/src/stc3115.c **** static int STC3115_Startup(STC3115_ConfigData_TypeDef *ConfigData)
 416:../../core/drivers/STC3115/src/stc3115.c **** {
 417:../../core/drivers/STC3115/src/stc3115.c **** 	int res, HRSOC;
 418:../../core/drivers/STC3115/src/stc3115.c **** 	int ocv, ocv_min;
 419:../../core/drivers/STC3115/src/stc3115.c **** 	int OCVOffset[16] = OCV_OFFSET_TAB;
 420:../../core/drivers/STC3115/src/stc3115.c **** 
 421:../../core/drivers/STC3115/src/stc3115.c **** 	/* check STC31xx status */
 422:../../core/drivers/STC3115/src/stc3115.c **** 	res = STC3115_GetStatusWord();
 423:../../core/drivers/STC3115/src/stc3115.c **** 	if (res<0) return(res);
 424:../../core/drivers/STC3115/src/stc3115.c **** 
 425:../../core/drivers/STC3115/src/stc3115.c **** 	/* read OCV */
 426:../../core/drivers/STC3115/src/stc3115.c **** 	ocv = STC3115_ReadWord(STC3115_REG_OCV);
 427:../../core/drivers/STC3115/src/stc3115.c **** 
 428:../../core/drivers/STC3115/src/stc3115.c **** 	/* Check OCV integrity after reset: it must be above or equal to OCV min = 3300 (mV) + OCVOffset[0
 429:../../core/drivers/STC3115/src/stc3115.c **** 	ocv_min = 6000 + OCVOffset[0];
 430:../../core/drivers/STC3115/src/stc3115.c **** 	if (ocv <= ocv_min) 
 431:../../core/drivers/STC3115/src/stc3115.c **** 	{
ARM GAS  /tmp/ccnLq8Cp.s 			page 9


 432:../../core/drivers/STC3115/src/stc3115.c **** 		HRSOC = 0;
 433:../../core/drivers/STC3115/src/stc3115.c **** 		res = STC3115_WriteWord(STC3115_REG_SOC, HRSOC); //force both SOC and OCV to 0
 434:../../core/drivers/STC3115/src/stc3115.c **** 		STC3115_SetParamAndRun(ConfigData);  /* set STC3115 parameters and run it  */
 435:../../core/drivers/STC3115/src/stc3115.c **** 	}
 436:../../core/drivers/STC3115/src/stc3115.c **** 	else 
 437:../../core/drivers/STC3115/src/stc3115.c **** 	{
 438:../../core/drivers/STC3115/src/stc3115.c **** 		STC3115_SetParamAndRun(ConfigData);  /* set STC3115 parameters and run it  */
 439:../../core/drivers/STC3115/src/stc3115.c **** 		
 440:../../core/drivers/STC3115/src/stc3115.c **** 		/* rewrite ocv to start SOC with updated OCV curve */
 441:../../core/drivers/STC3115/src/stc3115.c **** 		res = STC3115_WriteWord(STC3115_REG_OCV, ocv);
 442:../../core/drivers/STC3115/src/stc3115.c **** 	}
 443:../../core/drivers/STC3115/src/stc3115.c **** 
 444:../../core/drivers/STC3115/src/stc3115.c **** 	return(0);
 445:../../core/drivers/STC3115/src/stc3115.c **** }
 446:../../core/drivers/STC3115/src/stc3115.c **** 
 447:../../core/drivers/STC3115/src/stc3115.c **** 
 448:../../core/drivers/STC3115/src/stc3115.c **** /*******************************************************************************
 449:../../core/drivers/STC3115/src/stc3115.c **** * Function Name  : STC3115_Restore
 450:../../core/drivers/STC3115/src/stc3115.c **** * Description    :  Restore STC3115 previous good state from values stored in internal 16byte RAM
 451:../../core/drivers/STC3115/src/stc3115.c **** * Input          : None
 452:../../core/drivers/STC3115/src/stc3115.c **** * Return         : 
 453:../../core/drivers/STC3115/src/stc3115.c **** *******************************************************************************/
 454:../../core/drivers/STC3115/src/stc3115.c **** static int STC3115_Restore(STC3115_ConfigData_TypeDef *ConfigData)
 455:../../core/drivers/STC3115/src/stc3115.c **** {
 456:../../core/drivers/STC3115/src/stc3115.c ****   int res;
 457:../../core/drivers/STC3115/src/stc3115.c **** 
 458:../../core/drivers/STC3115/src/stc3115.c ****   /* check STC31xx status */
 459:../../core/drivers/STC3115/src/stc3115.c ****   res = STC3115_GetStatusWord();
 460:../../core/drivers/STC3115/src/stc3115.c ****   if (res<0) return(res);
 461:../../core/drivers/STC3115/src/stc3115.c ****  
 462:../../core/drivers/STC3115/src/stc3115.c ****   STC3115_SetParamAndRun(ConfigData);  /* set STC3115 parameters and run it  */
 463:../../core/drivers/STC3115/src/stc3115.c **** 
 464:../../core/drivers/STC3115/src/stc3115.c ****   /* restore last SOC from STC3115 embedded RAM data for better accuracy */
 465:../../core/drivers/STC3115/src/stc3115.c ****   // Note: The latest SOC is saved every time GasGauge_Task() is called (i.e every 5s).
 466:../../core/drivers/STC3115/src/stc3115.c ****   STC3115_WriteWord(STC3115_REG_SOC,RAMData.reg.HRSOC); //force a new SoC to the fuel gauge
 467:../../core/drivers/STC3115/src/stc3115.c **** 
 468:../../core/drivers/STC3115/src/stc3115.c ****   return(0);
 469:../../core/drivers/STC3115/src/stc3115.c **** }
 470:../../core/drivers/STC3115/src/stc3115.c **** 
 471:../../core/drivers/STC3115/src/stc3115.c **** 
 472:../../core/drivers/STC3115/src/stc3115.c **** 
 473:../../core/drivers/STC3115/src/stc3115.c **** 
 474:../../core/drivers/STC3115/src/stc3115.c **** /*******************************************************************************
 475:../../core/drivers/STC3115/src/stc3115.c **** * Function Name  : STC3115_Powerdown
 476:../../core/drivers/STC3115/src/stc3115.c **** * Description    :  stop the STC3115 at application power down (i.e Standby mode with RAM content r
 477:../../core/drivers/STC3115/src/stc3115.c **** * Input          : None
 478:../../core/drivers/STC3115/src/stc3115.c **** * Return         : error status (STC3115_OK, !STC3115_OK)
 479:../../core/drivers/STC3115/src/stc3115.c **** *******************************************************************************/
 480:../../core/drivers/STC3115/src/stc3115.c **** static int STC3115_Powerdown(void)
 481:../../core/drivers/STC3115/src/stc3115.c **** {
 482:../../core/drivers/STC3115/src/stc3115.c ****   int res;
 483:../../core/drivers/STC3115/src/stc3115.c ****   
 484:../../core/drivers/STC3115/src/stc3115.c ****   /* write 0x01 into the REG_CTRL to release IO0 pin open, */
 485:../../core/drivers/STC3115/src/stc3115.c ****   STC3115_WriteByte(STC3115_REG_CTRL, 0x01);
 486:../../core/drivers/STC3115/src/stc3115.c **** 
 487:../../core/drivers/STC3115/src/stc3115.c ****   /* write 0 into the REG_MODE register to put the STC3115 in standby mode */
 488:../../core/drivers/STC3115/src/stc3115.c ****    res = STC3115_WriteByte(STC3115_REG_MODE, 0);
ARM GAS  /tmp/ccnLq8Cp.s 			page 10


 489:../../core/drivers/STC3115/src/stc3115.c ****    if (res!= STC3115_OK) return (res);
 490:../../core/drivers/STC3115/src/stc3115.c **** 
 491:../../core/drivers/STC3115/src/stc3115.c ****    return (STC3115_OK);
 492:../../core/drivers/STC3115/src/stc3115.c **** }
 493:../../core/drivers/STC3115/src/stc3115.c **** 
 494:../../core/drivers/STC3115/src/stc3115.c **** 
 495:../../core/drivers/STC3115/src/stc3115.c **** 
 496:../../core/drivers/STC3115/src/stc3115.c **** 
 497:../../core/drivers/STC3115/src/stc3115.c **** /*******************************************************************************
 498:../../core/drivers/STC3115/src/stc3115.c **** * Function Name  : STC3115_conv
 499:../../core/drivers/STC3115/src/stc3115.c **** * Description    : conversion utility 
 500:../../core/drivers/STC3115/src/stc3115.c **** *  convert a raw 16-bit value from STC3115 registers into user units (mA, mAh, mV, °C)
 501:../../core/drivers/STC3115/src/stc3115.c **** *  (optimized routine for efficient operation on 8-bit processors such as STM8)
 502:../../core/drivers/STC3115/src/stc3115.c **** * Input          : value, factor
 503:../../core/drivers/STC3115/src/stc3115.c **** * Return         : result = value * factor / 4096
 504:../../core/drivers/STC3115/src/stc3115.c **** *******************************************************************************/
 505:../../core/drivers/STC3115/src/stc3115.c **** static int STC3115_conv(short value, unsigned short factor)
 506:../../core/drivers/STC3115/src/stc3115.c **** {
  27              		.loc 1 506 0
  28              		.cfi_startproc
  29              		@ args = 0, pretend = 0, frame = 0
  30              		@ frame_needed = 0, uses_anonymous_args = 0
  31              		@ link register save eliminated.
  32              	.LVL0:
 507:../../core/drivers/STC3115/src/stc3115.c ****   int v;
 508:../../core/drivers/STC3115/src/stc3115.c ****   
 509:../../core/drivers/STC3115/src/stc3115.c ****   v= ( (long) value * factor ) >> 11;
  33              		.loc 1 509 0
  34 0000 00FB01F0 		mul	r0, r0, r1
  35              	.LVL1:
  36 0004 C012     		asrs	r0, r0, #11
  37              	.LVL2:
 510:../../core/drivers/STC3115/src/stc3115.c ****   v= (v+1)/2;
  38              		.loc 1 510 0
  39 0006 0130     		adds	r0, r0, #1
  40              	.LVL3:
  41 0008 00EBD070 		add	r0, r0, r0, lsr #31
  42              	.LVL4:
 511:../../core/drivers/STC3115/src/stc3115.c ****   
 512:../../core/drivers/STC3115/src/stc3115.c ****   return (v);
 513:../../core/drivers/STC3115/src/stc3115.c **** }
  43              		.loc 1 513 0
  44 000c 4010     		asrs	r0, r0, #1
  45              	.LVL5:
  46 000e 7047     		bx	lr
  47              		.cfi_endproc
  48              	.LFE137:
  50              		.section	.text.STC3115_CalcRamCRC8,"ax",%progbits
  51              		.align	1
  52              		.syntax unified
  53              		.thumb
  54              		.thumb_func
  55              		.fpu fpv4-sp-d16
  57              	STC3115_CalcRamCRC8:
  58              	.LFB141:
 514:../../core/drivers/STC3115/src/stc3115.c **** 
 515:../../core/drivers/STC3115/src/stc3115.c **** /*******************************************************************************
ARM GAS  /tmp/ccnLq8Cp.s 			page 11


 516:../../core/drivers/STC3115/src/stc3115.c **** * Function Name  : STC3115_ReadBatteryData
 517:../../core/drivers/STC3115/src/stc3115.c **** * Description    :  utility function to read the battery data from STC3115
 518:../../core/drivers/STC3115/src/stc3115.c **** *                  to be called every 5s or so
 519:../../core/drivers/STC3115/src/stc3115.c **** * Input          : ref to BatteryData structure
 520:../../core/drivers/STC3115/src/stc3115.c **** * Return         : error status (STC3115_OK, !STC3115_OK)
 521:../../core/drivers/STC3115/src/stc3115.c **** *******************************************************************************/
 522:../../core/drivers/STC3115/src/stc3115.c **** static int STC3115_ReadBatteryData(STC3115_BatteryData_TypeDef *BatteryData)
 523:../../core/drivers/STC3115/src/stc3115.c **** {
 524:../../core/drivers/STC3115/src/stc3115.c ****   unsigned char data[16];
 525:../../core/drivers/STC3115/src/stc3115.c ****   int res;
 526:../../core/drivers/STC3115/src/stc3115.c ****   int value;
 527:../../core/drivers/STC3115/src/stc3115.c **** 
 528:../../core/drivers/STC3115/src/stc3115.c **** 
 529:../../core/drivers/STC3115/src/stc3115.c ****   /* read STC3115 registers 0 to 14 */
 530:../../core/drivers/STC3115/src/stc3115.c **** 	res = STC3115_ReadBytes(data, 0, 15);
 531:../../core/drivers/STC3115/src/stc3115.c **** 	
 532:../../core/drivers/STC3115/src/stc3115.c ****   if (res<0) return(res);  /* read failed */
 533:../../core/drivers/STC3115/src/stc3115.c **** 	
 534:../../core/drivers/STC3115/src/stc3115.c ****   /* fill the battery status data */
 535:../../core/drivers/STC3115/src/stc3115.c ****   /* SOC */
 536:../../core/drivers/STC3115/src/stc3115.c ****   value=data[3]; value = (value<<8) + data[2];
 537:../../core/drivers/STC3115/src/stc3115.c ****   BatteryData->HRSOC = value;     /* result in 1/512% */
 538:../../core/drivers/STC3115/src/stc3115.c ****   BatteryData->SOC = (value * 10 + 256) / 512; /* result in 0.1% */
 539:../../core/drivers/STC3115/src/stc3115.c **** 
 540:../../core/drivers/STC3115/src/stc3115.c ****   /* conversion counter */
 541:../../core/drivers/STC3115/src/stc3115.c ****   value=data[5]; value = (value<<8) + data[4];
 542:../../core/drivers/STC3115/src/stc3115.c ****   BatteryData->ConvCounter = value;
 543:../../core/drivers/STC3115/src/stc3115.c **** 
 544:../../core/drivers/STC3115/src/stc3115.c ****   /* current */
 545:../../core/drivers/STC3115/src/stc3115.c ****   value=data[7]; value = (value<<8) + data[6];
 546:../../core/drivers/STC3115/src/stc3115.c ****   value &= 0x3fff;   /* mask unused bits */
 547:../../core/drivers/STC3115/src/stc3115.c ****   if (value>=0x2000) value = value - 0x4000;  /* convert to signed value */
 548:../../core/drivers/STC3115/src/stc3115.c ****   BatteryData->Current = STC3115_conv(value, CurrentFactor/RSENSE);  /* result in mA */
 549:../../core/drivers/STC3115/src/stc3115.c **** 
 550:../../core/drivers/STC3115/src/stc3115.c ****   /* voltage */
 551:../../core/drivers/STC3115/src/stc3115.c ****   value=data[9]; value = (value<<8) + data[8];
 552:../../core/drivers/STC3115/src/stc3115.c ****   value &= 0x0fff; /* mask unused bits */
 553:../../core/drivers/STC3115/src/stc3115.c ****   if (value>=0x0800) value -= 0x1000;  /* convert to signed value */
 554:../../core/drivers/STC3115/src/stc3115.c ****   value = STC3115_conv(value,VoltageFactor);  /* result in mV */
 555:../../core/drivers/STC3115/src/stc3115.c ****   BatteryData->Voltage = value;  /* result in mV */
 556:../../core/drivers/STC3115/src/stc3115.c **** 
 557:../../core/drivers/STC3115/src/stc3115.c ****   /* temperature */
 558:../../core/drivers/STC3115/src/stc3115.c ****   value=data[10]; 
 559:../../core/drivers/STC3115/src/stc3115.c ****   if (value>=0x80) value -= 0x100;  /* convert to signed value */
 560:../../core/drivers/STC3115/src/stc3115.c ****   BatteryData->Temperature = value*10;  /* result in 0.1°C */
 561:../../core/drivers/STC3115/src/stc3115.c **** 
 562:../../core/drivers/STC3115/src/stc3115.c ****   /* OCV */
 563:../../core/drivers/STC3115/src/stc3115.c ****   value=data[14]; value = (value<<8) + data[13];
 564:../../core/drivers/STC3115/src/stc3115.c ****   value &= 0x3fff; /* mask unused bits */
 565:../../core/drivers/STC3115/src/stc3115.c ****   if (value>=0x02000) value -= 0x4000;  /* convert to signed value */
 566:../../core/drivers/STC3115/src/stc3115.c ****   value = STC3115_conv(value,VoltageFactor);  
 567:../../core/drivers/STC3115/src/stc3115.c ****   value = (value+2) / 4;  /* divide by 4 with rounding */
 568:../../core/drivers/STC3115/src/stc3115.c ****   BatteryData->OCV = value;  /* result in mV */
 569:../../core/drivers/STC3115/src/stc3115.c ****   
 570:../../core/drivers/STC3115/src/stc3115.c **** //  res=STC3115_Read(1, STC3115_REG_RELAX_COUNT, data);
 571:../../core/drivers/STC3115/src/stc3115.c **** //  if (res<0) return(res);  /* read failed */
 572:../../core/drivers/STC3115/src/stc3115.c **** //  BatteryData->RelaxTimer = data[0];
ARM GAS  /tmp/ccnLq8Cp.s 			page 12


 573:../../core/drivers/STC3115/src/stc3115.c **** 
 574:../../core/drivers/STC3115/src/stc3115.c ****   
 575:../../core/drivers/STC3115/src/stc3115.c ****   return(STC3115_OK);
 576:../../core/drivers/STC3115/src/stc3115.c **** }
 577:../../core/drivers/STC3115/src/stc3115.c **** 
 578:../../core/drivers/STC3115/src/stc3115.c **** 
 579:../../core/drivers/STC3115/src/stc3115.c **** /*******************************************************************************
 580:../../core/drivers/STC3115/src/stc3115.c **** * Function Name  : STC3115_ReadRamData
 581:../../core/drivers/STC3115/src/stc3115.c **** * Description    : utility function to read the internal RAM data from STC3115
 582:../../core/drivers/STC3115/src/stc3115.c **** * Input          : ref to RAM data array
 583:../../core/drivers/STC3115/src/stc3115.c **** * Return         : error status (STC3115_OK, !STC3115_OK)
 584:../../core/drivers/STC3115/src/stc3115.c **** *******************************************************************************/
 585:../../core/drivers/STC3115/src/stc3115.c **** static int STC3115_ReadRamData(unsigned char *RamData)
 586:../../core/drivers/STC3115/src/stc3115.c **** {
 587:../../core/drivers/STC3115/src/stc3115.c **** 	return STC3115_ReadBytes(RamData, STC3115_REG_RAM, STC3115_RAM_SIZE);
 588:../../core/drivers/STC3115/src/stc3115.c **** }
 589:../../core/drivers/STC3115/src/stc3115.c **** 
 590:../../core/drivers/STC3115/src/stc3115.c **** /*******************************************************************************
 591:../../core/drivers/STC3115/src/stc3115.c **** * Function Name  : STC3115_WriteRamData
 592:../../core/drivers/STC3115/src/stc3115.c **** * Description    : utility function to write the RAM data into STC3115
 593:../../core/drivers/STC3115/src/stc3115.c **** * Input          : ref to RAM data array
 594:../../core/drivers/STC3115/src/stc3115.c **** * Return         : error status (STC3115_OK, !STC3115_OK)
 595:../../core/drivers/STC3115/src/stc3115.c **** *******************************************************************************/
 596:../../core/drivers/STC3115/src/stc3115.c **** static int STC3115_WriteRamData(unsigned char *RamData)
 597:../../core/drivers/STC3115/src/stc3115.c **** {
 598:../../core/drivers/STC3115/src/stc3115.c **** 	return STC3115_WriteBytes(RamData, STC3115_REG_RAM, STC3115_RAM_SIZE);
 599:../../core/drivers/STC3115/src/stc3115.c **** }
 600:../../core/drivers/STC3115/src/stc3115.c **** 
 601:../../core/drivers/STC3115/src/stc3115.c **** /*******************************************************************************
 602:../../core/drivers/STC3115/src/stc3115.c **** * Function Name  : STC3115_CalcRamCRC8
 603:../../core/drivers/STC3115/src/stc3115.c **** * Description    : calculate the CRC8
 604:../../core/drivers/STC3115/src/stc3115.c **** * Input          : data: pointer to byte array, n: number of vytes
 605:../../core/drivers/STC3115/src/stc3115.c **** * Return         : CRC calue
 606:../../core/drivers/STC3115/src/stc3115.c **** *******************************************************************************/
 607:../../core/drivers/STC3115/src/stc3115.c **** static int STC3115_CalcRamCRC8(unsigned char *data, int n)
 608:../../core/drivers/STC3115/src/stc3115.c **** {
  59              		.loc 1 608 0
  60              		.cfi_startproc
  61              		@ args = 0, pretend = 0, frame = 0
  62              		@ frame_needed = 0, uses_anonymous_args = 0
  63              		@ link register save eliminated.
  64              	.LVL6:
  65 0000 10B4     		push	{r4}
  66              	.LCFI0:
  67              		.cfi_def_cfa_offset 4
  68              		.cfi_offset 4, -4
  69              	.LVL7:
 609:../../core/drivers/STC3115/src/stc3115.c ****   int crc=0;   /* initial value */
 610:../../core/drivers/STC3115/src/stc3115.c ****   int i, j;
 611:../../core/drivers/STC3115/src/stc3115.c **** 
 612:../../core/drivers/STC3115/src/stc3115.c ****   for (i=0;i<n;i++)
  70              		.loc 1 612 0
  71 0002 0024     		movs	r4, #0
 609:../../core/drivers/STC3115/src/stc3115.c ****   int crc=0;   /* initial value */
  72              		.loc 1 609 0
  73 0004 2346     		mov	r3, r4
  74              		.loc 1 612 0
ARM GAS  /tmp/ccnLq8Cp.s 			page 13


  75 0006 0AE0     		b	.L3
  76              	.LVL8:
  77              	.L5:
 613:../../core/drivers/STC3115/src/stc3115.c ****   {
 614:../../core/drivers/STC3115/src/stc3115.c ****     crc ^= data[i];
 615:../../core/drivers/STC3115/src/stc3115.c ****     for (j=0;j<8;j++) 
  78              		.loc 1 615 0 discriminator 2
  79 0008 0132     		adds	r2, r2, #1
  80              	.LVL9:
  81              	.L4:
  82              		.loc 1 615 0 is_stmt 0 discriminator 1
  83 000a 072A     		cmp	r2, #7
  84 000c 06DC     		bgt	.L9
 616:../../core/drivers/STC3115/src/stc3115.c ****     {
 617:../../core/drivers/STC3115/src/stc3115.c ****       crc <<= 1;
  85              		.loc 1 617 0 is_stmt 1
  86 000e 5B00     		lsls	r3, r3, #1
  87              	.LVL10:
 618:../../core/drivers/STC3115/src/stc3115.c ****       if (crc & 0x100)  crc ^= 7;
  88              		.loc 1 618 0
  89 0010 13F4807F 		tst	r3, #256
  90 0014 F8D0     		beq	.L5
  91              		.loc 1 618 0 is_stmt 0 discriminator 1
  92 0016 83F00703 		eor	r3, r3, #7
  93              	.LVL11:
  94 001a F5E7     		b	.L5
  95              	.L9:
 612:../../core/drivers/STC3115/src/stc3115.c ****   {
  96              		.loc 1 612 0 is_stmt 1 discriminator 2
  97 001c 0134     		adds	r4, r4, #1
  98              	.LVL12:
  99              	.L3:
 612:../../core/drivers/STC3115/src/stc3115.c ****   {
 100              		.loc 1 612 0 is_stmt 0 discriminator 1
 101 001e 8C42     		cmp	r4, r1
 102 0020 03DA     		bge	.L10
 614:../../core/drivers/STC3115/src/stc3115.c ****     for (j=0;j<8;j++) 
 103              		.loc 1 614 0 is_stmt 1
 104 0022 025D     		ldrb	r2, [r0, r4]	@ zero_extendqisi2
 105 0024 5340     		eors	r3, r3, r2
 106              	.LVL13:
 615:../../core/drivers/STC3115/src/stc3115.c ****     {
 107              		.loc 1 615 0
 108 0026 0022     		movs	r2, #0
 109 0028 EFE7     		b	.L4
 110              	.LVL14:
 111              	.L10:
 619:../../core/drivers/STC3115/src/stc3115.c ****     }
 620:../../core/drivers/STC3115/src/stc3115.c ****   }
 621:../../core/drivers/STC3115/src/stc3115.c ****   return(crc & 255);
 622:../../core/drivers/STC3115/src/stc3115.c **** 
 623:../../core/drivers/STC3115/src/stc3115.c **** }
 112              		.loc 1 623 0
 113 002a D8B2     		uxtb	r0, r3
 114              	.LVL15:
 115 002c 5DF8044B 		ldr	r4, [sp], #4
 116              	.LCFI1:
ARM GAS  /tmp/ccnLq8Cp.s 			page 14


 117              		.cfi_restore 4
 118              		.cfi_def_cfa_offset 0
 119              	.LVL16:
 120 0030 7047     		bx	lr
 121              		.cfi_endproc
 122              	.LFE141:
 124              		.section	.text.STC3115_UpdateRamCRC,"ax",%progbits
 125              		.align	1
 126              		.syntax unified
 127              		.thumb
 128              		.thumb_func
 129              		.fpu fpv4-sp-d16
 131              	STC3115_UpdateRamCRC:
 132              	.LFB142:
 624:../../core/drivers/STC3115/src/stc3115.c **** 
 625:../../core/drivers/STC3115/src/stc3115.c **** /*******************************************************************************
 626:../../core/drivers/STC3115/src/stc3115.c **** * Function Name  : STC3115_UpdateRamCRC
 627:../../core/drivers/STC3115/src/stc3115.c **** * Description    : calculate the RAM CRC
 628:../../core/drivers/STC3115/src/stc3115.c **** * Input          : none
 629:../../core/drivers/STC3115/src/stc3115.c **** * Return         : CRC value
 630:../../core/drivers/STC3115/src/stc3115.c **** *******************************************************************************/
 631:../../core/drivers/STC3115/src/stc3115.c **** static int STC3115_UpdateRamCRC(void)
 632:../../core/drivers/STC3115/src/stc3115.c **** {
 133              		.loc 1 632 0
 134              		.cfi_startproc
 135              		@ args = 0, pretend = 0, frame = 0
 136              		@ frame_needed = 0, uses_anonymous_args = 0
 137 0000 10B5     		push	{r4, lr}
 138              	.LCFI2:
 139              		.cfi_def_cfa_offset 8
 140              		.cfi_offset 4, -8
 141              		.cfi_offset 14, -4
 633:../../core/drivers/STC3115/src/stc3115.c ****   int res;
 634:../../core/drivers/STC3115/src/stc3115.c ****   
 635:../../core/drivers/STC3115/src/stc3115.c ****   res=STC3115_CalcRamCRC8(RAMData.db,STC3115_RAM_SIZE-1);
 142              		.loc 1 635 0
 143 0002 034C     		ldr	r4, .L13
 144 0004 0F21     		movs	r1, #15
 145 0006 2046     		mov	r0, r4
 146 0008 FFF7FEFF 		bl	STC3115_CalcRamCRC8
 147              	.LVL17:
 636:../../core/drivers/STC3115/src/stc3115.c ****   RAMData.db[STC3115_RAM_SIZE-1] = res;   /* last byte holds the CRC */
 148              		.loc 1 636 0
 149 000c E073     		strb	r0, [r4, #15]
 637:../../core/drivers/STC3115/src/stc3115.c ****   return(res);
 638:../../core/drivers/STC3115/src/stc3115.c **** }
 150              		.loc 1 638 0
 151 000e 10BD     		pop	{r4, pc}
 152              	.L14:
 153              		.align	2
 154              	.L13:
 155 0010 00000000 		.word	.LANCHOR0
 156              		.cfi_endproc
 157              	.LFE142:
 159              		.section	.text.STC3115_InitRamData,"ax",%progbits
 160              		.align	1
 161              		.syntax unified
ARM GAS  /tmp/ccnLq8Cp.s 			page 15


 162              		.thumb
 163              		.thumb_func
 164              		.fpu fpv4-sp-d16
 166              	STC3115_InitRamData:
 167              	.LFB143:
 639:../../core/drivers/STC3115/src/stc3115.c **** 
 640:../../core/drivers/STC3115/src/stc3115.c **** /*******************************************************************************
 641:../../core/drivers/STC3115/src/stc3115.c **** * Function Name  : STC3115_InitRamData
 642:../../core/drivers/STC3115/src/stc3115.c **** * Description    : Init the STC3115 RAM registers with valid test word and CRC
 643:../../core/drivers/STC3115/src/stc3115.c **** * Input          : STC3115_ConfigData_TypeDef structure
 644:../../core/drivers/STC3115/src/stc3115.c **** * Return         : none
 645:../../core/drivers/STC3115/src/stc3115.c **** *******************************************************************************/
 646:../../core/drivers/STC3115/src/stc3115.c **** static void STC3115_InitRamData(STC3115_ConfigData_TypeDef *ConfigData)
 647:../../core/drivers/STC3115/src/stc3115.c **** {
 168              		.loc 1 647 0
 169              		.cfi_startproc
 170              		@ args = 0, pretend = 0, frame = 0
 171              		@ frame_needed = 0, uses_anonymous_args = 0
 172              	.LVL18:
 173 0000 08B5     		push	{r3, lr}
 174              	.LCFI3:
 175              		.cfi_def_cfa_offset 8
 176              		.cfi_offset 3, -8
 177              		.cfi_offset 14, -4
 178              	.LVL19:
 648:../../core/drivers/STC3115/src/stc3115.c ****   int index;
 649:../../core/drivers/STC3115/src/stc3115.c **** 
 650:../../core/drivers/STC3115/src/stc3115.c ****   //Set full RAM tab to 0
 651:../../core/drivers/STC3115/src/stc3115.c ****   for (index=0;index<STC3115_RAM_SIZE;index++) 
 179              		.loc 1 651 0
 180 0002 0023     		movs	r3, #0
 181 0004 03E0     		b	.L16
 182              	.LVL20:
 183              	.L17:
 652:../../core/drivers/STC3115/src/stc3115.c ****     RAMData.db[index]=0;
 184              		.loc 1 652 0 discriminator 3
 185 0006 084A     		ldr	r2, .L19
 186 0008 0021     		movs	r1, #0
 187 000a D154     		strb	r1, [r2, r3]
 651:../../core/drivers/STC3115/src/stc3115.c ****     RAMData.db[index]=0;
 188              		.loc 1 651 0 discriminator 3
 189 000c 0133     		adds	r3, r3, #1
 190              	.LVL21:
 191              	.L16:
 651:../../core/drivers/STC3115/src/stc3115.c ****     RAMData.db[index]=0;
 192              		.loc 1 651 0 is_stmt 0 discriminator 1
 193 000e 0F2B     		cmp	r3, #15
 194 0010 F9DD     		ble	.L17
 653:../../core/drivers/STC3115/src/stc3115.c ****   
 654:../../core/drivers/STC3115/src/stc3115.c ****   //Fill RAM regs
 655:../../core/drivers/STC3115/src/stc3115.c ****   RAMData.reg.TestWord=RAM_TESTWORD;  /* Fixed word to check RAM integrity */
 195              		.loc 1 655 0 is_stmt 1
 196 0012 054B     		ldr	r3, .L19
 197              	.LVL22:
 198 0014 45F2A932 		movw	r2, #21417
 199 0018 1A80     		strh	r2, [r3]	@ movhi
 656:../../core/drivers/STC3115/src/stc3115.c ****   RAMData.reg.CC_cnf = ConfigData->CC_cnf;
ARM GAS  /tmp/ccnLq8Cp.s 			page 16


 200              		.loc 1 656 0
 201 001a C268     		ldr	r2, [r0, #12]
 202 001c 9A80     		strh	r2, [r3, #4]	@ movhi
 657:../../core/drivers/STC3115/src/stc3115.c ****   RAMData.reg.VM_cnf = ConfigData->VM_cnf;
 203              		.loc 1 657 0
 204 001e 0269     		ldr	r2, [r0, #16]
 205 0020 DA80     		strh	r2, [r3, #6]	@ movhi
 658:../../core/drivers/STC3115/src/stc3115.c ****   
 659:../../core/drivers/STC3115/src/stc3115.c ****   /* update the crc */
 660:../../core/drivers/STC3115/src/stc3115.c ****   STC3115_UpdateRamCRC();
 206              		.loc 1 660 0
 207 0022 FFF7FEFF 		bl	STC3115_UpdateRamCRC
 208              	.LVL23:
 661:../../core/drivers/STC3115/src/stc3115.c **** }
 209              		.loc 1 661 0
 210 0026 08BD     		pop	{r3, pc}
 211              	.L20:
 212              		.align	2
 213              	.L19:
 214 0028 00000000 		.word	.LANCHOR0
 215              		.cfi_endproc
 216              	.LFE143:
 218              		.section	.text.STC3115_ReadBytes,"ax",%progbits
 219              		.align	1
 220              		.syntax unified
 221              		.thumb
 222              		.thumb_func
 223              		.fpu fpv4-sp-d16
 225              	STC3115_ReadBytes:
 226              	.LFB128:
 254:../../core/drivers/STC3115/src/stc3115.c ****   int res;
 227              		.loc 1 254 0
 228              		.cfi_startproc
 229              		@ args = 0, pretend = 0, frame = 0
 230              		@ frame_needed = 0, uses_anonymous_args = 0
 231              	.LVL24:
 232 0000 10B5     		push	{r4, lr}
 233              	.LCFI4:
 234              		.cfi_def_cfa_offset 8
 235              		.cfi_offset 4, -8
 236              		.cfi_offset 14, -4
 237 0002 84B0     		sub	sp, sp, #16
 238              	.LCFI5:
 239              		.cfi_def_cfa_offset 24
 257:../../core/drivers/STC3115/src/stc3115.c ****   
 240              		.loc 1 257 0
 241 0004 074B     		ldr	r3, .L23
 242 0006 1C68     		ldr	r4, [r3]
 243 0008 4FF47A73 		mov	r3, #1000
 244 000c 0293     		str	r3, [sp, #8]
 245 000e 92B2     		uxth	r2, r2
 246              	.LVL25:
 247 0010 0192     		str	r2, [sp, #4]
 248 0012 0090     		str	r0, [sp]
 249 0014 0123     		movs	r3, #1
 250 0016 8AB2     		uxth	r2, r1
 251 0018 E021     		movs	r1, #224
ARM GAS  /tmp/ccnLq8Cp.s 			page 17


 252              	.LVL26:
 253 001a 2046     		mov	r0, r4
 254              	.LVL27:
 255 001c FFF7FEFF 		bl	HAL_I2C_Mem_Read
 256              	.LVL28:
 260:../../core/drivers/STC3115/src/stc3115.c **** 
 257              		.loc 1 260 0
 258 0020 04B0     		add	sp, sp, #16
 259              	.LCFI6:
 260              		.cfi_def_cfa_offset 8
 261              		@ sp needed
 262 0022 10BD     		pop	{r4, pc}
 263              	.L24:
 264              		.align	2
 265              	.L23:
 266 0024 00000000 		.word	.LANCHOR1
 267              		.cfi_endproc
 268              	.LFE128:
 270              		.section	.text.STC3115_ReadRamData,"ax",%progbits
 271              		.align	1
 272              		.syntax unified
 273              		.thumb
 274              		.thumb_func
 275              		.fpu fpv4-sp-d16
 277              	STC3115_ReadRamData:
 278              	.LFB139:
 586:../../core/drivers/STC3115/src/stc3115.c **** 	return STC3115_ReadBytes(RamData, STC3115_REG_RAM, STC3115_RAM_SIZE);
 279              		.loc 1 586 0
 280              		.cfi_startproc
 281              		@ args = 0, pretend = 0, frame = 0
 282              		@ frame_needed = 0, uses_anonymous_args = 0
 283              	.LVL29:
 284 0000 08B5     		push	{r3, lr}
 285              	.LCFI7:
 286              		.cfi_def_cfa_offset 8
 287              		.cfi_offset 3, -8
 288              		.cfi_offset 14, -4
 587:../../core/drivers/STC3115/src/stc3115.c **** }
 289              		.loc 1 587 0
 290 0002 1022     		movs	r2, #16
 291 0004 2021     		movs	r1, #32
 292 0006 FFF7FEFF 		bl	STC3115_ReadBytes
 293              	.LVL30:
 588:../../core/drivers/STC3115/src/stc3115.c **** 
 294              		.loc 1 588 0
 295 000a 08BD     		pop	{r3, pc}
 296              		.cfi_endproc
 297              	.LFE139:
 299              		.section	.text.STC3115_ReadBatteryData,"ax",%progbits
 300              		.align	1
 301              		.syntax unified
 302              		.thumb
 303              		.thumb_func
 304              		.fpu fpv4-sp-d16
 306              	STC3115_ReadBatteryData:
 307              	.LFB138:
 523:../../core/drivers/STC3115/src/stc3115.c ****   unsigned char data[16];
ARM GAS  /tmp/ccnLq8Cp.s 			page 18


 308              		.loc 1 523 0
 309              		.cfi_startproc
 310              		@ args = 0, pretend = 0, frame = 16
 311              		@ frame_needed = 0, uses_anonymous_args = 0
 312              	.LVL31:
 313 0000 10B5     		push	{r4, lr}
 314              	.LCFI8:
 315              		.cfi_def_cfa_offset 8
 316              		.cfi_offset 4, -8
 317              		.cfi_offset 14, -4
 318 0002 84B0     		sub	sp, sp, #16
 319              	.LCFI9:
 320              		.cfi_def_cfa_offset 24
 321 0004 0446     		mov	r4, r0
 530:../../core/drivers/STC3115/src/stc3115.c **** 	
 322              		.loc 1 530 0
 323 0006 0F22     		movs	r2, #15
 324 0008 0021     		movs	r1, #0
 325 000a 6846     		mov	r0, sp
 326              	.LVL32:
 327 000c FFF7FEFF 		bl	STC3115_ReadBytes
 328              	.LVL33:
 532:../../core/drivers/STC3115/src/stc3115.c **** 	
 329              		.loc 1 532 0
 330 0010 0028     		cmp	r0, #0
 331 0012 58DB     		blt	.L27
 536:../../core/drivers/STC3115/src/stc3115.c ****   BatteryData->HRSOC = value;     /* result in 1/512% */
 332              		.loc 1 536 0
 333 0014 9DF80320 		ldrb	r2, [sp, #3]	@ zero_extendqisi2
 334              	.LVL34:
 335 0018 9DF80230 		ldrb	r3, [sp, #2]	@ zero_extendqisi2
 336 001c 03EB0223 		add	r3, r3, r2, lsl #8
 337              	.LVL35:
 537:../../core/drivers/STC3115/src/stc3115.c ****   BatteryData->SOC = (value * 10 + 256) / 512; /* result in 0.1% */
 338              		.loc 1 537 0
 339 0020 6360     		str	r3, [r4, #4]
 538:../../core/drivers/STC3115/src/stc3115.c **** 
 340              		.loc 1 538 0
 341 0022 03EB8303 		add	r3, r3, r3, lsl #2
 342              	.LVL36:
 343 0026 5A00     		lsls	r2, r3, #1
 344 0028 02F58072 		add	r2, r2, #256
 345 002c 5212     		asrs	r2, r2, #9
 346 002e A260     		str	r2, [r4, #8]
 541:../../core/drivers/STC3115/src/stc3115.c ****   BatteryData->ConvCounter = value;
 347              		.loc 1 541 0
 348 0030 9DF80520 		ldrb	r2, [sp, #5]	@ zero_extendqisi2
 349              	.LVL37:
 350 0034 9DF80430 		ldrb	r3, [sp, #4]	@ zero_extendqisi2
 351 0038 03EB0223 		add	r3, r3, r2, lsl #8
 352              	.LVL38:
 542:../../core/drivers/STC3115/src/stc3115.c **** 
 353              		.loc 1 542 0
 354 003c A361     		str	r3, [r4, #24]
 545:../../core/drivers/STC3115/src/stc3115.c ****   value &= 0x3fff;   /* mask unused bits */
 355              		.loc 1 545 0
 356 003e 9DF80730 		ldrb	r3, [sp, #7]	@ zero_extendqisi2
ARM GAS  /tmp/ccnLq8Cp.s 			page 19


 357              	.LVL39:
 358 0042 9DF80600 		ldrb	r0, [sp, #6]	@ zero_extendqisi2
 359              	.LVL40:
 360 0046 00EB0320 		add	r0, r0, r3, lsl #8
 361              	.LVL41:
 546:../../core/drivers/STC3115/src/stc3115.c ****   if (value>=0x2000) value = value - 0x4000;  /* convert to signed value */
 362              		.loc 1 546 0
 363 004a C0F30D00 		ubfx	r0, r0, #0, #14
 364              	.LVL42:
 547:../../core/drivers/STC3115/src/stc3115.c ****   BatteryData->Current = STC3115_conv(value, CurrentFactor/RSENSE);  /* result in mA */
 365              		.loc 1 547 0
 366 004e B0F5005F 		cmp	r0, #8192
 367 0052 01DB     		blt	.L30
 547:../../core/drivers/STC3115/src/stc3115.c ****   BatteryData->Current = STC3115_conv(value, CurrentFactor/RSENSE);  /* result in mA */
 368              		.loc 1 547 0 is_stmt 0 discriminator 1
 369 0054 A0F58040 		sub	r0, r0, #16384
 370              	.LVL43:
 371              	.L30:
 548:../../core/drivers/STC3115/src/stc3115.c **** 
 372              		.loc 1 548 0 is_stmt 1
 373 0058 40F2E111 		movw	r1, #481
 374 005c FFF7FEFF 		bl	STC3115_conv
 375              	.LVL44:
 376 0060 2061     		str	r0, [r4, #16]
 551:../../core/drivers/STC3115/src/stc3115.c ****   value &= 0x0fff; /* mask unused bits */
 377              		.loc 1 551 0
 378 0062 9DF80930 		ldrb	r3, [sp, #9]	@ zero_extendqisi2
 379              	.LVL45:
 380 0066 9DF80800 		ldrb	r0, [sp, #8]	@ zero_extendqisi2
 381 006a 00EB0320 		add	r0, r0, r3, lsl #8
 382              	.LVL46:
 552:../../core/drivers/STC3115/src/stc3115.c ****   if (value>=0x0800) value -= 0x1000;  /* convert to signed value */
 383              		.loc 1 552 0
 384 006e C0F30B00 		ubfx	r0, r0, #0, #12
 385              	.LVL47:
 553:../../core/drivers/STC3115/src/stc3115.c ****   value = STC3115_conv(value,VoltageFactor);  /* result in mV */
 386              		.loc 1 553 0
 387 0072 B0F5006F 		cmp	r0, #2048
 388 0076 01DB     		blt	.L31
 553:../../core/drivers/STC3115/src/stc3115.c ****   value = STC3115_conv(value,VoltageFactor);  /* result in mV */
 389              		.loc 1 553 0 is_stmt 0 discriminator 1
 390 0078 A0F58050 		sub	r0, r0, #4096
 391              	.LVL48:
 392              	.L31:
 554:../../core/drivers/STC3115/src/stc3115.c ****   BatteryData->Voltage = value;  /* result in mV */
 393              		.loc 1 554 0 is_stmt 1
 394 007c 42F23331 		movw	r1, #9011
 395 0080 FFF7FEFF 		bl	STC3115_conv
 396              	.LVL49:
 555:../../core/drivers/STC3115/src/stc3115.c **** 
 397              		.loc 1 555 0
 398 0084 E060     		str	r0, [r4, #12]
 558:../../core/drivers/STC3115/src/stc3115.c ****   if (value>=0x80) value -= 0x100;  /* convert to signed value */
 399              		.loc 1 558 0
 400 0086 9DF80A30 		ldrb	r3, [sp, #10]	@ zero_extendqisi2
 401              	.LVL50:
 559:../../core/drivers/STC3115/src/stc3115.c ****   BatteryData->Temperature = value*10;  /* result in 0.1°C */
ARM GAS  /tmp/ccnLq8Cp.s 			page 20


 402              		.loc 1 559 0
 403 008a 7F2B     		cmp	r3, #127
 404 008c 01DD     		ble	.L32
 559:../../core/drivers/STC3115/src/stc3115.c ****   BatteryData->Temperature = value*10;  /* result in 0.1°C */
 405              		.loc 1 559 0 is_stmt 0 discriminator 1
 406 008e A3F58073 		sub	r3, r3, #256
 407              	.LVL51:
 408              	.L32:
 560:../../core/drivers/STC3115/src/stc3115.c **** 
 409              		.loc 1 560 0 is_stmt 1
 410 0092 03EB8303 		add	r3, r3, r3, lsl #2
 411              	.LVL52:
 412 0096 5A00     		lsls	r2, r3, #1
 413 0098 6261     		str	r2, [r4, #20]
 563:../../core/drivers/STC3115/src/stc3115.c ****   value &= 0x3fff; /* mask unused bits */
 414              		.loc 1 563 0
 415 009a 9DF80E30 		ldrb	r3, [sp, #14]	@ zero_extendqisi2
 416              	.LVL53:
 417 009e 9DF80D00 		ldrb	r0, [sp, #13]	@ zero_extendqisi2
 418 00a2 00EB0320 		add	r0, r0, r3, lsl #8
 419              	.LVL54:
 564:../../core/drivers/STC3115/src/stc3115.c ****   if (value>=0x02000) value -= 0x4000;  /* convert to signed value */
 420              		.loc 1 564 0
 421 00a6 C0F30D00 		ubfx	r0, r0, #0, #14
 422              	.LVL55:
 565:../../core/drivers/STC3115/src/stc3115.c ****   value = STC3115_conv(value,VoltageFactor);  
 423              		.loc 1 565 0
 424 00aa B0F5005F 		cmp	r0, #8192
 425 00ae 01DB     		blt	.L33
 565:../../core/drivers/STC3115/src/stc3115.c ****   value = STC3115_conv(value,VoltageFactor);  
 426              		.loc 1 565 0 is_stmt 0 discriminator 1
 427 00b0 A0F58040 		sub	r0, r0, #16384
 428              	.LVL56:
 429              	.L33:
 566:../../core/drivers/STC3115/src/stc3115.c ****   value = (value+2) / 4;  /* divide by 4 with rounding */
 430              		.loc 1 566 0 is_stmt 1
 431 00b4 42F23331 		movw	r1, #9011
 432 00b8 FFF7FEFF 		bl	STC3115_conv
 433              	.LVL57:
 567:../../core/drivers/STC3115/src/stc3115.c ****   BatteryData->OCV = value;  /* result in mV */
 434              		.loc 1 567 0
 435 00bc 0230     		adds	r0, r0, #2
 436              	.LVL58:
 437 00be 04D4     		bmi	.L36
 438              	.LVL59:
 439              	.L34:
 440 00c0 8010     		asrs	r0, r0, #2
 441              	.LVL60:
 568:../../core/drivers/STC3115/src/stc3115.c ****   
 442              		.loc 1 568 0
 443 00c2 E061     		str	r0, [r4, #28]
 575:../../core/drivers/STC3115/src/stc3115.c **** }
 444              		.loc 1 575 0
 445 00c4 0020     		movs	r0, #0
 446              	.LVL61:
 447              	.L27:
 576:../../core/drivers/STC3115/src/stc3115.c **** 
ARM GAS  /tmp/ccnLq8Cp.s 			page 21


 448              		.loc 1 576 0
 449 00c6 04B0     		add	sp, sp, #16
 450              	.LCFI10:
 451              		.cfi_remember_state
 452              		.cfi_def_cfa_offset 8
 453              		@ sp needed
 454 00c8 10BD     		pop	{r4, pc}
 455              	.LVL62:
 456              	.L36:
 457              	.LCFI11:
 458              		.cfi_restore_state
 567:../../core/drivers/STC3115/src/stc3115.c ****   BatteryData->OCV = value;  /* result in mV */
 459              		.loc 1 567 0
 460 00ca 0330     		adds	r0, r0, #3
 461              	.LVL63:
 462 00cc F8E7     		b	.L34
 463              		.cfi_endproc
 464              	.LFE138:
 466              		.section	.text.STC3115_ReadByte,"ax",%progbits
 467              		.align	1
 468              		.syntax unified
 469              		.thumb
 470              		.thumb_func
 471              		.fpu fpv4-sp-d16
 473              	STC3115_ReadByte:
 474              	.LFB123:
 142:../../core/drivers/STC3115/src/stc3115.c ****   int value;
 475              		.loc 1 142 0
 476              		.cfi_startproc
 477              		@ args = 0, pretend = 0, frame = 8
 478              		@ frame_needed = 0, uses_anonymous_args = 0
 479              	.LVL64:
 480 0000 10B5     		push	{r4, lr}
 481              	.LCFI12:
 482              		.cfi_def_cfa_offset 8
 483              		.cfi_offset 4, -8
 484              		.cfi_offset 14, -4
 485 0002 86B0     		sub	sp, sp, #24
 486              	.LCFI13:
 487              		.cfi_def_cfa_offset 32
 146:../../core/drivers/STC3115/src/stc3115.c **** 	
 488              		.loc 1 146 0
 489 0004 084B     		ldr	r3, .L39
 490 0006 1C68     		ldr	r4, [r3]
 491 0008 4FF47A73 		mov	r3, #1000
 492 000c 0293     		str	r3, [sp, #8]
 493 000e 0123     		movs	r3, #1
 494 0010 0193     		str	r3, [sp, #4]
 495 0012 05AA     		add	r2, sp, #20
 496 0014 0092     		str	r2, [sp]
 497 0016 82B2     		uxth	r2, r0
 498 0018 E021     		movs	r1, #224
 499 001a 2046     		mov	r0, r4
 500              	.LVL65:
 501 001c FFF7FEFF 		bl	HAL_I2C_Mem_Read
 502              	.LVL66:
 157:../../core/drivers/STC3115/src/stc3115.c **** 
ARM GAS  /tmp/ccnLq8Cp.s 			page 22


 503              		.loc 1 157 0
 504 0020 9DF81400 		ldrb	r0, [sp, #20]	@ zero_extendqisi2
 505              	.LVL67:
 506 0024 06B0     		add	sp, sp, #24
 507              	.LCFI14:
 508              		.cfi_def_cfa_offset 8
 509              		@ sp needed
 510 0026 10BD     		pop	{r4, pc}
 511              	.L40:
 512              		.align	2
 513              	.L39:
 514 0028 00000000 		.word	.LANCHOR1
 515              		.cfi_endproc
 516              	.LFE123:
 518              		.section	.text.STC3115_ReadWord,"ax",%progbits
 519              		.align	1
 520              		.syntax unified
 521              		.thumb
 522              		.thumb_func
 523              		.fpu fpv4-sp-d16
 525              	STC3115_ReadWord:
 526              	.LFB125:
 187:../../core/drivers/STC3115/src/stc3115.c ****   int value;
 527              		.loc 1 187 0
 528              		.cfi_startproc
 529              		@ args = 0, pretend = 0, frame = 8
 530              		@ frame_needed = 0, uses_anonymous_args = 0
 531              	.LVL68:
 532 0000 10B5     		push	{r4, lr}
 533              	.LCFI15:
 534              		.cfi_def_cfa_offset 8
 535              		.cfi_offset 4, -8
 536              		.cfi_offset 14, -4
 537 0002 86B0     		sub	sp, sp, #24
 538              	.LCFI16:
 539              		.cfi_def_cfa_offset 32
 192:../../core/drivers/STC3115/src/stc3115.c ****   
 540              		.loc 1 192 0
 541 0004 0B4B     		ldr	r3, .L43
 542 0006 1C68     		ldr	r4, [r3]
 543 0008 4FF47A73 		mov	r3, #1000
 544 000c 0293     		str	r3, [sp, #8]
 545 000e 0223     		movs	r3, #2
 546 0010 0193     		str	r3, [sp, #4]
 547 0012 05AB     		add	r3, sp, #20
 548 0014 0093     		str	r3, [sp]
 549 0016 0123     		movs	r3, #1
 550 0018 82B2     		uxth	r2, r0
 551 001a E021     		movs	r1, #224
 552 001c 2046     		mov	r0, r4
 553              	.LVL69:
 554 001e FFF7FEFF 		bl	HAL_I2C_Mem_Read
 555              	.LVL70:
 197:../../core/drivers/STC3115/src/stc3115.c ****     value = (value <<8) | data[0];
 556              		.loc 1 197 0
 557 0022 9DF81500 		ldrb	r0, [sp, #21]	@ zero_extendqisi2
 558              	.LVL71:
ARM GAS  /tmp/ccnLq8Cp.s 			page 23


 198:../../core/drivers/STC3115/src/stc3115.c ****   }
 559              		.loc 1 198 0
 560 0026 9DF81430 		ldrb	r3, [sp, #20]	@ zero_extendqisi2
 561              	.LVL72:
 204:../../core/drivers/STC3115/src/stc3115.c **** 
 562              		.loc 1 204 0
 563 002a 43EA0020 		orr	r0, r3, r0, lsl #8
 564              	.LVL73:
 565 002e 06B0     		add	sp, sp, #24
 566              	.LCFI17:
 567              		.cfi_def_cfa_offset 8
 568              		@ sp needed
 569 0030 10BD     		pop	{r4, pc}
 570              	.L44:
 571 0032 00BF     		.align	2
 572              	.L43:
 573 0034 00000000 		.word	.LANCHOR1
 574              		.cfi_endproc
 575              	.LFE125:
 577              		.section	.text.STC3115_GetStatusWord,"ax",%progbits
 578              		.align	1
 579              		.syntax unified
 580              		.thumb
 581              		.thumb_func
 582              		.fpu fpv4-sp-d16
 584              	STC3115_GetStatusWord:
 585              	.LFB130:
 291:../../core/drivers/STC3115/src/stc3115.c ****   int value;
 586              		.loc 1 291 0
 587              		.cfi_startproc
 588              		@ args = 0, pretend = 0, frame = 0
 589              		@ frame_needed = 0, uses_anonymous_args = 0
 590 0000 08B5     		push	{r3, lr}
 591              	.LCFI18:
 592              		.cfi_def_cfa_offset 8
 593              		.cfi_offset 3, -8
 594              		.cfi_offset 14, -4
 295:../../core/drivers/STC3115/src/stc3115.c **** 
 595              		.loc 1 295 0
 596 0002 1820     		movs	r0, #24
 597 0004 FFF7FEFF 		bl	STC3115_ReadByte
 598              	.LVL74:
 599 0008 1428     		cmp	r0, #20
 600 000a 05D1     		bne	.L47
 298:../../core/drivers/STC3115/src/stc3115.c ****   value &= 0x7fff;   //(MSbit is unused, but used for error dectection here)
 601              		.loc 1 298 0
 602 000c 0020     		movs	r0, #0
 603 000e FFF7FEFF 		bl	STC3115_ReadWord
 604              	.LVL75:
 299:../../core/drivers/STC3115/src/stc3115.c **** 
 605              		.loc 1 299 0
 606 0012 C0F30E00 		ubfx	r0, r0, #0, #15
 607              	.LVL76:
 608              	.L45:
 302:../../core/drivers/STC3115/src/stc3115.c **** 
 609              		.loc 1 302 0
 610 0016 08BD     		pop	{r3, pc}
ARM GAS  /tmp/ccnLq8Cp.s 			page 24


 611              	.L47:
 295:../../core/drivers/STC3115/src/stc3115.c **** 
 612              		.loc 1 295 0
 613 0018 4FF0FF30 		mov	r0, #-1
 614 001c FBE7     		b	.L45
 615              		.cfi_endproc
 616              	.LFE130:
 618              		.section	.text.STC3115_WriteBytes,"ax",%progbits
 619              		.align	1
 620              		.syntax unified
 621              		.thumb
 622              		.thumb_func
 623              		.fpu fpv4-sp-d16
 625              	STC3115_WriteBytes:
 626              	.LFB129:
 270:../../core/drivers/STC3115/src/stc3115.c ****   int res;
 627              		.loc 1 270 0
 628              		.cfi_startproc
 629              		@ args = 0, pretend = 0, frame = 0
 630              		@ frame_needed = 0, uses_anonymous_args = 0
 631              	.LVL77:
 632 0000 10B5     		push	{r4, lr}
 633              	.LCFI19:
 634              		.cfi_def_cfa_offset 8
 635              		.cfi_offset 4, -8
 636              		.cfi_offset 14, -4
 637 0002 84B0     		sub	sp, sp, #16
 638              	.LCFI20:
 639              		.cfi_def_cfa_offset 24
 273:../../core/drivers/STC3115/src/stc3115.c **** 	
 640              		.loc 1 273 0
 641 0004 074B     		ldr	r3, .L51
 642 0006 1C68     		ldr	r4, [r3]
 643 0008 4FF47A73 		mov	r3, #1000
 644 000c 0293     		str	r3, [sp, #8]
 645 000e 92B2     		uxth	r2, r2
 646              	.LVL78:
 647 0010 0192     		str	r2, [sp, #4]
 648 0012 0090     		str	r0, [sp]
 649 0014 0123     		movs	r3, #1
 650 0016 8AB2     		uxth	r2, r1
 651 0018 E021     		movs	r1, #224
 652              	.LVL79:
 653 001a 2046     		mov	r0, r4
 654              	.LVL80:
 655 001c FFF7FEFF 		bl	HAL_I2C_Mem_Write
 656              	.LVL81:
 276:../../core/drivers/STC3115/src/stc3115.c **** 
 657              		.loc 1 276 0
 658 0020 04B0     		add	sp, sp, #16
 659              	.LCFI21:
 660              		.cfi_def_cfa_offset 8
 661              		@ sp needed
 662 0022 10BD     		pop	{r4, pc}
 663              	.L52:
 664              		.align	2
 665              	.L51:
ARM GAS  /tmp/ccnLq8Cp.s 			page 25


 666 0024 00000000 		.word	.LANCHOR1
 667              		.cfi_endproc
 668              	.LFE129:
 670              		.section	.text.STC3115_WriteRamData,"ax",%progbits
 671              		.align	1
 672              		.syntax unified
 673              		.thumb
 674              		.thumb_func
 675              		.fpu fpv4-sp-d16
 677              	STC3115_WriteRamData:
 678              	.LFB140:
 597:../../core/drivers/STC3115/src/stc3115.c **** 	return STC3115_WriteBytes(RamData, STC3115_REG_RAM, STC3115_RAM_SIZE);
 679              		.loc 1 597 0
 680              		.cfi_startproc
 681              		@ args = 0, pretend = 0, frame = 0
 682              		@ frame_needed = 0, uses_anonymous_args = 0
 683              	.LVL82:
 684 0000 08B5     		push	{r3, lr}
 685              	.LCFI22:
 686              		.cfi_def_cfa_offset 8
 687              		.cfi_offset 3, -8
 688              		.cfi_offset 14, -4
 598:../../core/drivers/STC3115/src/stc3115.c **** }
 689              		.loc 1 598 0
 690 0002 1022     		movs	r2, #16
 691 0004 2021     		movs	r1, #32
 692 0006 FFF7FEFF 		bl	STC3115_WriteBytes
 693              	.LVL83:
 599:../../core/drivers/STC3115/src/stc3115.c **** 
 694              		.loc 1 599 0
 695 000a 08BD     		pop	{r3, pc}
 696              		.cfi_endproc
 697              	.LFE140:
 699              		.section	.text.STC3115_WriteByte,"ax",%progbits
 700              		.align	1
 701              		.syntax unified
 702              		.thumb
 703              		.thumb_func
 704              		.fpu fpv4-sp-d16
 706              	STC3115_WriteByte:
 707              	.LFB124:
 168:../../core/drivers/STC3115/src/stc3115.c ****   int res;
 708              		.loc 1 168 0
 709              		.cfi_startproc
 710              		@ args = 0, pretend = 0, frame = 8
 711              		@ frame_needed = 0, uses_anonymous_args = 0
 712              	.LVL84:
 713 0000 10B5     		push	{r4, lr}
 714              	.LCFI23:
 715              		.cfi_def_cfa_offset 8
 716              		.cfi_offset 4, -8
 717              		.cfi_offset 14, -4
 718 0002 86B0     		sub	sp, sp, #24
 719              	.LCFI24:
 720              		.cfi_def_cfa_offset 32
 172:../../core/drivers/STC3115/src/stc3115.c ****   res = HAL_I2C_Mem_Write(hi2cLib, STC3115_SLAVE_ADDRESS_7BIT << 1, RegAddress, 1, (uint8_t *)data,
 721              		.loc 1 172 0
ARM GAS  /tmp/ccnLq8Cp.s 			page 26


 722 0004 06AA     		add	r2, sp, #24
 723 0006 02F8041D 		strb	r1, [r2, #-4]!
 173:../../core/drivers/STC3115/src/stc3115.c **** 	
 724              		.loc 1 173 0
 725 000a 074B     		ldr	r3, .L57
 726 000c 1C68     		ldr	r4, [r3]
 727 000e 4FF47A73 		mov	r3, #1000
 728 0012 0293     		str	r3, [sp, #8]
 729 0014 0123     		movs	r3, #1
 730 0016 0193     		str	r3, [sp, #4]
 731 0018 0092     		str	r2, [sp]
 732 001a 82B2     		uxth	r2, r0
 733 001c E021     		movs	r1, #224
 734              	.LVL85:
 735 001e 2046     		mov	r0, r4
 736              	.LVL86:
 737 0020 FFF7FEFF 		bl	HAL_I2C_Mem_Write
 738              	.LVL87:
 177:../../core/drivers/STC3115/src/stc3115.c **** 
 739              		.loc 1 177 0
 740 0024 06B0     		add	sp, sp, #24
 741              	.LCFI25:
 742              		.cfi_def_cfa_offset 8
 743              		@ sp needed
 744 0026 10BD     		pop	{r4, pc}
 745              	.L58:
 746              		.align	2
 747              	.L57:
 748 0028 00000000 		.word	.LANCHOR1
 749              		.cfi_endproc
 750              	.LFE124:
 752              		.section	.text.STC3115_Powerdown,"ax",%progbits
 753              		.align	1
 754              		.syntax unified
 755              		.thumb
 756              		.thumb_func
 757              		.fpu fpv4-sp-d16
 759              	STC3115_Powerdown:
 760              	.LFB136:
 481:../../core/drivers/STC3115/src/stc3115.c ****   int res;
 761              		.loc 1 481 0
 762              		.cfi_startproc
 763              		@ args = 0, pretend = 0, frame = 0
 764              		@ frame_needed = 0, uses_anonymous_args = 0
 765 0000 08B5     		push	{r3, lr}
 766              	.LCFI26:
 767              		.cfi_def_cfa_offset 8
 768              		.cfi_offset 3, -8
 769              		.cfi_offset 14, -4
 485:../../core/drivers/STC3115/src/stc3115.c **** 
 770              		.loc 1 485 0
 771 0002 0121     		movs	r1, #1
 772 0004 0846     		mov	r0, r1
 773 0006 FFF7FEFF 		bl	STC3115_WriteByte
 774              	.LVL88:
 488:../../core/drivers/STC3115/src/stc3115.c ****    if (res!= STC3115_OK) return (res);
 775              		.loc 1 488 0
ARM GAS  /tmp/ccnLq8Cp.s 			page 27


 776 000a 0021     		movs	r1, #0
 777 000c 0846     		mov	r0, r1
 778 000e FFF7FEFF 		bl	STC3115_WriteByte
 779              	.LVL89:
 492:../../core/drivers/STC3115/src/stc3115.c **** 
 780              		.loc 1 492 0
 781 0012 08BD     		pop	{r3, pc}
 782              		.cfi_endproc
 783              	.LFE136:
 785              		.section	.text.STC3115_WriteWord,"ax",%progbits
 786              		.align	1
 787              		.syntax unified
 788              		.thumb
 789              		.thumb_func
 790              		.fpu fpv4-sp-d16
 792              	STC3115_WriteWord:
 793              	.LFB127:
 234:../../core/drivers/STC3115/src/stc3115.c ****   int res;
 794              		.loc 1 234 0
 795              		.cfi_startproc
 796              		@ args = 0, pretend = 0, frame = 8
 797              		@ frame_needed = 0, uses_anonymous_args = 0
 798              	.LVL90:
 799 0000 10B5     		push	{r4, lr}
 800              	.LCFI27:
 801              		.cfi_def_cfa_offset 8
 802              		.cfi_offset 4, -8
 803              		.cfi_offset 14, -4
 804 0002 86B0     		sub	sp, sp, #24
 805              	.LCFI28:
 806              		.cfi_def_cfa_offset 32
 238:../../core/drivers/STC3115/src/stc3115.c ****   data[1]= (Value>>8) & 0xff;
 807              		.loc 1 238 0
 808 0004 8DF81410 		strb	r1, [sp, #20]
 239:../../core/drivers/STC3115/src/stc3115.c ****   
 809              		.loc 1 239 0
 810 0008 0912     		asrs	r1, r1, #8
 811              	.LVL91:
 812 000a 8DF81510 		strb	r1, [sp, #21]
 241:../../core/drivers/STC3115/src/stc3115.c **** 	
 813              		.loc 1 241 0
 814 000e 084B     		ldr	r3, .L63
 815 0010 1C68     		ldr	r4, [r3]
 816 0012 4FF47A73 		mov	r3, #1000
 817 0016 0293     		str	r3, [sp, #8]
 818 0018 0223     		movs	r3, #2
 819 001a 0193     		str	r3, [sp, #4]
 820 001c 05AB     		add	r3, sp, #20
 821 001e 0093     		str	r3, [sp]
 822 0020 0123     		movs	r3, #1
 823 0022 82B2     		uxth	r2, r0
 824 0024 E021     		movs	r1, #224
 825 0026 2046     		mov	r0, r4
 826              	.LVL92:
 827 0028 FFF7FEFF 		bl	HAL_I2C_Mem_Write
 828              	.LVL93:
 245:../../core/drivers/STC3115/src/stc3115.c **** 
ARM GAS  /tmp/ccnLq8Cp.s 			page 28


 829              		.loc 1 245 0
 830 002c 06B0     		add	sp, sp, #24
 831              	.LCFI29:
 832              		.cfi_def_cfa_offset 8
 833              		@ sp needed
 834 002e 10BD     		pop	{r4, pc}
 835              	.L64:
 836              		.align	2
 837              	.L63:
 838 0030 00000000 		.word	.LANCHOR1
 839              		.cfi_endproc
 840              	.LFE127:
 842              		.section	.text.STC3115_SetParamAndRun,"ax",%progbits
 843              		.align	1
 844              		.syntax unified
 845              		.thumb
 846              		.thumb_func
 847              		.fpu fpv4-sp-d16
 849              	STC3115_SetParamAndRun:
 850              	.LFB133:
 366:../../core/drivers/STC3115/src/stc3115.c ****   int value;
 851              		.loc 1 366 0
 852              		.cfi_startproc
 853              		@ args = 0, pretend = 0, frame = 0
 854              		@ frame_needed = 0, uses_anonymous_args = 0
 855              	.LVL94:
 856 0000 10B5     		push	{r4, lr}
 857              	.LCFI30:
 858              		.cfi_def_cfa_offset 8
 859              		.cfi_offset 4, -8
 860              		.cfi_offset 14, -4
 861 0002 0446     		mov	r4, r0
 370:../../core/drivers/STC3115/src/stc3115.c ****   
 862              		.loc 1 370 0
 863 0004 0921     		movs	r1, #9
 864 0006 0020     		movs	r0, #0
 865              	.LVL95:
 866 0008 FFF7FEFF 		bl	STC3115_WriteByte
 867              	.LVL96:
 373:../../core/drivers/STC3115/src/stc3115.c ****   
 868              		.loc 1 373 0
 869 000c 1022     		movs	r2, #16
 870 000e 3021     		movs	r1, #48
 871 0010 04F12000 		add	r0, r4, #32
 872 0014 FFF7FEFF 		bl	STC3115_WriteBytes
 873              	.LVL97:
 376:../../core/drivers/STC3115/src/stc3115.c ****      STC3115_WriteByte(STC3115_REG_ALARM_SOC,ConfigData->Alm_SOC*2); 
 874              		.loc 1 376 0
 875 0018 6168     		ldr	r1, [r4, #4]
 876 001a D9B9     		cbnz	r1, .L74
 877              	.L66:
 378:../../core/drivers/STC3115/src/stc3115.c ****   {
 878              		.loc 1 378 0
 879 001c A168     		ldr	r1, [r4, #8]
 880 001e 01BB     		cbnz	r1, .L75
 881              	.L67:
 385:../../core/drivers/STC3115/src/stc3115.c ****   {
ARM GAS  /tmp/ccnLq8Cp.s 			page 29


 882              		.loc 1 385 0
 883 0020 A369     		ldr	r3, [r4, #24]
 884 0022 53BB     		cbnz	r3, .L76
 885              	.L68:
 392:../../core/drivers/STC3115/src/stc3115.c ****   else STC3115_WriteWord(STC3115_REG_CC_CNF, 395); //force writing a default value at startup
 886              		.loc 1 392 0
 887 0024 E168     		ldr	r1, [r4, #12]
 888 0026 A9B3     		cbz	r1, .L69
 392:../../core/drivers/STC3115/src/stc3115.c ****   else STC3115_WriteWord(STC3115_REG_CC_CNF, 395); //force writing a default value at startup
 889              		.loc 1 392 0 is_stmt 0 discriminator 1
 890 0028 0F20     		movs	r0, #15
 891 002a FFF7FEFF 		bl	STC3115_WriteWord
 892              	.LVL98:
 893              	.L70:
 395:../../core/drivers/STC3115/src/stc3115.c ****   else STC3115_WriteWord(STC3115_REG_VM_CNF, 321); //force writing a default value at startup
 894              		.loc 1 395 0 is_stmt 1
 895 002e 2169     		ldr	r1, [r4, #16]
 896 0030 B1BB     		cbnz	r1, .L77
 396:../../core/drivers/STC3115/src/stc3115.c **** 
 897              		.loc 1 396 0
 898 0032 40F24111 		movw	r1, #321
 899 0036 1120     		movs	r0, #17
 900 0038 FFF7FEFF 		bl	STC3115_WriteWord
 901              	.LVL99:
 902              	.L72:
 401:../../core/drivers/STC3115/src/stc3115.c ****   STC3115_WriteByte(STC3115_REG_MODE, STC3115_GG_RUN | (STC3115_VMODE * ConfigData->Vmode) | (STC31
 903              		.loc 1 401 0
 904 003c 0321     		movs	r1, #3
 905 003e 0120     		movs	r0, #1
 906 0040 FFF7FEFF 		bl	STC3115_WriteByte
 907              	.LVL100:
 402:../../core/drivers/STC3115/src/stc3115.c ****  
 908              		.loc 1 402 0
 909 0044 2168     		ldr	r1, [r4]
 910 0046 41F01801 		orr	r1, r1, #24
 911 004a C9B2     		uxtb	r1, r1
 912 004c 0020     		movs	r0, #0
 913 004e FFF7FEFF 		bl	STC3115_WriteByte
 914              	.LVL101:
 404:../../core/drivers/STC3115/src/stc3115.c **** 
 915              		.loc 1 404 0
 916 0052 10BD     		pop	{r4, pc}
 917              	.LVL102:
 918              	.L74:
 377:../../core/drivers/STC3115/src/stc3115.c ****   if (ConfigData->Alm_Vbat !=0 ) 
 919              		.loc 1 377 0
 920 0054 4900     		lsls	r1, r1, #1
 921 0056 01F0FE01 		and	r1, r1, #254
 922 005a 1320     		movs	r0, #19
 923 005c FFF7FEFF 		bl	STC3115_WriteByte
 924              	.LVL103:
 925 0060 DCE7     		b	.L66
 926              	.L75:
 380:../../core/drivers/STC3115/src/stc3115.c ****     STC3115_WriteByte(STC3115_REG_ALARM_VOLTAGE, value);
 927              		.loc 1 380 0
 928 0062 4902     		lsls	r1, r1, #9
 929 0064 104B     		ldr	r3, .L78
ARM GAS  /tmp/ccnLq8Cp.s 			page 30


 930 0066 83FB0123 		smull	r2, r3, r3, r1
 931 006a C917     		asrs	r1, r1, #31
 932 006c C1EB2331 		rsb	r1, r1, r3, asr #12
 933              	.LVL104:
 381:../../core/drivers/STC3115/src/stc3115.c ****   }
 934              		.loc 1 381 0
 935 0070 C9B2     		uxtb	r1, r1
 936              	.LVL105:
 937 0072 1420     		movs	r0, #20
 938 0074 FFF7FEFF 		bl	STC3115_WriteByte
 939              	.LVL106:
 940 0078 D2E7     		b	.L67
 941              	.L76:
 387:../../core/drivers/STC3115/src/stc3115.c ****     STC3115_WriteByte(STC3115_REG_CURRENT_THRES,value); 
 942              		.loc 1 387 0
 943 007a E169     		ldr	r1, [r4, #28]
 944 007c 4902     		lsls	r1, r1, #9
 945 007e 45F61462 		movw	r2, #24084
 946 0082 92FBF3F3 		sdiv	r3, r2, r3
 947 0086 91FBF3F1 		sdiv	r1, r1, r3
 948              	.LVL107:
 388:../../core/drivers/STC3115/src/stc3115.c ****   }
 949              		.loc 1 388 0
 950 008a C9B2     		uxtb	r1, r1
 951              	.LVL108:
 952 008c 1520     		movs	r0, #21
 953 008e FFF7FEFF 		bl	STC3115_WriteByte
 954              	.LVL109:
 955 0092 C7E7     		b	.L68
 956              	.L69:
 393:../../core/drivers/STC3115/src/stc3115.c ****   
 957              		.loc 1 393 0
 958 0094 40F28B11 		movw	r1, #395
 959 0098 0F20     		movs	r0, #15
 960 009a FFF7FEFF 		bl	STC3115_WriteWord
 961              	.LVL110:
 962 009e C6E7     		b	.L70
 963              	.L77:
 395:../../core/drivers/STC3115/src/stc3115.c ****   else STC3115_WriteWord(STC3115_REG_VM_CNF, 321); //force writing a default value at startup
 964              		.loc 1 395 0 discriminator 1
 965 00a0 1120     		movs	r0, #17
 966 00a2 FFF7FEFF 		bl	STC3115_WriteWord
 967              	.LVL111:
 968 00a6 C9E7     		b	.L72
 969              	.L79:
 970              		.align	2
 971              	.L78:
 972 00a8 89C05D74 		.word	1952301193
 973              		.cfi_endproc
 974              	.LFE133:
 976              		.section	.text.STC3115_Startup,"ax",%progbits
 977              		.align	1
 978              		.syntax unified
 979              		.thumb
 980              		.thumb_func
 981              		.fpu fpv4-sp-d16
 983              	STC3115_Startup:
ARM GAS  /tmp/ccnLq8Cp.s 			page 31


 984              	.LFB134:
 416:../../core/drivers/STC3115/src/stc3115.c **** 	int res, HRSOC;
 985              		.loc 1 416 0
 986              		.cfi_startproc
 987              		@ args = 0, pretend = 0, frame = 0
 988              		@ frame_needed = 0, uses_anonymous_args = 0
 989              	.LVL112:
 990 0000 38B5     		push	{r3, r4, r5, lr}
 991              	.LCFI31:
 992              		.cfi_def_cfa_offset 16
 993              		.cfi_offset 3, -16
 994              		.cfi_offset 4, -12
 995              		.cfi_offset 5, -8
 996              		.cfi_offset 14, -4
 997 0002 0446     		mov	r4, r0
 422:../../core/drivers/STC3115/src/stc3115.c **** 	if (res<0) return(res);
 998              		.loc 1 422 0
 999 0004 FFF7FEFF 		bl	STC3115_GetStatusWord
 1000              	.LVL113:
 423:../../core/drivers/STC3115/src/stc3115.c **** 
 1001              		.loc 1 423 0
 1002 0008 0028     		cmp	r0, #0
 1003 000a 0FDB     		blt	.L80
 426:../../core/drivers/STC3115/src/stc3115.c **** 
 1004              		.loc 1 426 0
 1005 000c 0D20     		movs	r0, #13
 1006              	.LVL114:
 1007 000e FFF7FEFF 		bl	STC3115_ReadWord
 1008              	.LVL115:
 1009 0012 0546     		mov	r5, r0
 1010              	.LVL116:
 430:../../core/drivers/STC3115/src/stc3115.c **** 	{
 1011              		.loc 1 430 0
 1012 0014 41F27073 		movw	r3, #6000
 1013 0018 9842     		cmp	r0, r3
 1014 001a 08DD     		ble	.L84
 438:../../core/drivers/STC3115/src/stc3115.c **** 		
 1015              		.loc 1 438 0
 1016 001c 2046     		mov	r0, r4
 1017              	.LVL117:
 1018 001e FFF7FEFF 		bl	STC3115_SetParamAndRun
 1019              	.LVL118:
 441:../../core/drivers/STC3115/src/stc3115.c **** 	}
 1020              		.loc 1 441 0
 1021 0022 2946     		mov	r1, r5
 1022 0024 0D20     		movs	r0, #13
 1023 0026 FFF7FEFF 		bl	STC3115_WriteWord
 1024              	.LVL119:
 444:../../core/drivers/STC3115/src/stc3115.c **** }
 1025              		.loc 1 444 0
 1026 002a 0020     		movs	r0, #0
 1027              	.LVL120:
 1028              	.L80:
 445:../../core/drivers/STC3115/src/stc3115.c **** 
 1029              		.loc 1 445 0
 1030 002c 38BD     		pop	{r3, r4, r5, pc}
 1031              	.LVL121:
ARM GAS  /tmp/ccnLq8Cp.s 			page 32


 1032              	.L84:
 433:../../core/drivers/STC3115/src/stc3115.c **** 		STC3115_SetParamAndRun(ConfigData);  /* set STC3115 parameters and run it  */
 1033              		.loc 1 433 0
 1034 002e 0021     		movs	r1, #0
 1035 0030 0220     		movs	r0, #2
 1036              	.LVL122:
 1037 0032 FFF7FEFF 		bl	STC3115_WriteWord
 1038              	.LVL123:
 434:../../core/drivers/STC3115/src/stc3115.c **** 	}
 1039              		.loc 1 434 0
 1040 0036 2046     		mov	r0, r4
 1041 0038 FFF7FEFF 		bl	STC3115_SetParamAndRun
 1042              	.LVL124:
 444:../../core/drivers/STC3115/src/stc3115.c **** }
 1043              		.loc 1 444 0
 1044 003c 0020     		movs	r0, #0
 1045 003e F5E7     		b	.L80
 1046              		.cfi_endproc
 1047              	.LFE134:
 1049              		.section	.text.STC3115_Restore,"ax",%progbits
 1050              		.align	1
 1051              		.syntax unified
 1052              		.thumb
 1053              		.thumb_func
 1054              		.fpu fpv4-sp-d16
 1056              	STC3115_Restore:
 1057              	.LFB135:
 455:../../core/drivers/STC3115/src/stc3115.c ****   int res;
 1058              		.loc 1 455 0
 1059              		.cfi_startproc
 1060              		@ args = 0, pretend = 0, frame = 0
 1061              		@ frame_needed = 0, uses_anonymous_args = 0
 1062              	.LVL125:
 1063 0000 10B5     		push	{r4, lr}
 1064              	.LCFI32:
 1065              		.cfi_def_cfa_offset 8
 1066              		.cfi_offset 4, -8
 1067              		.cfi_offset 14, -4
 1068 0002 0446     		mov	r4, r0
 459:../../core/drivers/STC3115/src/stc3115.c ****   if (res<0) return(res);
 1069              		.loc 1 459 0
 1070 0004 FFF7FEFF 		bl	STC3115_GetStatusWord
 1071              	.LVL126:
 460:../../core/drivers/STC3115/src/stc3115.c ****  
 1072              		.loc 1 460 0
 1073 0008 0028     		cmp	r0, #0
 1074 000a 09DB     		blt	.L85
 462:../../core/drivers/STC3115/src/stc3115.c **** 
 1075              		.loc 1 462 0
 1076 000c 2046     		mov	r0, r4
 1077              	.LVL127:
 1078 000e FFF7FEFF 		bl	STC3115_SetParamAndRun
 1079              	.LVL128:
 466:../../core/drivers/STC3115/src/stc3115.c **** 
 1080              		.loc 1 466 0
 1081 0012 044B     		ldr	r3, .L88
 1082 0014 B3F90210 		ldrsh	r1, [r3, #2]
ARM GAS  /tmp/ccnLq8Cp.s 			page 33


 1083 0018 0220     		movs	r0, #2
 1084 001a FFF7FEFF 		bl	STC3115_WriteWord
 1085              	.LVL129:
 468:../../core/drivers/STC3115/src/stc3115.c **** }
 1086              		.loc 1 468 0
 1087 001e 0020     		movs	r0, #0
 1088              	.L85:
 469:../../core/drivers/STC3115/src/stc3115.c **** 
 1089              		.loc 1 469 0
 1090 0020 10BD     		pop	{r4, pc}
 1091              	.LVL130:
 1092              	.L89:
 1093 0022 00BF     		.align	2
 1094              	.L88:
 1095 0024 00000000 		.word	.LANCHOR0
 1096              		.cfi_endproc
 1097              	.LFE135:
 1099              		.section	.text.STC3115_ReadUnsignedWord,"ax",%progbits
 1100              		.align	1
 1101              		.global	STC3115_ReadUnsignedWord
 1102              		.syntax unified
 1103              		.thumb
 1104              		.thumb_func
 1105              		.fpu fpv4-sp-d16
 1107              	STC3115_ReadUnsignedWord:
 1108              	.LFB126:
 207:../../core/drivers/STC3115/src/stc3115.c ****   unsigned short data16;
 1109              		.loc 1 207 0
 1110              		.cfi_startproc
 1111              		@ args = 0, pretend = 0, frame = 8
 1112              		@ frame_needed = 0, uses_anonymous_args = 0
 1113              	.LVL131:
 1114 0000 30B5     		push	{r4, r5, lr}
 1115              	.LCFI33:
 1116              		.cfi_def_cfa_offset 12
 1117              		.cfi_offset 4, -12
 1118              		.cfi_offset 5, -8
 1119              		.cfi_offset 14, -4
 1120 0002 87B0     		sub	sp, sp, #28
 1121              	.LCFI34:
 1122              		.cfi_def_cfa_offset 40
 1123 0004 0C46     		mov	r4, r1
 212:../../core/drivers/STC3115/src/stc3115.c ****   
 1124              		.loc 1 212 0
 1125 0006 0C4B     		ldr	r3, .L92
 1126 0008 1D68     		ldr	r5, [r3]
 1127 000a 4FF47A73 		mov	r3, #1000
 1128 000e 0293     		str	r3, [sp, #8]
 1129 0010 0223     		movs	r3, #2
 1130 0012 0193     		str	r3, [sp, #4]
 1131 0014 05AB     		add	r3, sp, #20
 1132 0016 0093     		str	r3, [sp]
 1133 0018 0123     		movs	r3, #1
 1134 001a 0246     		mov	r2, r0
 1135 001c E021     		movs	r1, #224
 1136              	.LVL132:
 1137 001e 2846     		mov	r0, r5
ARM GAS  /tmp/ccnLq8Cp.s 			page 34


 1138              	.LVL133:
 1139 0020 FFF7FEFF 		bl	HAL_I2C_Mem_Read
 1140              	.LVL134:
 217:../../core/drivers/STC3115/src/stc3115.c ****     data16 = (data16 <<8) | data8[0];
 1141              		.loc 1 217 0
 1142 0024 9DF81520 		ldrb	r2, [sp, #21]	@ zero_extendqisi2
 1143              	.LVL135:
 218:../../core/drivers/STC3115/src/stc3115.c ****     *RegData = data16;
 1144              		.loc 1 218 0
 1145 0028 9DF81430 		ldrb	r3, [sp, #20]	@ zero_extendqisi2
 1146 002c 43EA0223 		orr	r3, r3, r2, lsl #8
 1147              	.LVL136:
 219:../../core/drivers/STC3115/src/stc3115.c ****   }
 1148              		.loc 1 219 0
 1149 0030 2380     		strh	r3, [r4]	@ movhi
 225:../../core/drivers/STC3115/src/stc3115.c **** 
 1150              		.loc 1 225 0
 1151 0032 07B0     		add	sp, sp, #28
 1152              	.LCFI35:
 1153              		.cfi_def_cfa_offset 12
 1154              		@ sp needed
 1155 0034 30BD     		pop	{r4, r5, pc}
 1156              	.LVL137:
 1157              	.L93:
 1158 0036 00BF     		.align	2
 1159              	.L92:
 1160 0038 00000000 		.word	.LANCHOR1
 1161              		.cfi_endproc
 1162              	.LFE126:
 1164              		.section	.text.STC3115_CheckI2cDeviceId,"ax",%progbits
 1165              		.align	1
 1166              		.global	STC3115_CheckI2cDeviceId
 1167              		.syntax unified
 1168              		.thumb
 1169              		.thumb_func
 1170              		.fpu fpv4-sp-d16
 1172              	STC3115_CheckI2cDeviceId:
 1173              	.LFB131:
 312:../../core/drivers/STC3115/src/stc3115.c ****   unsigned char RegAddress;
 1174              		.loc 1 312 0
 1175              		.cfi_startproc
 1176              		@ args = 0, pretend = 0, frame = 0
 1177              		@ frame_needed = 0, uses_anonymous_args = 0
 1178 0000 00B5     		push	{lr}
 1179              	.LCFI36:
 1180              		.cfi_def_cfa_offset 4
 1181              		.cfi_offset 14, -4
 1182 0002 85B0     		sub	sp, sp, #20
 1183              	.LCFI37:
 1184              		.cfi_def_cfa_offset 24
 1185              	.LVL138:
 318:../../core/drivers/STC3115/src/stc3115.c **** 
 1186              		.loc 1 318 0
 1187 0004 084B     		ldr	r3, .L98
 1188 0006 1868     		ldr	r0, [r3]
 1189 0008 4FF47A73 		mov	r3, #1000
 1190 000c 0293     		str	r3, [sp, #8]
ARM GAS  /tmp/ccnLq8Cp.s 			page 35


 1191 000e 0123     		movs	r3, #1
 1192 0010 0193     		str	r3, [sp, #4]
 1193 0012 0022     		movs	r2, #0
 1194 0014 0092     		str	r2, [sp]
 1195 0016 1822     		movs	r2, #24
 1196 0018 E021     		movs	r1, #224
 1197 001a FFF7FEFF 		bl	HAL_I2C_Mem_Read
 1198              	.LVL139:
 337:../../core/drivers/STC3115/src/stc3115.c **** 
 1199              		.loc 1 337 0
 1200 001e 6FF00100 		mvn	r0, #1
 1201 0022 05B0     		add	sp, sp, #20
 1202              	.LCFI38:
 1203              		.cfi_def_cfa_offset 4
 1204              		@ sp needed
 1205 0024 5DF804FB 		ldr	pc, [sp], #4
 1206              	.L99:
 1207              		.align	2
 1208              	.L98:
 1209 0028 00000000 		.word	.LANCHOR1
 1210              		.cfi_endproc
 1211              	.LFE131:
 1213              		.section	.text.STC3115_GetRunningCounter,"ax",%progbits
 1214              		.align	1
 1215              		.global	STC3115_GetRunningCounter
 1216              		.syntax unified
 1217              		.thumb
 1218              		.thumb_func
 1219              		.fpu fpv4-sp-d16
 1221              	STC3115_GetRunningCounter:
 1222              	.LFB132:
 346:../../core/drivers/STC3115/src/stc3115.c ****   unsigned short value;
 1223              		.loc 1 346 0
 1224              		.cfi_startproc
 1225              		@ args = 0, pretend = 0, frame = 8
 1226              		@ frame_needed = 0, uses_anonymous_args = 0
 1227 0000 00B5     		push	{lr}
 1228              	.LCFI39:
 1229              		.cfi_def_cfa_offset 4
 1230              		.cfi_offset 14, -4
 1231 0002 83B0     		sub	sp, sp, #12
 1232              	.LCFI40:
 1233              		.cfi_def_cfa_offset 16
 351:../../core/drivers/STC3115/src/stc3115.c **** 
 1234              		.loc 1 351 0
 1235 0004 0DF10601 		add	r1, sp, #6
 1236 0008 0420     		movs	r0, #4
 1237 000a FFF7FEFF 		bl	STC3115_ReadUnsignedWord
 1238              	.LVL140:
 353:../../core/drivers/STC3115/src/stc3115.c **** 	  value = -1;
 1239              		.loc 1 353 0
 1240 000e 0028     		cmp	r0, #0
 1241 0010 04DB     		blt	.L103
 1242              	.L101:
 357:../../core/drivers/STC3115/src/stc3115.c **** 
 1243              		.loc 1 357 0
 1244 0012 BDF80600 		ldrh	r0, [sp, #6]
ARM GAS  /tmp/ccnLq8Cp.s 			page 36


 1245              	.LVL141:
 1246 0016 03B0     		add	sp, sp, #12
 1247              	.LCFI41:
 1248              		.cfi_remember_state
 1249              		.cfi_def_cfa_offset 4
 1250              		@ sp needed
 1251 0018 5DF804FB 		ldr	pc, [sp], #4
 1252              	.LVL142:
 1253              	.L103:
 1254              	.LCFI42:
 1255              		.cfi_restore_state
 354:../../core/drivers/STC3115/src/stc3115.c **** 
 1256              		.loc 1 354 0
 1257 001c 4FF6FF73 		movw	r3, #65535
 1258 0020 ADF80630 		strh	r3, [sp, #6]	@ movhi
 1259 0024 F5E7     		b	.L101
 1260              		.cfi_endproc
 1261              	.LFE132:
 1263              		.section	.text.GasGauge_Initialization,"ax",%progbits
 1264              		.align	1
 1265              		.global	GasGauge_Initialization
 1266              		.syntax unified
 1267              		.thumb
 1268              		.thumb_func
 1269              		.fpu fpv4-sp-d16
 1271              	GasGauge_Initialization:
 1272              	.LFB144:
 662:../../core/drivers/STC3115/src/stc3115.c **** 
 663:../../core/drivers/STC3115/src/stc3115.c **** /* ---- End of Internal functions --------------------------------------------------- */
 664:../../core/drivers/STC3115/src/stc3115.c **** 
 665:../../core/drivers/STC3115/src/stc3115.c **** /* ---- Driver interface functions -------------------------------------------------- */
 666:../../core/drivers/STC3115/src/stc3115.c **** 
 667:../../core/drivers/STC3115/src/stc3115.c **** //static I2C_HandleTypeDef *hi2cLib;
 668:../../core/drivers/STC3115/src/stc3115.c **** /*******************************************************************************
 669:../../core/drivers/STC3115/src/stc3115.c **** * Function Name  : STC3115_Initialization
 670:../../core/drivers/STC3115/src/stc3115.c **** * Description    : Start the STC3115 battery tracking algorithm system
 671:../../core/drivers/STC3115/src/stc3115.c **** * Input          : algo parameters in stc3115_Battery.h file
 672:../../core/drivers/STC3115/src/stc3115.c **** * Return         : 0 is ok, -1 if STC3115 not found or I2C error
 673:../../core/drivers/STC3115/src/stc3115.c **** * Affect         : Initializes ConfigData and returns battery early status in BatteryData
 674:../../core/drivers/STC3115/src/stc3115.c **** *******************************************************************************/
 675:../../core/drivers/STC3115/src/stc3115.c **** int GasGauge_Initialization( I2C_HandleTypeDef *hi2c, STC3115_ConfigData_TypeDef *ConfigData, STC31
 676:../../core/drivers/STC3115/src/stc3115.c **** {
 1273              		.loc 1 676 0
 1274              		.cfi_startproc
 1275              		@ args = 0, pretend = 0, frame = 64
 1276              		@ frame_needed = 0, uses_anonymous_args = 0
 1277              	.LVL143:
 1278 0000 70B5     		push	{r4, r5, r6, lr}
 1279              	.LCFI43:
 1280              		.cfi_def_cfa_offset 16
 1281              		.cfi_offset 4, -16
 1282              		.cfi_offset 5, -12
 1283              		.cfi_offset 6, -8
 1284              		.cfi_offset 14, -4
 1285 0002 90B0     		sub	sp, sp, #64
 1286              	.LCFI44:
 1287              		.cfi_def_cfa_offset 80
ARM GAS  /tmp/ccnLq8Cp.s 			page 37


 1288 0004 0646     		mov	r6, r0
 1289 0006 0C46     		mov	r4, r1
 1290 0008 1546     		mov	r5, r2
 677:../../core/drivers/STC3115/src/stc3115.c ****   int res, loop;
 678:../../core/drivers/STC3115/src/stc3115.c ****   int OCVOffset[16] = OCV_OFFSET_TAB;
 1291              		.loc 1 678 0
 1292 000a 4022     		movs	r2, #64
 1293              	.LVL144:
 1294 000c 0021     		movs	r1, #0
 1295              	.LVL145:
 1296 000e 6846     		mov	r0, sp
 1297              	.LVL146:
 1298 0010 FFF7FEFF 		bl	memset
 1299              	.LVL147:
 679:../../core/drivers/STC3115/src/stc3115.c ****   hi2cLib = hi2c;
 1300              		.loc 1 679 0
 1301 0014 394B     		ldr	r3, .L116
 1302 0016 1E60     		str	r6, [r3]
 680:../../core/drivers/STC3115/src/stc3115.c **** 
 681:../../core/drivers/STC3115/src/stc3115.c ****   /*** Fill configuration structure parameters ***/
 682:../../core/drivers/STC3115/src/stc3115.c ****   ConfigData->Vmode = VMODE;
 1303              		.loc 1 682 0
 1304 0018 0023     		movs	r3, #0
 1305 001a 2360     		str	r3, [r4]
 683:../../core/drivers/STC3115/src/stc3115.c **** 
 684:../../core/drivers/STC3115/src/stc3115.c ****   if(RSENSE!=0)	ConfigData->Rsense = RSENSE;
 1306              		.loc 1 684 0
 1307 001c 3222     		movs	r2, #50
 1308 001e A261     		str	r2, [r4, #24]
 685:../../core/drivers/STC3115/src/stc3115.c ****   else ConfigData->Rsense = 10; // default value to avoid division by 0
 686:../../core/drivers/STC3115/src/stc3115.c ****   
 687:../../core/drivers/STC3115/src/stc3115.c ****   ConfigData->CC_cnf = (BATT_CAPACITY * ConfigData->Rsense * 250 + 6194) / 12389;
 1309              		.loc 1 687 0
 1310 0020 43F61E32 		movw	r2, #15134
 1311 0024 E260     		str	r2, [r4, #12]
 688:../../core/drivers/STC3115/src/stc3115.c **** 	
 689:../../core/drivers/STC3115/src/stc3115.c ****   if(BATT_RINT!=0)	ConfigData->VM_cnf = (BATT_CAPACITY * BATT_RINT * 50 + 24444) / 48889;
 690:../../core/drivers/STC3115/src/stc3115.c ****   else ConfigData->VM_cnf = (BATT_CAPACITY * 200 * 50 + 24444) / 48889; // default value
 1312              		.loc 1 690 0
 1313 0026 40F6FC32 		movw	r2, #3068
 1314 002a 2261     		str	r2, [r4, #16]
 1315              	.LVL148:
 691:../../core/drivers/STC3115/src/stc3115.c **** 
 692:../../core/drivers/STC3115/src/stc3115.c ****   for(loop=0; loop<16; loop++)
 1316              		.loc 1 692 0
 1317 002c 08E0     		b	.L105
 1318              	.LVL149:
 1319              	.L107:
 693:../../core/drivers/STC3115/src/stc3115.c ****   {
 694:../../core/drivers/STC3115/src/stc3115.c **** 	if(OCVOffset[loop] > 127) OCVOffset[loop] = 127;
 695:../../core/drivers/STC3115/src/stc3115.c **** 	if(OCVOffset[loop] < -127) OCVOffset[loop] = -127;
 696:../../core/drivers/STC3115/src/stc3115.c **** 	 ConfigData->OCVOffset[loop] = OCVOffset[loop];
 1320              		.loc 1 696 0 discriminator 2
 1321 002e 10AA     		add	r2, sp, #64
 1322 0030 02EB8302 		add	r2, r2, r3, lsl #2
 1323 0034 52F8401C 		ldr	r1, [r2, #-64]
 1324 0038 E218     		adds	r2, r4, r3
ARM GAS  /tmp/ccnLq8Cp.s 			page 38


 1325 003a 82F82010 		strb	r1, [r2, #32]
 692:../../core/drivers/STC3115/src/stc3115.c ****   {
 1326              		.loc 1 692 0 discriminator 2
 1327 003e 0133     		adds	r3, r3, #1
 1328              	.LVL150:
 1329              	.L105:
 692:../../core/drivers/STC3115/src/stc3115.c ****   {
 1330              		.loc 1 692 0 is_stmt 0 discriminator 1
 1331 0040 0F2B     		cmp	r3, #15
 1332 0042 1CDC     		bgt	.L114
 694:../../core/drivers/STC3115/src/stc3115.c **** 	if(OCVOffset[loop] < -127) OCVOffset[loop] = -127;
 1333              		.loc 1 694 0 is_stmt 1
 1334 0044 10AA     		add	r2, sp, #64
 1335 0046 02EB8302 		add	r2, r2, r3, lsl #2
 1336 004a 52F8402C 		ldr	r2, [r2, #-64]
 1337 004e 7F2A     		cmp	r2, #127
 1338 0050 05DD     		ble	.L106
 694:../../core/drivers/STC3115/src/stc3115.c **** 	if(OCVOffset[loop] < -127) OCVOffset[loop] = -127;
 1339              		.loc 1 694 0 is_stmt 0 discriminator 1
 1340 0052 7F21     		movs	r1, #127
 1341 0054 10AA     		add	r2, sp, #64
 1342 0056 02EB8302 		add	r2, r2, r3, lsl #2
 1343 005a 42F8401C 		str	r1, [r2, #-64]
 1344              	.L106:
 695:../../core/drivers/STC3115/src/stc3115.c **** 	 ConfigData->OCVOffset[loop] = OCVOffset[loop];
 1345              		.loc 1 695 0 is_stmt 1
 1346 005e 10AA     		add	r2, sp, #64
 1347 0060 02EB8302 		add	r2, r2, r3, lsl #2
 1348 0064 52F8402C 		ldr	r2, [r2, #-64]
 1349 0068 12F17F0F 		cmn	r2, #127
 1350 006c DFDA     		bge	.L107
 695:../../core/drivers/STC3115/src/stc3115.c **** 	 ConfigData->OCVOffset[loop] = OCVOffset[loop];
 1351              		.loc 1 695 0 is_stmt 0 discriminator 1
 1352 006e 6FF07E01 		mvn	r1, #126
 1353 0072 10AA     		add	r2, sp, #64
 1354 0074 02EB8302 		add	r2, r2, r3, lsl #2
 1355 0078 42F8401C 		str	r1, [r2, #-64]
 1356 007c D7E7     		b	.L107
 1357              	.L114:
 697:../../core/drivers/STC3115/src/stc3115.c ****   }
 698:../../core/drivers/STC3115/src/stc3115.c **** 	
 699:../../core/drivers/STC3115/src/stc3115.c ****   ConfigData->Cnom = BATT_CAPACITY; 
 1358              		.loc 1 699 0 is_stmt 1
 1359 007e 43F69823 		movw	r3, #15000
 1360              	.LVL151:
 1361 0082 6361     		str	r3, [r4, #20]
 700:../../core/drivers/STC3115/src/stc3115.c ****   ConfigData->RelaxCurrent = BATT_CAPACITY / 20;
 1362              		.loc 1 700 0
 1363 0084 40F2EE23 		movw	r3, #750
 1364 0088 E361     		str	r3, [r4, #28]
 701:../../core/drivers/STC3115/src/stc3115.c ****   
 702:../../core/drivers/STC3115/src/stc3115.c ****   ConfigData->Alm_SOC = ALM_SOC;
 1365              		.loc 1 702 0
 1366 008a 0A23     		movs	r3, #10
 1367 008c 6360     		str	r3, [r4, #4]
 703:../../core/drivers/STC3115/src/stc3115.c ****   ConfigData->Alm_Vbat = ALM_VBAT;
 1368              		.loc 1 703 0
ARM GAS  /tmp/ccnLq8Cp.s 			page 39


 1369 008e 40F6AC53 		movw	r3, #3500
 1370 0092 A360     		str	r3, [r4, #8]
 704:../../core/drivers/STC3115/src/stc3115.c ****   
 705:../../core/drivers/STC3115/src/stc3115.c ****   
 706:../../core/drivers/STC3115/src/stc3115.c ****   /*** Initialize Gas Gauge system ***/ 
 707:../../core/drivers/STC3115/src/stc3115.c ****   
 708:../../core/drivers/STC3115/src/stc3115.c ****   /*Battery presence status init*/
 709:../../core/drivers/STC3115/src/stc3115.c ****   BatteryData->Presence = 1;
 1371              		.loc 1 709 0
 1372 0094 0123     		movs	r3, #1
 1373 0096 2B62     		str	r3, [r5, #32]
 710:../../core/drivers/STC3115/src/stc3115.c **** 
 711:../../core/drivers/STC3115/src/stc3115.c ****   /* check RAM data validity */ 
 712:../../core/drivers/STC3115/src/stc3115.c ****   //refer to AN4324, Figure 16: STC3115 initialization type selection flowchart
 713:../../core/drivers/STC3115/src/stc3115.c ****   {
 714:../../core/drivers/STC3115/src/stc3115.c **** 	// ** Internal RAM purpose: **
 715:../../core/drivers/STC3115/src/stc3115.c **** 	// The STC3115 device embeds a 16-byte RAM memory area.
 716:../../core/drivers/STC3115/src/stc3115.c **** 	// The registers of this area can be used to periodically save the battery status. 
 717:../../core/drivers/STC3115/src/stc3115.c **** 	// This allows battery information to be recovered when the application is stopped but the battery
 718:../../core/drivers/STC3115/src/stc3115.c **** 	//
 719:../../core/drivers/STC3115/src/stc3115.c **** 	// Typical use case of STC3115 Restoration is:
 720:../../core/drivers/STC3115/src/stc3115.c **** 	// User Platform power down (but stc3115 set in standby mode), no battery removal, and then Platfo
 721:../../core/drivers/STC3115/src/stc3115.c **** 	// If the battery is removed or in case of soft reset (STC3115 soft reset), RAM content is reset, 
 722:../../core/drivers/STC3115/src/stc3115.c **** 
 723:../../core/drivers/STC3115/src/stc3115.c **** 	  STC3115_ReadRamData(RAMData.db);
 1374              		.loc 1 723 0
 1375 0098 194D     		ldr	r5, .L116+4
 1376              	.LVL152:
 1377 009a 2846     		mov	r0, r5
 1378 009c FFF7FEFF 		bl	STC3115_ReadRamData
 1379              	.LVL153:
 724:../../core/drivers/STC3115/src/stc3115.c ****  
 725:../../core/drivers/STC3115/src/stc3115.c **** 	  if ( (RAMData.reg.TestWord != RAM_TESTWORD) || (STC3115_CalcRamCRC8(RAMData.db,STC3115_RAM_SIZE)
 1380              		.loc 1 725 0
 1381 00a0 B5F90020 		ldrsh	r2, [r5]
 1382 00a4 45F2A933 		movw	r3, #21417
 1383 00a8 9A42     		cmp	r2, r3
 1384 00aa 04D1     		bne	.L109
 1385              		.loc 1 725 0 is_stmt 0 discriminator 1
 1386 00ac 1021     		movs	r1, #16
 1387 00ae 2846     		mov	r0, r5
 1388 00b0 FFF7FEFF 		bl	STC3115_CalcRamCRC8
 1389              	.LVL154:
 1390 00b4 88B1     		cbz	r0, .L110
 1391              	.L109:
 726:../../core/drivers/STC3115/src/stc3115.c **** 	  {
 727:../../core/drivers/STC3115/src/stc3115.c **** 		// RAM is empty (Fuel gauge first power-up)
 728:../../core/drivers/STC3115/src/stc3115.c **** 		// or RAM not yet initialized by this Driver (no TESTWORD)
 729:../../core/drivers/STC3115/src/stc3115.c **** 		// or RAM corrupted (bad CRC)
 730:../../core/drivers/STC3115/src/stc3115.c **** 		// => Full initialisation:  STC3115 init + RAM init
 731:../../core/drivers/STC3115/src/stc3115.c **** 		//    e.g. New battery plugged-in, using the initial battery model.
 732:../../core/drivers/STC3115/src/stc3115.c **** 		
 733:../../core/drivers/STC3115/src/stc3115.c **** 		STC3115_InitRamData(ConfigData);
 1392              		.loc 1 733 0 is_stmt 1
 1393 00b6 2046     		mov	r0, r4
 1394 00b8 FFF7FEFF 		bl	STC3115_InitRamData
 1395              	.LVL155:
ARM GAS  /tmp/ccnLq8Cp.s 			page 40


 734:../../core/drivers/STC3115/src/stc3115.c **** 		res=STC3115_Startup(ConfigData);  /* return -1 if I2C error or STC3115 not present */
 1396              		.loc 1 734 0
 1397 00bc 2046     		mov	r0, r4
 1398 00be FFF7FEFF 		bl	STC3115_Startup
 1399              	.LVL156:
 1400 00c2 0546     		mov	r5, r0
 1401              	.LVL157:
 1402              	.L111:
 735:../../core/drivers/STC3115/src/stc3115.c **** 	  }
 736:../../core/drivers/STC3115/src/stc3115.c **** 	  else //RAM valid (i.e initialization process started again, battery has not been removed)
 737:../../core/drivers/STC3115/src/stc3115.c **** 	  {
 738:../../core/drivers/STC3115/src/stc3115.c **** 		  /* check STC3115 status */
 739:../../core/drivers/STC3115/src/stc3115.c **** 		  if ( (STC3115_ReadByte(STC3115_REG_CTRL) & (STC3115_BATFAIL | STC3115_PORDET)) != 0 )
 740:../../core/drivers/STC3115/src/stc3115.c **** 		  {
 741:../../core/drivers/STC3115/src/stc3115.c **** 				//PORDET detected (Power On Reset occurred after Device powered-On or a Soft-reset)
 742:../../core/drivers/STC3115/src/stc3115.c **** 				//or Error occured: BATFAIL (battery disconnected or Undervoltage UVLO)
 743:../../core/drivers/STC3115/src/stc3115.c **** 				// => Standard initialisation: STC3115 init (without RAM init)
 744:../../core/drivers/STC3115/src/stc3115.c **** 			    //    e.g. Battery has not been removed, but restoration from internal RAM not possible
 745:../../core/drivers/STC3115/src/stc3115.c **** 
 746:../../core/drivers/STC3115/src/stc3115.c **** 				res=STC3115_Startup(ConfigData);  /* return -1 if I2C error or STC3115 not present */
 747:../../core/drivers/STC3115/src/stc3115.c **** 		  }
 748:../../core/drivers/STC3115/src/stc3115.c **** 		  else //Restoration OK, The battery has not been removed since the last application switch off. 
 749:../../core/drivers/STC3115/src/stc3115.c **** 		  {
 750:../../core/drivers/STC3115/src/stc3115.c **** 				res=STC3115_Restore(ConfigData); /* recover from last SOC */
 751:../../core/drivers/STC3115/src/stc3115.c **** 		  }
 752:../../core/drivers/STC3115/src/stc3115.c **** 	  }
 753:../../core/drivers/STC3115/src/stc3115.c ****   }
 754:../../core/drivers/STC3115/src/stc3115.c **** 
 755:../../core/drivers/STC3115/src/stc3115.c **** 	//Update RAM state flag to INIT state
 756:../../core/drivers/STC3115/src/stc3115.c **** 	{
 757:../../core/drivers/STC3115/src/stc3115.c **** 		RAMData.reg.STC3115_State = STC3115_INIT;
 1403              		.loc 1 757 0
 1404 00c4 0E4C     		ldr	r4, .L116+4
 1405              	.LVL158:
 1406 00c6 4923     		movs	r3, #73
 1407 00c8 6372     		strb	r3, [r4, #9]
 758:../../core/drivers/STC3115/src/stc3115.c **** 		STC3115_UpdateRamCRC();
 1408              		.loc 1 758 0
 1409 00ca FFF7FEFF 		bl	STC3115_UpdateRamCRC
 1410              	.LVL159:
 759:../../core/drivers/STC3115/src/stc3115.c **** 		STC3115_WriteRamData(RAMData.db);
 1411              		.loc 1 759 0
 1412 00ce 2046     		mov	r0, r4
 1413 00d0 FFF7FEFF 		bl	STC3115_WriteRamData
 1414              	.LVL160:
 760:../../core/drivers/STC3115/src/stc3115.c **** 	}
 761:../../core/drivers/STC3115/src/stc3115.c ****   
 762:../../core/drivers/STC3115/src/stc3115.c ****   return(res);    /* return -1 if I2C error or STC3115 not present */
 763:../../core/drivers/STC3115/src/stc3115.c **** }
 1415              		.loc 1 763 0
 1416 00d4 2846     		mov	r0, r5
 1417 00d6 10B0     		add	sp, sp, #64
 1418              	.LCFI45:
 1419              		.cfi_remember_state
 1420              		.cfi_def_cfa_offset 16
 1421              		@ sp needed
 1422 00d8 70BD     		pop	{r4, r5, r6, pc}
ARM GAS  /tmp/ccnLq8Cp.s 			page 41


 1423              	.LVL161:
 1424              	.L110:
 1425              	.LCFI46:
 1426              		.cfi_restore_state
 739:../../core/drivers/STC3115/src/stc3115.c **** 		  {
 1427              		.loc 1 739 0
 1428 00da 0120     		movs	r0, #1
 1429 00dc FFF7FEFF 		bl	STC3115_ReadByte
 1430              	.LVL162:
 1431 00e0 10F0180F 		tst	r0, #24
 1432 00e4 04D1     		bne	.L115
 750:../../core/drivers/STC3115/src/stc3115.c **** 		  }
 1433              		.loc 1 750 0
 1434 00e6 2046     		mov	r0, r4
 1435 00e8 FFF7FEFF 		bl	STC3115_Restore
 1436              	.LVL163:
 1437 00ec 0546     		mov	r5, r0
 1438              	.LVL164:
 1439 00ee E9E7     		b	.L111
 1440              	.LVL165:
 1441              	.L115:
 746:../../core/drivers/STC3115/src/stc3115.c **** 		  }
 1442              		.loc 1 746 0
 1443 00f0 2046     		mov	r0, r4
 1444 00f2 FFF7FEFF 		bl	STC3115_Startup
 1445              	.LVL166:
 1446 00f6 0546     		mov	r5, r0
 1447              	.LVL167:
 1448 00f8 E4E7     		b	.L111
 1449              	.L117:
 1450 00fa 00BF     		.align	2
 1451              	.L116:
 1452 00fc 00000000 		.word	.LANCHOR1
 1453 0100 00000000 		.word	.LANCHOR0
 1454              		.cfi_endproc
 1455              	.LFE144:
 1457              		.section	.text.GasGauge_Reset,"ax",%progbits
 1458              		.align	1
 1459              		.global	GasGauge_Reset
 1460              		.syntax unified
 1461              		.thumb
 1462              		.thumb_func
 1463              		.fpu fpv4-sp-d16
 1465              	GasGauge_Reset:
 1466              	.LFB145:
 764:../../core/drivers/STC3115/src/stc3115.c **** 
 765:../../core/drivers/STC3115/src/stc3115.c **** /*******************************************************************************
 766:../../core/drivers/STC3115/src/stc3115.c **** * Function Name  : GasGauge_Reset
 767:../../core/drivers/STC3115/src/stc3115.c **** * Description    : Reset the Gas Gauge system, this function must not be used frequently
 768:../../core/drivers/STC3115/src/stc3115.c **** * Input          : None
 769:../../core/drivers/STC3115/src/stc3115.c **** * Return         : 0 is ok, -1 if I2C error
 770:../../core/drivers/STC3115/src/stc3115.c **** *******************************************************************************/
 771:../../core/drivers/STC3115/src/stc3115.c **** int GasGauge_Reset(void)  
 772:../../core/drivers/STC3115/src/stc3115.c **** {
 1467              		.loc 1 772 0
 1468              		.cfi_startproc
 1469              		@ args = 0, pretend = 0, frame = 0
ARM GAS  /tmp/ccnLq8Cp.s 			page 42


 1470              		@ frame_needed = 0, uses_anonymous_args = 0
 1471 0000 08B5     		push	{r3, lr}
 1472              	.LCFI47:
 1473              		.cfi_def_cfa_offset 8
 1474              		.cfi_offset 3, -8
 1475              		.cfi_offset 14, -4
 773:../../core/drivers/STC3115/src/stc3115.c ****   int res;
 774:../../core/drivers/STC3115/src/stc3115.c **** 
 775:../../core/drivers/STC3115/src/stc3115.c ****   /* reset RAM */
 776:../../core/drivers/STC3115/src/stc3115.c ****   RAMData.reg.TestWord=0;  
 1476              		.loc 1 776 0
 1477 0002 0848     		ldr	r0, .L122
 1478 0004 0023     		movs	r3, #0
 1479 0006 0380     		strh	r3, [r0]	@ movhi
 777:../../core/drivers/STC3115/src/stc3115.c ****   RAMData.reg.STC3115_State = STC3115_UNINIT;
 1480              		.loc 1 777 0
 1481 0008 4372     		strb	r3, [r0, #9]
 778:../../core/drivers/STC3115/src/stc3115.c ****   res = STC3115_WriteRamData(RAMData.db);
 1482              		.loc 1 778 0
 1483 000a FFF7FEFF 		bl	STC3115_WriteRamData
 1484              	.LVL168:
 779:../../core/drivers/STC3115/src/stc3115.c ****   if(res != STC3115_OK) return res;
 1485              		.loc 1 779 0
 1486 000e 0346     		mov	r3, r0
 1487 0010 08B1     		cbz	r0, .L121
 1488              	.L118:
 780:../../core/drivers/STC3115/src/stc3115.c ****   
 781:../../core/drivers/STC3115/src/stc3115.c ****   /* reset STC3115*/
 782:../../core/drivers/STC3115/src/stc3115.c ****   res = STC3115_WriteByte(STC3115_REG_CTRL, STC3115_PORDET);  /*   set Soft Reset */
 783:../../core/drivers/STC3115/src/stc3115.c **** 
 784:../../core/drivers/STC3115/src/stc3115.c ****   return res;
 785:../../core/drivers/STC3115/src/stc3115.c **** }
 1489              		.loc 1 785 0
 1490 0012 1846     		mov	r0, r3
 1491              	.LVL169:
 1492 0014 08BD     		pop	{r3, pc}
 1493              	.LVL170:
 1494              	.L121:
 782:../../core/drivers/STC3115/src/stc3115.c **** 
 1495              		.loc 1 782 0
 1496 0016 1021     		movs	r1, #16
 1497 0018 0120     		movs	r0, #1
 1498              	.LVL171:
 1499 001a FFF7FEFF 		bl	STC3115_WriteByte
 1500              	.LVL172:
 1501 001e 0346     		mov	r3, r0
 1502              	.LVL173:
 784:../../core/drivers/STC3115/src/stc3115.c **** }
 1503              		.loc 1 784 0
 1504 0020 F7E7     		b	.L118
 1505              	.L123:
 1506 0022 00BF     		.align	2
 1507              	.L122:
 1508 0024 00000000 		.word	.LANCHOR0
 1509              		.cfi_endproc
 1510              	.LFE145:
 1512              		.section	.text.GasGauge_Stop,"ax",%progbits
ARM GAS  /tmp/ccnLq8Cp.s 			page 43


 1513              		.align	1
 1514              		.global	GasGauge_Stop
 1515              		.syntax unified
 1516              		.thumb
 1517              		.thumb_func
 1518              		.fpu fpv4-sp-d16
 1520              	GasGauge_Stop:
 1521              	.LFB146:
 786:../../core/drivers/STC3115/src/stc3115.c **** 
 787:../../core/drivers/STC3115/src/stc3115.c **** 
 788:../../core/drivers/STC3115/src/stc3115.c **** 
 789:../../core/drivers/STC3115/src/stc3115.c **** /*******************************************************************************
 790:../../core/drivers/STC3115/src/stc3115.c **** * Function Name  : GasGauge_Stop
 791:../../core/drivers/STC3115/src/stc3115.c **** * Description    : Stop the Gas Gauge system and save the context in STC3115 RAM
 792:../../core/drivers/STC3115/src/stc3115.c **** * Input          : None
 793:../../core/drivers/STC3115/src/stc3115.c **** * Return         : 0 is ok, -1 if I2C error
 794:../../core/drivers/STC3115/src/stc3115.c **** *******************************************************************************/
 795:../../core/drivers/STC3115/src/stc3115.c **** int GasGauge_Stop(void)
 796:../../core/drivers/STC3115/src/stc3115.c **** {
 1522              		.loc 1 796 0
 1523              		.cfi_startproc
 1524              		@ args = 0, pretend = 0, frame = 0
 1525              		@ frame_needed = 0, uses_anonymous_args = 0
 1526 0000 10B5     		push	{r4, lr}
 1527              	.LCFI48:
 1528              		.cfi_def_cfa_offset 8
 1529              		.cfi_offset 4, -8
 1530              		.cfi_offset 14, -4
 797:../../core/drivers/STC3115/src/stc3115.c ****   int res;
 798:../../core/drivers/STC3115/src/stc3115.c ****   
 799:../../core/drivers/STC3115/src/stc3115.c ****   /*Save context in RAM*/
 800:../../core/drivers/STC3115/src/stc3115.c ****   STC3115_ReadRamData(RAMData.db);
 1531              		.loc 1 800 0
 1532 0002 0A4C     		ldr	r4, .L128
 1533 0004 2046     		mov	r0, r4
 1534 0006 FFF7FEFF 		bl	STC3115_ReadRamData
 1535              	.LVL174:
 801:../../core/drivers/STC3115/src/stc3115.c ****   RAMData.reg.STC3115_State= STC3115_POWERDN;
 1536              		.loc 1 801 0
 1537 000a 4423     		movs	r3, #68
 1538 000c 6372     		strb	r3, [r4, #9]
 802:../../core/drivers/STC3115/src/stc3115.c ****   
 803:../../core/drivers/STC3115/src/stc3115.c ****   /* update the crc */
 804:../../core/drivers/STC3115/src/stc3115.c ****   STC3115_UpdateRamCRC();
 1539              		.loc 1 804 0
 1540 000e FFF7FEFF 		bl	STC3115_UpdateRamCRC
 1541              	.LVL175:
 805:../../core/drivers/STC3115/src/stc3115.c ****   STC3115_WriteRamData(RAMData.db);
 1542              		.loc 1 805 0
 1543 0012 2046     		mov	r0, r4
 1544 0014 FFF7FEFF 		bl	STC3115_WriteRamData
 1545              	.LVL176:
 806:../../core/drivers/STC3115/src/stc3115.c ****    
 807:../../core/drivers/STC3115/src/stc3115.c ****   /*STC3115 Power down (ie Standby mode with RAM content retention))*/
 808:../../core/drivers/STC3115/src/stc3115.c ****   res=STC3115_Powerdown();
 1546              		.loc 1 808 0
 1547 0018 FFF7FEFF 		bl	STC3115_Powerdown
ARM GAS  /tmp/ccnLq8Cp.s 			page 44


 1548              	.LVL177:
 809:../../core/drivers/STC3115/src/stc3115.c ****   if (res!=0) return (-1);  /* error */
 1549              		.loc 1 809 0
 1550 001c 0346     		mov	r3, r0
 1551 001e 08B9     		cbnz	r0, .L127
 1552              	.L124:
 810:../../core/drivers/STC3115/src/stc3115.c **** 
 811:../../core/drivers/STC3115/src/stc3115.c ****   return(0);  
 812:../../core/drivers/STC3115/src/stc3115.c **** }
 1553              		.loc 1 812 0
 1554 0020 1846     		mov	r0, r3
 1555              	.LVL178:
 1556 0022 10BD     		pop	{r4, pc}
 1557              	.LVL179:
 1558              	.L127:
 809:../../core/drivers/STC3115/src/stc3115.c ****   if (res!=0) return (-1);  /* error */
 1559              		.loc 1 809 0
 1560 0024 4FF0FF33 		mov	r3, #-1
 1561 0028 FAE7     		b	.L124
 1562              	.L129:
 1563 002a 00BF     		.align	2
 1564              	.L128:
 1565 002c 00000000 		.word	.LANCHOR0
 1566              		.cfi_endproc
 1567              	.LFE146:
 1569              		.section	.text.GasGauge_Task,"ax",%progbits
 1570              		.align	1
 1571              		.global	GasGauge_Task
 1572              		.syntax unified
 1573              		.thumb
 1574              		.thumb_func
 1575              		.fpu fpv4-sp-d16
 1577              	GasGauge_Task:
 1578              	.LFB147:
 813:../../core/drivers/STC3115/src/stc3115.c **** 
 814:../../core/drivers/STC3115/src/stc3115.c **** 
 815:../../core/drivers/STC3115/src/stc3115.c **** 
 816:../../core/drivers/STC3115/src/stc3115.c **** /*******************************************************************************
 817:../../core/drivers/STC3115/src/stc3115.c **** * Function Name  : GasGauge_Task
 818:../../core/drivers/STC3115/src/stc3115.c **** * Description    : Periodic Gas Gauge task, to be called periodically (every 1 to 60 seconds)
 819:../../core/drivers/STC3115/src/stc3115.c **** * Input          : STC315 ConfigData structure filled by GasGauge_Initialization function
 820:../../core/drivers/STC3115/src/stc3115.c **** * Return         : 1 if data available, 0 if no data, -1 if error
 821:../../core/drivers/STC3115/src/stc3115.c **** * Affect         : Fill the BatteryData structure with updated battery status
 822:../../core/drivers/STC3115/src/stc3115.c **** *******************************************************************************/
 823:../../core/drivers/STC3115/src/stc3115.c **** int GasGauge_Task(STC3115_ConfigData_TypeDef *ConfigData,STC3115_BatteryData_TypeDef *BatteryData)
 824:../../core/drivers/STC3115/src/stc3115.c **** {
 1579              		.loc 1 824 0
 1580              		.cfi_startproc
 1581              		@ args = 0, pretend = 0, frame = 0
 1582              		@ frame_needed = 0, uses_anonymous_args = 0
 1583              	.LVL180:
 1584 0000 70B5     		push	{r4, r5, r6, lr}
 1585              	.LCFI49:
 1586              		.cfi_def_cfa_offset 16
 1587              		.cfi_offset 4, -16
 1588              		.cfi_offset 5, -12
 1589              		.cfi_offset 6, -8
ARM GAS  /tmp/ccnLq8Cp.s 			page 45


 1590              		.cfi_offset 14, -4
 1591 0002 0646     		mov	r6, r0
 1592 0004 0C46     		mov	r4, r1
 825:../../core/drivers/STC3115/src/stc3115.c ****   int res;
 826:../../core/drivers/STC3115/src/stc3115.c **** 
 827:../../core/drivers/STC3115/src/stc3115.c ****   /* ----------------------------- System state verification ---------------------------- */
 828:../../core/drivers/STC3115/src/stc3115.c ****   /*Read STC3115 status registers */
 829:../../core/drivers/STC3115/src/stc3115.c ****   res=STC3115_GetStatusWord();
 1593              		.loc 1 829 0
 1594 0006 FFF7FEFF 		bl	STC3115_GetStatusWord
 1595              	.LVL181:
 830:../../core/drivers/STC3115/src/stc3115.c **** 
 831:../../core/drivers/STC3115/src/stc3115.c ****   if (res<0) return(res);  /* return if I2C error or STC3115 not responding */  
 1596              		.loc 1 831 0
 1597 000a 051E     		subs	r5, r0, #0
 1598 000c 5DDB     		blt	.L130
 832:../../core/drivers/STC3115/src/stc3115.c ****   BatteryData->StatusWord = res;
 1599              		.loc 1 832 0
 1600 000e 2560     		str	r5, [r4]
 833:../../core/drivers/STC3115/src/stc3115.c ****   
 834:../../core/drivers/STC3115/src/stc3115.c ****   /* check STC3115 RAM status (battery has not been changed) */
 835:../../core/drivers/STC3115/src/stc3115.c ****   STC3115_ReadRamData(RAMData.db);
 1601              		.loc 1 835 0
 1602 0010 6D4D     		ldr	r5, .L156
 1603 0012 2846     		mov	r0, r5
 1604              	.LVL182:
 1605 0014 FFF7FEFF 		bl	STC3115_ReadRamData
 1606              	.LVL183:
 836:../../core/drivers/STC3115/src/stc3115.c ****   if ( (RAMData.reg.TestWord!= RAM_TESTWORD) || (STC3115_CalcRamCRC8(RAMData.db,STC3115_RAM_SIZE)!=
 1607              		.loc 1 836 0
 1608 0018 B5F90020 		ldrsh	r2, [r5]
 1609 001c 45F2A933 		movw	r3, #21417
 1610 0020 9A42     		cmp	r2, r3
 1611 0022 04D1     		bne	.L132
 1612              		.loc 1 836 0 is_stmt 0 discriminator 1
 1613 0024 1021     		movs	r1, #16
 1614 0026 2846     		mov	r0, r5
 1615 0028 FFF7FEFF 		bl	STC3115_CalcRamCRC8
 1616              	.LVL184:
 1617 002c 28B1     		cbz	r0, .L133
 1618              	.L132:
 837:../../core/drivers/STC3115/src/stc3115.c ****   {
 838:../../core/drivers/STC3115/src/stc3115.c ****     /* if RAM non ok, reset it and set init state */
 839:../../core/drivers/STC3115/src/stc3115.c ****     STC3115_InitRamData(ConfigData); 
 1619              		.loc 1 839 0 is_stmt 1
 1620 002e 3046     		mov	r0, r6
 1621 0030 FFF7FEFF 		bl	STC3115_InitRamData
 1622              	.LVL185:
 840:../../core/drivers/STC3115/src/stc3115.c ****     RAMData.reg.STC3115_State = STC3115_INIT;
 1623              		.loc 1 840 0
 1624 0034 644B     		ldr	r3, .L156
 1625 0036 4922     		movs	r2, #73
 1626 0038 5A72     		strb	r2, [r3, #9]
 1627              	.L133:
 841:../../core/drivers/STC3115/src/stc3115.c ****   }  
 842:../../core/drivers/STC3115/src/stc3115.c ****   
 843:../../core/drivers/STC3115/src/stc3115.c ****   /* check battery presence status */
ARM GAS  /tmp/ccnLq8Cp.s 			page 46


 844:../../core/drivers/STC3115/src/stc3115.c ****   if ((BatteryData->StatusWord & ((int)STC3115_BATFAIL<<8)) != 0)
 1628              		.loc 1 844 0
 1629 003a 2368     		ldr	r3, [r4]
 1630 003c 13F4006F 		tst	r3, #2048
 1631 0040 45D1     		bne	.L151
 845:../../core/drivers/STC3115/src/stc3115.c ****   {
 846:../../core/drivers/STC3115/src/stc3115.c ****     /*Battery disconnection has been detected			*/
 847:../../core/drivers/STC3115/src/stc3115.c **** 		
 848:../../core/drivers/STC3115/src/stc3115.c **** 	/*BATD pin level is over 1.61 or Vcc is below 2.7V	*/
 849:../../core/drivers/STC3115/src/stc3115.c **** 	BatteryData->Presence = 0;
 850:../../core/drivers/STC3115/src/stc3115.c **** 	
 851:../../core/drivers/STC3115/src/stc3115.c **** 	/*HW and SW state machine reset*/
 852:../../core/drivers/STC3115/src/stc3115.c ****     GasGauge_Reset();
 853:../../core/drivers/STC3115/src/stc3115.c **** 
 854:../../core/drivers/STC3115/src/stc3115.c ****     return (-1);
 855:../../core/drivers/STC3115/src/stc3115.c ****   }
 856:../../core/drivers/STC3115/src/stc3115.c **** 	
 857:../../core/drivers/STC3115/src/stc3115.c ****   /* check STC3115 running mode*/
 858:../../core/drivers/STC3115/src/stc3115.c ****   if ((BatteryData->StatusWord & STC3115_GG_RUN) == 0) //Gas gauge no more running (in Standby mode
 1632              		.loc 1 858 0
 1633 0042 13F0100F 		tst	r3, #16
 1634 0046 0BD1     		bne	.L135
 859:../../core/drivers/STC3115/src/stc3115.c ****   {
 860:../../core/drivers/STC3115/src/stc3115.c **** 		if( (RAMData.reg.STC3115_State == STC3115_RUNNING) ||
 1635              		.loc 1 860 0
 1636 0048 5F4B     		ldr	r3, .L156
 1637 004a 5B7A     		ldrb	r3, [r3, #9]	@ zero_extendqisi2
 1638 004c 522B     		cmp	r3, #82
 1639 004e 01D0     		beq	.L136
 1640              		.loc 1 860 0 is_stmt 0 discriminator 1
 1641 0050 442B     		cmp	r3, #68
 1642 0052 43D1     		bne	.L137
 1643              	.L136:
 861:../../core/drivers/STC3115/src/stc3115.c **** 			(RAMData.reg.STC3115_State == STC3115_POWERDN)
 862:../../core/drivers/STC3115/src/stc3115.c **** 			)
 863:../../core/drivers/STC3115/src/stc3115.c **** 		{
 864:../../core/drivers/STC3115/src/stc3115.c **** 			STC3115_Restore(ConfigData);  /* if RUNNING state, restore STC3115 with latest good SoC value fo
 1644              		.loc 1 864 0 is_stmt 1
 1645 0054 3046     		mov	r0, r6
 1646 0056 FFF7FEFF 		bl	STC3115_Restore
 1647              	.LVL186:
 1648              	.L138:
 865:../../core/drivers/STC3115/src/stc3115.c **** 		}
 866:../../core/drivers/STC3115/src/stc3115.c **** 		else
 867:../../core/drivers/STC3115/src/stc3115.c **** 		{
 868:../../core/drivers/STC3115/src/stc3115.c **** 			STC3115_Startup(ConfigData);  /* if INIT state, initialize STC3115*/
 869:../../core/drivers/STC3115/src/stc3115.c **** 		}
 870:../../core/drivers/STC3115/src/stc3115.c **** 		
 871:../../core/drivers/STC3115/src/stc3115.c ****     RAMData.reg.STC3115_State = STC3115_INIT;
 1649              		.loc 1 871 0
 1650 005a 5B4B     		ldr	r3, .L156
 1651 005c 4922     		movs	r2, #73
 1652 005e 5A72     		strb	r2, [r3, #9]
 1653              	.L135:
 872:../../core/drivers/STC3115/src/stc3115.c ****   }
 873:../../core/drivers/STC3115/src/stc3115.c ****   
 874:../../core/drivers/STC3115/src/stc3115.c ****   /* --------------------------------- Read battery data ------------------------------- */
ARM GAS  /tmp/ccnLq8Cp.s 			page 47


 875:../../core/drivers/STC3115/src/stc3115.c **** 
 876:../../core/drivers/STC3115/src/stc3115.c ****   res=STC3115_ReadBatteryData(BatteryData);  
 1654              		.loc 1 876 0
 1655 0060 2046     		mov	r0, r4
 1656 0062 FFF7FEFF 		bl	STC3115_ReadBatteryData
 1657              	.LVL187:
 877:../../core/drivers/STC3115/src/stc3115.c ****   if (res!=0) return(-1); /* abort in case of I2C failure */
 1658              		.loc 1 877 0
 1659 0066 0546     		mov	r5, r0
 1660 0068 0028     		cmp	r0, #0
 1661 006a 40F0A980 		bne	.L149
 878:../../core/drivers/STC3115/src/stc3115.c ****   
 879:../../core/drivers/STC3115/src/stc3115.c ****   
 880:../../core/drivers/STC3115/src/stc3115.c ****   /* ------------------------------- battery data report ------------------------------- */
 881:../../core/drivers/STC3115/src/stc3115.c ****   /* check INIT state */
 882:../../core/drivers/STC3115/src/stc3115.c ****   if (RAMData.reg.STC3115_State == STC3115_INIT)
 1662              		.loc 1 882 0
 1663 006e 564B     		ldr	r3, .L156
 1664 0070 5B7A     		ldrb	r3, [r3, #9]	@ zero_extendqisi2
 1665 0072 492B     		cmp	r3, #73
 1666 0074 36D0     		beq	.L152
 1667              	.L139:
 883:../../core/drivers/STC3115/src/stc3115.c ****   {
 884:../../core/drivers/STC3115/src/stc3115.c ****     /* INIT state, wait for current & temperature value available: */
 885:../../core/drivers/STC3115/src/stc3115.c ****     if (BatteryData->ConvCounter > VCOUNT) 
 886:../../core/drivers/STC3115/src/stc3115.c ****     {
 887:../../core/drivers/STC3115/src/stc3115.c ****         RAMData.reg.STC3115_State = STC3115_RUNNING;
 888:../../core/drivers/STC3115/src/stc3115.c **** 		/*Battery is connected*/
 889:../../core/drivers/STC3115/src/stc3115.c **** 		BatteryData->Presence = 1;
 890:../../core/drivers/STC3115/src/stc3115.c ****     }
 891:../../core/drivers/STC3115/src/stc3115.c ****   }
 892:../../core/drivers/STC3115/src/stc3115.c **** 
 893:../../core/drivers/STC3115/src/stc3115.c ****   if (RAMData.reg.STC3115_State != STC3115_RUNNING) /* not running : data partially available*/
 1668              		.loc 1 893 0
 1669 0076 544B     		ldr	r3, .L156
 1670 0078 5B7A     		ldrb	r3, [r3, #9]	@ zero_extendqisi2
 1671 007a 522B     		cmp	r3, #82
 1672 007c 3BD0     		beq	.L140
 894:../../core/drivers/STC3115/src/stc3115.c ****   {
 895:../../core/drivers/STC3115/src/stc3115.c ****   	BatteryData->ChargeValue = ConfigData->Cnom * BatteryData->SOC / MAX_SOC;
 1673              		.loc 1 895 0
 1674 007e 7269     		ldr	r2, [r6, #20]
 1675 0080 A368     		ldr	r3, [r4, #8]
 1676 0082 03FB02F3 		mul	r3, r3, r2
 1677 0086 514A     		ldr	r2, .L156+4
 1678 0088 82FB0312 		smull	r1, r2, r2, r3
 1679 008c DB17     		asrs	r3, r3, #31
 1680 008e C3EBA213 		rsb	r3, r3, r2, asr #6
 1681 0092 6362     		str	r3, [r4, #36]
 896:../../core/drivers/STC3115/src/stc3115.c ****     BatteryData->Current=0;
 1682              		.loc 1 896 0
 1683 0094 0023     		movs	r3, #0
 1684 0096 2361     		str	r3, [r4, #16]
 897:../../core/drivers/STC3115/src/stc3115.c **** 	  BatteryData->Temperature=250;
 1685              		.loc 1 897 0
 1686 0098 FA23     		movs	r3, #250
 1687 009a 6361     		str	r3, [r4, #20]
ARM GAS  /tmp/ccnLq8Cp.s 			page 48


 898:../../core/drivers/STC3115/src/stc3115.c ****     BatteryData->RemTime = -1;
 1688              		.loc 1 898 0
 1689 009c 4FF0FF33 		mov	r3, #-1
 1690 00a0 A362     		str	r3, [r4, #40]
 1691              	.LVL188:
 1692              	.L141:
 899:../../core/drivers/STC3115/src/stc3115.c ****   }
 900:../../core/drivers/STC3115/src/stc3115.c ****   else /* STC3115 running */
 901:../../core/drivers/STC3115/src/stc3115.c ****   {
 902:../../core/drivers/STC3115/src/stc3115.c ****   
 903:../../core/drivers/STC3115/src/stc3115.c **** 	/* ---------- process SW algorithms -------- */
 904:../../core/drivers/STC3115/src/stc3115.c **** 		
 905:../../core/drivers/STC3115/src/stc3115.c **** 	/* early empty compensation */
 906:../../core/drivers/STC3115/src/stc3115.c **** 	if (BatteryData->Voltage < APP_CUTOFF_VOLTAGE)
 907:../../core/drivers/STC3115/src/stc3115.c **** 		BatteryData->SOC = 0;
 908:../../core/drivers/STC3115/src/stc3115.c **** 	else if (BatteryData->Voltage < (APP_CUTOFF_VOLTAGE+VOLTAGE_SECURITY_RANGE))
 909:../../core/drivers/STC3115/src/stc3115.c **** 	{
 910:../../core/drivers/STC3115/src/stc3115.c **** 		// Recommended software security: scaling down the SOC if voltage is considered too close to the 
 911:../../core/drivers/STC3115/src/stc3115.c **** 		BatteryData->SOC = BatteryData->SOC * (BatteryData->Voltage - APP_CUTOFF_VOLTAGE) / VOLTAGE_SECUR
 912:../../core/drivers/STC3115/src/stc3115.c **** 	}
 913:../../core/drivers/STC3115/src/stc3115.c **** 
 914:../../core/drivers/STC3115/src/stc3115.c **** 	/* Battery charge value calculation */
 915:../../core/drivers/STC3115/src/stc3115.c **** 	BatteryData->ChargeValue = ConfigData->Cnom * BatteryData->SOC / MAX_SOC;
 916:../../core/drivers/STC3115/src/stc3115.c **** 
 917:../../core/drivers/STC3115/src/stc3115.c **** 	if ((BatteryData->StatusWord & STC3115_VMODE) == 0) /* mixed mode only*/
 918:../../core/drivers/STC3115/src/stc3115.c **** 	{  
 919:../../core/drivers/STC3115/src/stc3115.c **** 		
 920:../../core/drivers/STC3115/src/stc3115.c **** 		/*Lately fully compensation*/
 921:../../core/drivers/STC3115/src/stc3115.c **** 		if ((BatteryData->StatusWord & STC3115_VMODE) == 0) /*running in mixed mode*/
 922:../../core/drivers/STC3115/src/stc3115.c **** 		{ 
 923:../../core/drivers/STC3115/src/stc3115.c **** 			
 924:../../core/drivers/STC3115/src/stc3115.c **** 			if(BatteryData->Current > APP_EOC_CURRENT && BatteryData->SOC > 990)
 925:../../core/drivers/STC3115/src/stc3115.c **** 			{
 926:../../core/drivers/STC3115/src/stc3115.c **** 				BatteryData->SOC = 990;
 927:../../core/drivers/STC3115/src/stc3115.c **** 				STC3115_WriteWord(STC3115_REG_SOC,50688);   /* 99% */  //force a new SoC displayed by fuel gaug
 928:../../core/drivers/STC3115/src/stc3115.c **** 			}
 929:../../core/drivers/STC3115/src/stc3115.c **** 		}
 930:../../core/drivers/STC3115/src/stc3115.c **** 		
 931:../../core/drivers/STC3115/src/stc3115.c **** 		/*Remaining time calculation*/
 932:../../core/drivers/STC3115/src/stc3115.c **** 		if(BatteryData->Current < 0)
 933:../../core/drivers/STC3115/src/stc3115.c **** 		{
 934:../../core/drivers/STC3115/src/stc3115.c **** 			BatteryData->RemTime = (BatteryData->RemTime * 4 + BatteryData->ChargeValue / BatteryData->Curre
 935:../../core/drivers/STC3115/src/stc3115.c **** 			if( BatteryData->RemTime  < 0)
 936:../../core/drivers/STC3115/src/stc3115.c **** 				BatteryData->RemTime = -1; /* means no estimated time available */
 937:../../core/drivers/STC3115/src/stc3115.c **** 		}
 938:../../core/drivers/STC3115/src/stc3115.c **** 		else
 939:../../core/drivers/STC3115/src/stc3115.c **** 			BatteryData->RemTime = -1; /* means no estimated time available */
 940:../../core/drivers/STC3115/src/stc3115.c **** 		
 941:../../core/drivers/STC3115/src/stc3115.c **** 	}
 942:../../core/drivers/STC3115/src/stc3115.c **** 	else /* voltage mode only */
 943:../../core/drivers/STC3115/src/stc3115.c **** 	{
 944:../../core/drivers/STC3115/src/stc3115.c **** 		BatteryData->Current=0;
 945:../../core/drivers/STC3115/src/stc3115.c **** 		BatteryData->RemTime = -1;
 946:../../core/drivers/STC3115/src/stc3115.c **** 	}
 947:../../core/drivers/STC3115/src/stc3115.c **** 	
 948:../../core/drivers/STC3115/src/stc3115.c **** 	//SOC min/max clamping
 949:../../core/drivers/STC3115/src/stc3115.c **** 	if(BatteryData->SOC>1000) BatteryData->SOC = MAX_SOC;
ARM GAS  /tmp/ccnLq8Cp.s 			page 49


 950:../../core/drivers/STC3115/src/stc3115.c **** 	if(BatteryData->SOC<0) BatteryData->SOC = 0;
 951:../../core/drivers/STC3115/src/stc3115.c **** 
 952:../../core/drivers/STC3115/src/stc3115.c ****   }
 953:../../core/drivers/STC3115/src/stc3115.c ****       
 954:../../core/drivers/STC3115/src/stc3115.c ****   /* save SOC to internal RAM (in case of future Restore process) */
 955:../../core/drivers/STC3115/src/stc3115.c ****   {
 956:../../core/drivers/STC3115/src/stc3115.c **** 	  RAMData.reg.HRSOC = BatteryData->HRSOC;
 1693              		.loc 1 956 0
 1694 00a2 6368     		ldr	r3, [r4, #4]
 1695 00a4 484E     		ldr	r6, .L156
 1696              	.LVL189:
 1697 00a6 7380     		strh	r3, [r6, #2]	@ movhi
 957:../../core/drivers/STC3115/src/stc3115.c **** 	  RAMData.reg.SOC = (BatteryData->SOC+5)/10;
 1698              		.loc 1 957 0
 1699 00a8 A368     		ldr	r3, [r4, #8]
 1700 00aa 0533     		adds	r3, r3, #5
 1701 00ac 484A     		ldr	r2, .L156+8
 1702 00ae 82FB0312 		smull	r1, r2, r2, r3
 1703 00b2 DB17     		asrs	r3, r3, #31
 1704 00b4 C3EBA203 		rsb	r3, r3, r2, asr #2
 1705 00b8 3372     		strb	r3, [r6, #8]
 958:../../core/drivers/STC3115/src/stc3115.c **** 	  STC3115_UpdateRamCRC();
 1706              		.loc 1 958 0
 1707 00ba FFF7FEFF 		bl	STC3115_UpdateRamCRC
 1708              	.LVL190:
 959:../../core/drivers/STC3115/src/stc3115.c **** 	  STC3115_WriteRamData(RAMData.db);
 1709              		.loc 1 959 0
 1710 00be 3046     		mov	r0, r6
 1711 00c0 FFF7FEFF 		bl	STC3115_WriteRamData
 1712              	.LVL191:
 960:../../core/drivers/STC3115/src/stc3115.c ****   }
 961:../../core/drivers/STC3115/src/stc3115.c **** 
 962:../../core/drivers/STC3115/src/stc3115.c ****   if (RAMData.reg.STC3115_State==STC3115_RUNNING)
 1713              		.loc 1 962 0
 1714 00c4 737A     		ldrb	r3, [r6, #9]	@ zero_extendqisi2
 1715 00c6 522B     		cmp	r3, #82
 1716 00c8 78D0     		beq	.L153
 1717              	.LVL192:
 1718              	.L130:
 963:../../core/drivers/STC3115/src/stc3115.c ****     return(1);
 964:../../core/drivers/STC3115/src/stc3115.c ****   else
 965:../../core/drivers/STC3115/src/stc3115.c ****     return(0);  /* only SOC, OCV and voltage are valid */
 966:../../core/drivers/STC3115/src/stc3115.c **** }
 1719              		.loc 1 966 0
 1720 00ca 2846     		mov	r0, r5
 1721 00cc 70BD     		pop	{r4, r5, r6, pc}
 1722              	.LVL193:
 1723              	.L151:
 849:../../core/drivers/STC3115/src/stc3115.c **** 	
 1724              		.loc 1 849 0
 1725 00ce 0023     		movs	r3, #0
 1726 00d0 2362     		str	r3, [r4, #32]
 852:../../core/drivers/STC3115/src/stc3115.c **** 
 1727              		.loc 1 852 0
 1728 00d2 FFF7FEFF 		bl	GasGauge_Reset
 1729              	.LVL194:
 854:../../core/drivers/STC3115/src/stc3115.c ****   }
ARM GAS  /tmp/ccnLq8Cp.s 			page 50


 1730              		.loc 1 854 0
 1731 00d6 4FF0FF35 		mov	r5, #-1
 1732 00da F6E7     		b	.L130
 1733              	.L137:
 868:../../core/drivers/STC3115/src/stc3115.c **** 		}
 1734              		.loc 1 868 0
 1735 00dc 3046     		mov	r0, r6
 1736 00de FFF7FEFF 		bl	STC3115_Startup
 1737              	.LVL195:
 1738 00e2 BAE7     		b	.L138
 1739              	.LVL196:
 1740              	.L152:
 885:../../core/drivers/STC3115/src/stc3115.c ****     {
 1741              		.loc 1 885 0
 1742 00e4 A369     		ldr	r3, [r4, #24]
 1743 00e6 042B     		cmp	r3, #4
 1744 00e8 C5DD     		ble	.L139
 887:../../core/drivers/STC3115/src/stc3115.c **** 		/*Battery is connected*/
 1745              		.loc 1 887 0
 1746 00ea 374B     		ldr	r3, .L156
 1747 00ec 5222     		movs	r2, #82
 1748 00ee 5A72     		strb	r2, [r3, #9]
 889:../../core/drivers/STC3115/src/stc3115.c ****     }
 1749              		.loc 1 889 0
 1750 00f0 0123     		movs	r3, #1
 1751 00f2 2362     		str	r3, [r4, #32]
 1752 00f4 BFE7     		b	.L139
 1753              	.L140:
 906:../../core/drivers/STC3115/src/stc3115.c **** 		BatteryData->SOC = 0;
 1754              		.loc 1 906 0
 1755 00f6 E368     		ldr	r3, [r4, #12]
 1756 00f8 40F6B732 		movw	r2, #2999
 1757 00fc 9342     		cmp	r3, r2
 1758 00fe 1EDC     		bgt	.L142
 907:../../core/drivers/STC3115/src/stc3115.c **** 	else if (BatteryData->Voltage < (APP_CUTOFF_VOLTAGE+VOLTAGE_SECURITY_RANGE))
 1759              		.loc 1 907 0
 1760 0100 0023     		movs	r3, #0
 1761 0102 A360     		str	r3, [r4, #8]
 1762              	.L143:
 915:../../core/drivers/STC3115/src/stc3115.c **** 
 1763              		.loc 1 915 0
 1764 0104 7369     		ldr	r3, [r6, #20]
 1765 0106 A168     		ldr	r1, [r4, #8]
 1766 0108 01FB03F3 		mul	r3, r1, r3
 1767 010c 2F4A     		ldr	r2, .L156+4
 1768 010e 82FB0302 		smull	r0, r2, r2, r3
 1769              	.LVL197:
 1770 0112 DB17     		asrs	r3, r3, #31
 1771 0114 C3EBA213 		rsb	r3, r3, r2, asr #6
 1772 0118 6362     		str	r3, [r4, #36]
 917:../../core/drivers/STC3115/src/stc3115.c **** 	{  
 1773              		.loc 1 917 0
 1774 011a 2368     		ldr	r3, [r4]
 1775 011c 13F0010F 		tst	r3, #1
 1776 0120 39D1     		bne	.L144
 924:../../core/drivers/STC3115/src/stc3115.c **** 			{
 1777              		.loc 1 924 0
ARM GAS  /tmp/ccnLq8Cp.s 			page 51


 1778 0122 2369     		ldr	r3, [r4, #16]
 1779 0124 4B2B     		cmp	r3, #75
 1780 0126 03DD     		ble	.L145
 924:../../core/drivers/STC3115/src/stc3115.c **** 			{
 1781              		.loc 1 924 0 is_stmt 0 discriminator 1
 1782 0128 40F2DE33 		movw	r3, #990
 1783 012c 9942     		cmp	r1, r3
 1784 012e 16DC     		bgt	.L154
 1785              	.L145:
 932:../../core/drivers/STC3115/src/stc3115.c **** 		{
 1786              		.loc 1 932 0 is_stmt 1
 1787 0130 2169     		ldr	r1, [r4, #16]
 1788 0132 0029     		cmp	r1, #0
 1789 0134 1ADB     		blt	.L155
 939:../../core/drivers/STC3115/src/stc3115.c **** 		
 1790              		.loc 1 939 0
 1791 0136 4FF0FF33 		mov	r3, #-1
 1792 013a A362     		str	r3, [r4, #40]
 1793 013c 30E0     		b	.L147
 1794              	.LVL198:
 1795              	.L142:
 908:../../core/drivers/STC3115/src/stc3115.c **** 	{
 1796              		.loc 1 908 0
 1797 013e B3F5486F 		cmp	r3, #3200
 1798 0142 DFDA     		bge	.L143
 911:../../core/drivers/STC3115/src/stc3115.c **** 	}
 1799              		.loc 1 911 0
 1800 0144 A268     		ldr	r2, [r4, #8]
 1801 0146 A3F6B833 		subw	r3, r3, #3000
 1802 014a 03FB02F3 		mul	r3, r3, r2
 1803 014e 214A     		ldr	r2, .L156+12
 1804 0150 82FB0312 		smull	r1, r2, r2, r3
 1805 0154 DB17     		asrs	r3, r3, #31
 1806 0156 C3EBA213 		rsb	r3, r3, r2, asr #6
 1807 015a A360     		str	r3, [r4, #8]
 1808 015c D2E7     		b	.L143
 1809              	.LVL199:
 1810              	.L154:
 926:../../core/drivers/STC3115/src/stc3115.c **** 				STC3115_WriteWord(STC3115_REG_SOC,50688);   /* 99% */  //force a new SoC displayed by fuel gaug
 1811              		.loc 1 926 0
 1812 015e A360     		str	r3, [r4, #8]
 927:../../core/drivers/STC3115/src/stc3115.c **** 			}
 1813              		.loc 1 927 0
 1814 0160 4FF44641 		mov	r1, #50688
 1815 0164 0220     		movs	r0, #2
 1816 0166 FFF7FEFF 		bl	STC3115_WriteWord
 1817              	.LVL200:
 1818 016a E1E7     		b	.L145
 1819              	.L155:
 934:../../core/drivers/STC3115/src/stc3115.c **** 			if( BatteryData->RemTime  < 0)
 1820              		.loc 1 934 0
 1821 016c A26A     		ldr	r2, [r4, #40]
 1822 016e 636A     		ldr	r3, [r4, #36]
 1823 0170 93FBF1F3 		sdiv	r3, r3, r1
 1824 0174 C3EB0313 		rsb	r3, r3, r3, lsl #4
 1825 0178 1A44     		add	r2, r2, r3
 1826 017a 9200     		lsls	r2, r2, #2
ARM GAS  /tmp/ccnLq8Cp.s 			page 52


 1827 017c 1449     		ldr	r1, .L156+8
 1828 017e 81FB0231 		smull	r3, r1, r1, r2
 1829 0182 D317     		asrs	r3, r2, #31
 1830 0184 C3EB6103 		rsb	r3, r3, r1, asr #1
 1831 0188 A362     		str	r3, [r4, #40]
 935:../../core/drivers/STC3115/src/stc3115.c **** 				BatteryData->RemTime = -1; /* means no estimated time available */
 1832              		.loc 1 935 0
 1833 018a 002B     		cmp	r3, #0
 1834 018c 08DA     		bge	.L147
 936:../../core/drivers/STC3115/src/stc3115.c **** 		}
 1835              		.loc 1 936 0
 1836 018e 4FF0FF33 		mov	r3, #-1
 1837 0192 A362     		str	r3, [r4, #40]
 1838 0194 04E0     		b	.L147
 1839              	.L144:
 944:../../core/drivers/STC3115/src/stc3115.c **** 		BatteryData->RemTime = -1;
 1840              		.loc 1 944 0
 1841 0196 0023     		movs	r3, #0
 1842 0198 2361     		str	r3, [r4, #16]
 945:../../core/drivers/STC3115/src/stc3115.c **** 	}
 1843              		.loc 1 945 0
 1844 019a 4FF0FF33 		mov	r3, #-1
 1845 019e A362     		str	r3, [r4, #40]
 1846              	.L147:
 949:../../core/drivers/STC3115/src/stc3115.c **** 	if(BatteryData->SOC<0) BatteryData->SOC = 0;
 1847              		.loc 1 949 0
 1848 01a0 A368     		ldr	r3, [r4, #8]
 1849 01a2 B3F57A7F 		cmp	r3, #1000
 1850 01a6 02DD     		ble	.L148
 949:../../core/drivers/STC3115/src/stc3115.c **** 	if(BatteryData->SOC<0) BatteryData->SOC = 0;
 1851              		.loc 1 949 0 is_stmt 0 discriminator 1
 1852 01a8 4FF47A73 		mov	r3, #1000
 1853 01ac A360     		str	r3, [r4, #8]
 1854              	.L148:
 950:../../core/drivers/STC3115/src/stc3115.c **** 
 1855              		.loc 1 950 0 is_stmt 1
 1856 01ae A368     		ldr	r3, [r4, #8]
 1857 01b0 002B     		cmp	r3, #0
 1858 01b2 BFF676AF 		bge	.L141
 950:../../core/drivers/STC3115/src/stc3115.c **** 
 1859              		.loc 1 950 0 is_stmt 0 discriminator 1
 1860 01b6 0023     		movs	r3, #0
 1861 01b8 A360     		str	r3, [r4, #8]
 1862 01ba 72E7     		b	.L141
 1863              	.LVL201:
 1864              	.L153:
 963:../../core/drivers/STC3115/src/stc3115.c ****   else
 1865              		.loc 1 963 0 is_stmt 1
 1866 01bc 0125     		movs	r5, #1
 1867              	.LVL202:
 1868 01be 84E7     		b	.L130
 1869              	.LVL203:
 1870              	.L149:
 877:../../core/drivers/STC3115/src/stc3115.c ****   
 1871              		.loc 1 877 0
 1872 01c0 4FF0FF35 		mov	r5, #-1
 1873 01c4 81E7     		b	.L130
ARM GAS  /tmp/ccnLq8Cp.s 			page 53


 1874              	.L157:
 1875 01c6 00BF     		.align	2
 1876              	.L156:
 1877 01c8 00000000 		.word	.LANCHOR0
 1878 01cc D34D6210 		.word	274877907
 1879 01d0 67666666 		.word	1717986919
 1880 01d4 1F85EB51 		.word	1374389535
 1881              		.cfi_endproc
 1882              	.LFE147:
 1884              		.section	.text.STC3115_SetPowerSavingMode,"ax",%progbits
 1885              		.align	1
 1886              		.global	STC3115_SetPowerSavingMode
 1887              		.syntax unified
 1888              		.thumb
 1889              		.thumb_func
 1890              		.fpu fpv4-sp-d16
 1892              	STC3115_SetPowerSavingMode:
 1893              	.LFB148:
 967:../../core/drivers/STC3115/src/stc3115.c **** 
 968:../../core/drivers/STC3115/src/stc3115.c **** 
 969:../../core/drivers/STC3115/src/stc3115.c **** 
 970:../../core/drivers/STC3115/src/stc3115.c **** /*******************************************************************************
 971:../../core/drivers/STC3115/src/stc3115.c **** * Function Name  : STC3115_SetPowerSavingMode
 972:../../core/drivers/STC3115/src/stc3115.c **** * Description    : Set the power saving mode
 973:../../core/drivers/STC3115/src/stc3115.c **** * Input          : None
 974:../../core/drivers/STC3115/src/stc3115.c **** * Return         : error status (STC3115_OK, !STC3115_OK)
 975:../../core/drivers/STC3115/src/stc3115.c **** *******************************************************************************/
 976:../../core/drivers/STC3115/src/stc3115.c **** int STC3115_SetPowerSavingMode(void)
 977:../../core/drivers/STC3115/src/stc3115.c **** {
 1894              		.loc 1 977 0
 1895              		.cfi_startproc
 1896              		@ args = 0, pretend = 0, frame = 0
 1897              		@ frame_needed = 0, uses_anonymous_args = 0
 1898 0000 08B5     		push	{r3, lr}
 1899              	.LCFI50:
 1900              		.cfi_def_cfa_offset 8
 1901              		.cfi_offset 3, -8
 1902              		.cfi_offset 14, -4
 978:../../core/drivers/STC3115/src/stc3115.c ****   int res;
 979:../../core/drivers/STC3115/src/stc3115.c ****   
 980:../../core/drivers/STC3115/src/stc3115.c ****   /* Read the mode register*/
 981:../../core/drivers/STC3115/src/stc3115.c ****   res = STC3115_ReadByte(STC3115_REG_MODE);
 1903              		.loc 1 981 0
 1904 0002 0020     		movs	r0, #0
 1905 0004 FFF7FEFF 		bl	STC3115_ReadByte
 1906              	.LVL204:
 982:../../core/drivers/STC3115/src/stc3115.c **** 
 983:../../core/drivers/STC3115/src/stc3115.c ****   /* Set the VMODE bit to 1 */
 984:../../core/drivers/STC3115/src/stc3115.c ****   res = STC3115_WriteByte(STC3115_REG_MODE, (res | STC3115_VMODE));
 1907              		.loc 1 984 0
 1908 0008 40F00101 		orr	r1, r0, #1
 1909 000c C9B2     		uxtb	r1, r1
 1910 000e 0020     		movs	r0, #0
 1911              	.LVL205:
 1912 0010 FFF7FEFF 		bl	STC3115_WriteByte
 1913              	.LVL206:
 985:../../core/drivers/STC3115/src/stc3115.c ****   if (res!= STC3115_OK) return (res);
ARM GAS  /tmp/ccnLq8Cp.s 			page 54


 986:../../core/drivers/STC3115/src/stc3115.c **** 
 987:../../core/drivers/STC3115/src/stc3115.c ****    return (STC3115_OK);
 988:../../core/drivers/STC3115/src/stc3115.c **** }
 1914              		.loc 1 988 0
 1915 0014 08BD     		pop	{r3, pc}
 1916              		.cfi_endproc
 1917              	.LFE148:
 1919              		.section	.text.STC3115_StopPowerSavingMode,"ax",%progbits
 1920              		.align	1
 1921              		.global	STC3115_StopPowerSavingMode
 1922              		.syntax unified
 1923              		.thumb
 1924              		.thumb_func
 1925              		.fpu fpv4-sp-d16
 1927              	STC3115_StopPowerSavingMode:
 1928              	.LFB149:
 989:../../core/drivers/STC3115/src/stc3115.c **** 
 990:../../core/drivers/STC3115/src/stc3115.c **** 
 991:../../core/drivers/STC3115/src/stc3115.c **** /*******************************************************************************
 992:../../core/drivers/STC3115/src/stc3115.c **** * Function Name  : STC3115_StopPowerSavingMode
 993:../../core/drivers/STC3115/src/stc3115.c **** * Description    : Stop the power saving mode
 994:../../core/drivers/STC3115/src/stc3115.c **** * Input          : None
 995:../../core/drivers/STC3115/src/stc3115.c **** * Return         : error status (STC3115_OK, !STC3115_OK)
 996:../../core/drivers/STC3115/src/stc3115.c **** *******************************************************************************/
 997:../../core/drivers/STC3115/src/stc3115.c **** int STC3115_StopPowerSavingMode(void)
 998:../../core/drivers/STC3115/src/stc3115.c **** {
 1929              		.loc 1 998 0
 1930              		.cfi_startproc
 1931              		@ args = 0, pretend = 0, frame = 0
 1932              		@ frame_needed = 0, uses_anonymous_args = 0
 1933 0000 08B5     		push	{r3, lr}
 1934              	.LCFI51:
 1935              		.cfi_def_cfa_offset 8
 1936              		.cfi_offset 3, -8
 1937              		.cfi_offset 14, -4
 999:../../core/drivers/STC3115/src/stc3115.c ****   int res;
1000:../../core/drivers/STC3115/src/stc3115.c ****   
1001:../../core/drivers/STC3115/src/stc3115.c ****   /* Read the mode register*/
1002:../../core/drivers/STC3115/src/stc3115.c ****   res = STC3115_ReadByte(STC3115_REG_MODE);
 1938              		.loc 1 1002 0
 1939 0002 0020     		movs	r0, #0
 1940 0004 FFF7FEFF 		bl	STC3115_ReadByte
 1941              	.LVL207:
1003:../../core/drivers/STC3115/src/stc3115.c **** 
1004:../../core/drivers/STC3115/src/stc3115.c ****   /*STC3115 is in power saving mode by default, cannot be set dynamically in mixed mode.		*/
1005:../../core/drivers/STC3115/src/stc3115.c ****   /*Change stc3115_Driver.h VMODE parameter, and connect an external sense resistor to STC3115	*/
1006:../../core/drivers/STC3115/src/stc3115.c ****   if (VMODE != MIXED_MODE) return (!STC3115_OK); 
1007:../../core/drivers/STC3115/src/stc3115.c ****   
1008:../../core/drivers/STC3115/src/stc3115.c ****   /* Set the VMODE bit to 0 */
1009:../../core/drivers/STC3115/src/stc3115.c ****   res = STC3115_WriteByte(STC3115_REG_MODE, (res & ~STC3115_VMODE));
 1942              		.loc 1 1009 0
 1943 0008 00F0FE01 		and	r1, r0, #254
 1944 000c 0020     		movs	r0, #0
 1945              	.LVL208:
 1946 000e FFF7FEFF 		bl	STC3115_WriteByte
 1947              	.LVL209:
1010:../../core/drivers/STC3115/src/stc3115.c ****   if (res!= STC3115_OK) return (res);
ARM GAS  /tmp/ccnLq8Cp.s 			page 55


1011:../../core/drivers/STC3115/src/stc3115.c **** 
1012:../../core/drivers/STC3115/src/stc3115.c ****    return (STC3115_OK);
1013:../../core/drivers/STC3115/src/stc3115.c **** }
 1948              		.loc 1 1013 0
 1949 0012 08BD     		pop	{r3, pc}
 1950              		.cfi_endproc
 1951              	.LFE149:
 1953              		.section	.text.STC3115_AlarmSet,"ax",%progbits
 1954              		.align	1
 1955              		.global	STC3115_AlarmSet
 1956              		.syntax unified
 1957              		.thumb
 1958              		.thumb_func
 1959              		.fpu fpv4-sp-d16
 1961              	STC3115_AlarmSet:
 1962              	.LFB150:
1014:../../core/drivers/STC3115/src/stc3115.c **** 
1015:../../core/drivers/STC3115/src/stc3115.c **** 
1016:../../core/drivers/STC3115/src/stc3115.c **** /*******************************************************************************
1017:../../core/drivers/STC3115/src/stc3115.c **** * Function Name  : STC3115_AlarmSet
1018:../../core/drivers/STC3115/src/stc3115.c **** * Description    : Set the alarm function
1019:../../core/drivers/STC3115/src/stc3115.c **** * Input          : None
1020:../../core/drivers/STC3115/src/stc3115.c **** * Return         : error status (STC3115_OK, !STC3115_OK)
1021:../../core/drivers/STC3115/src/stc3115.c **** *******************************************************************************/
1022:../../core/drivers/STC3115/src/stc3115.c **** int STC3115_AlarmSet(void)
1023:../../core/drivers/STC3115/src/stc3115.c **** {
 1963              		.loc 1 1023 0
 1964              		.cfi_startproc
 1965              		@ args = 0, pretend = 0, frame = 0
 1966              		@ frame_needed = 0, uses_anonymous_args = 0
 1967 0000 08B5     		push	{r3, lr}
 1968              	.LCFI52:
 1969              		.cfi_def_cfa_offset 8
 1970              		.cfi_offset 3, -8
 1971              		.cfi_offset 14, -4
1024:../../core/drivers/STC3115/src/stc3115.c ****   int res;
1025:../../core/drivers/STC3115/src/stc3115.c **** 
1026:../../core/drivers/STC3115/src/stc3115.c ****   /* Read the mode register*/
1027:../../core/drivers/STC3115/src/stc3115.c ****   res = STC3115_ReadByte(STC3115_REG_MODE);
 1972              		.loc 1 1027 0
 1973 0002 0020     		movs	r0, #0
 1974 0004 FFF7FEFF 		bl	STC3115_ReadByte
 1975              	.LVL210:
1028:../../core/drivers/STC3115/src/stc3115.c **** 
1029:../../core/drivers/STC3115/src/stc3115.c ****   /* Set the ALM_ENA bit to 1 */
1030:../../core/drivers/STC3115/src/stc3115.c ****   res = STC3115_WriteByte(STC3115_REG_MODE, (res | STC3115_ALM_ENA));
 1976              		.loc 1 1030 0
 1977 0008 40F00801 		orr	r1, r0, #8
 1978 000c C9B2     		uxtb	r1, r1
 1979 000e 0020     		movs	r0, #0
 1980              	.LVL211:
 1981 0010 FFF7FEFF 		bl	STC3115_WriteByte
 1982              	.LVL212:
1031:../../core/drivers/STC3115/src/stc3115.c ****   if (res!= STC3115_OK) return (res);
1032:../../core/drivers/STC3115/src/stc3115.c **** 
1033:../../core/drivers/STC3115/src/stc3115.c ****   return (STC3115_OK);
1034:../../core/drivers/STC3115/src/stc3115.c **** }
ARM GAS  /tmp/ccnLq8Cp.s 			page 56


 1983              		.loc 1 1034 0
 1984 0014 08BD     		pop	{r3, pc}
 1985              		.cfi_endproc
 1986              	.LFE150:
 1988              		.section	.text.STC3115_AlarmStop,"ax",%progbits
 1989              		.align	1
 1990              		.global	STC3115_AlarmStop
 1991              		.syntax unified
 1992              		.thumb
 1993              		.thumb_func
 1994              		.fpu fpv4-sp-d16
 1996              	STC3115_AlarmStop:
 1997              	.LFB151:
1035:../../core/drivers/STC3115/src/stc3115.c **** 
1036:../../core/drivers/STC3115/src/stc3115.c **** 
1037:../../core/drivers/STC3115/src/stc3115.c **** /*******************************************************************************
1038:../../core/drivers/STC3115/src/stc3115.c **** * Function Name  : STC3115_AlarmStop
1039:../../core/drivers/STC3115/src/stc3115.c **** * Description    : Stop the alarm function
1040:../../core/drivers/STC3115/src/stc3115.c **** * Input          : None
1041:../../core/drivers/STC3115/src/stc3115.c **** * Return         : error status (STC3115_OK, !STC3115_OK)
1042:../../core/drivers/STC3115/src/stc3115.c **** *******************************************************************************/
1043:../../core/drivers/STC3115/src/stc3115.c **** int STC3115_AlarmStop(void)
1044:../../core/drivers/STC3115/src/stc3115.c **** {
 1998              		.loc 1 1044 0
 1999              		.cfi_startproc
 2000              		@ args = 0, pretend = 0, frame = 0
 2001              		@ frame_needed = 0, uses_anonymous_args = 0
 2002 0000 08B5     		push	{r3, lr}
 2003              	.LCFI53:
 2004              		.cfi_def_cfa_offset 8
 2005              		.cfi_offset 3, -8
 2006              		.cfi_offset 14, -4
1045:../../core/drivers/STC3115/src/stc3115.c ****   int res;
1046:../../core/drivers/STC3115/src/stc3115.c ****   
1047:../../core/drivers/STC3115/src/stc3115.c ****   /* Read the mode register*/
1048:../../core/drivers/STC3115/src/stc3115.c ****   res = STC3115_ReadByte(STC3115_REG_MODE);
 2007              		.loc 1 1048 0
 2008 0002 0020     		movs	r0, #0
 2009 0004 FFF7FEFF 		bl	STC3115_ReadByte
 2010              	.LVL213:
1049:../../core/drivers/STC3115/src/stc3115.c **** 
1050:../../core/drivers/STC3115/src/stc3115.c ****   /* Set the ALM_ENA bit to 0 */
1051:../../core/drivers/STC3115/src/stc3115.c ****   res = STC3115_WriteByte(STC3115_REG_MODE, (res & ~STC3115_ALM_ENA));
 2011              		.loc 1 1051 0
 2012 0008 00F0F701 		and	r1, r0, #247
 2013 000c 0020     		movs	r0, #0
 2014              	.LVL214:
 2015 000e FFF7FEFF 		bl	STC3115_WriteByte
 2016              	.LVL215:
1052:../../core/drivers/STC3115/src/stc3115.c ****   if (res!= STC3115_OK) return (res);
1053:../../core/drivers/STC3115/src/stc3115.c **** 
1054:../../core/drivers/STC3115/src/stc3115.c ****    return (STC3115_OK);
1055:../../core/drivers/STC3115/src/stc3115.c **** }
 2017              		.loc 1 1055 0
 2018 0012 08BD     		pop	{r3, pc}
 2019              		.cfi_endproc
 2020              	.LFE151:
ARM GAS  /tmp/ccnLq8Cp.s 			page 57


 2022              		.section	.text.STC3115_AlarmGet,"ax",%progbits
 2023              		.align	1
 2024              		.global	STC3115_AlarmGet
 2025              		.syntax unified
 2026              		.thumb
 2027              		.thumb_func
 2028              		.fpu fpv4-sp-d16
 2030              	STC3115_AlarmGet:
 2031              	.LFB152:
1056:../../core/drivers/STC3115/src/stc3115.c **** 
1057:../../core/drivers/STC3115/src/stc3115.c **** 
1058:../../core/drivers/STC3115/src/stc3115.c **** /*******************************************************************************
1059:../../core/drivers/STC3115/src/stc3115.c **** * Function Name  : STC3115_AlarmGet
1060:../../core/drivers/STC3115/src/stc3115.c **** * Description    : Return the ALM status
1061:../../core/drivers/STC3115/src/stc3115.c **** * Input          : None
1062:../../core/drivers/STC3115/src/stc3115.c **** * Return         : ALM status 00 : no alarm 
1063:../../core/drivers/STC3115/src/stc3115.c **** *                             01 : SOC alarm
1064:../../core/drivers/STC3115/src/stc3115.c **** *                             10 : Voltage alarm
1065:../../core/drivers/STC3115/src/stc3115.c **** *                             11 : SOC and voltage alarm
1066:../../core/drivers/STC3115/src/stc3115.c **** *******************************************************************************/
1067:../../core/drivers/STC3115/src/stc3115.c **** int STC3115_AlarmGet(void)
1068:../../core/drivers/STC3115/src/stc3115.c **** {
 2032              		.loc 1 1068 0
 2033              		.cfi_startproc
 2034              		@ args = 0, pretend = 0, frame = 0
 2035              		@ frame_needed = 0, uses_anonymous_args = 0
 2036 0000 08B5     		push	{r3, lr}
 2037              	.LCFI54:
 2038              		.cfi_def_cfa_offset 8
 2039              		.cfi_offset 3, -8
 2040              		.cfi_offset 14, -4
1069:../../core/drivers/STC3115/src/stc3115.c ****   int res;
1070:../../core/drivers/STC3115/src/stc3115.c ****   
1071:../../core/drivers/STC3115/src/stc3115.c ****   /* Read the mode register*/
1072:../../core/drivers/STC3115/src/stc3115.c ****   res = STC3115_ReadByte(STC3115_REG_CTRL);
 2041              		.loc 1 1072 0
 2042 0002 0120     		movs	r0, #1
 2043 0004 FFF7FEFF 		bl	STC3115_ReadByte
 2044              	.LVL216:
1073:../../core/drivers/STC3115/src/stc3115.c **** 	if (res== -1) return (res);
 2045              		.loc 1 1073 0
 2046 0008 B0F1FF3F 		cmp	r0, #-1
 2047 000c 00D0     		beq	.L166
1074:../../core/drivers/STC3115/src/stc3115.c **** 	
1075:../../core/drivers/STC3115/src/stc3115.c ****   res = res >> 5;
 2048              		.loc 1 1075 0
 2049 000e 4011     		asrs	r0, r0, #5
 2050              	.LVL217:
 2051              	.L166:
1076:../../core/drivers/STC3115/src/stc3115.c **** 
1077:../../core/drivers/STC3115/src/stc3115.c ****    return (res);
1078:../../core/drivers/STC3115/src/stc3115.c **** }
 2052              		.loc 1 1078 0
 2053 0010 08BD     		pop	{r3, pc}
 2054              		.cfi_endproc
 2055              	.LFE152:
 2057              		.section	.text.STC3115_AlarmClear,"ax",%progbits
ARM GAS  /tmp/ccnLq8Cp.s 			page 58


 2058              		.align	1
 2059              		.global	STC3115_AlarmClear
 2060              		.syntax unified
 2061              		.thumb
 2062              		.thumb_func
 2063              		.fpu fpv4-sp-d16
 2065              	STC3115_AlarmClear:
 2066              	.LFB153:
1079:../../core/drivers/STC3115/src/stc3115.c **** 
1080:../../core/drivers/STC3115/src/stc3115.c **** 
1081:../../core/drivers/STC3115/src/stc3115.c **** /*******************************************************************************
1082:../../core/drivers/STC3115/src/stc3115.c **** * Function Name  : STC3115_AlarmClear
1083:../../core/drivers/STC3115/src/stc3115.c **** * Description    : Clear the alarm signal
1084:../../core/drivers/STC3115/src/stc3115.c **** * Input          : None
1085:../../core/drivers/STC3115/src/stc3115.c **** * Return         : error status (STC3115_OK, !STC3115_OK)
1086:../../core/drivers/STC3115/src/stc3115.c **** *******************************************************************************/
1087:../../core/drivers/STC3115/src/stc3115.c **** int STC3115_AlarmClear(void)
1088:../../core/drivers/STC3115/src/stc3115.c **** {
 2067              		.loc 1 1088 0
 2068              		.cfi_startproc
 2069              		@ args = 0, pretend = 0, frame = 0
 2070              		@ frame_needed = 0, uses_anonymous_args = 0
 2071 0000 08B5     		push	{r3, lr}
 2072              	.LCFI55:
 2073              		.cfi_def_cfa_offset 8
 2074              		.cfi_offset 3, -8
 2075              		.cfi_offset 14, -4
1089:../../core/drivers/STC3115/src/stc3115.c ****   int res;
1090:../../core/drivers/STC3115/src/stc3115.c ****   
1091:../../core/drivers/STC3115/src/stc3115.c ****   /* clear ALM bits*/
1092:../../core/drivers/STC3115/src/stc3115.c ****   res = STC3115_WriteByte(STC3115_REG_CTRL, 0x01);
 2076              		.loc 1 1092 0
 2077 0002 0121     		movs	r1, #1
 2078 0004 0846     		mov	r0, r1
 2079 0006 FFF7FEFF 		bl	STC3115_WriteByte
 2080              	.LVL218:
1093:../../core/drivers/STC3115/src/stc3115.c ****   if (res!= STC3115_OK) return (res);
1094:../../core/drivers/STC3115/src/stc3115.c **** 
1095:../../core/drivers/STC3115/src/stc3115.c ****   return (res);
1096:../../core/drivers/STC3115/src/stc3115.c **** }
 2081              		.loc 1 1096 0
 2082 000a 08BD     		pop	{r3, pc}
 2083              		.cfi_endproc
 2084              	.LFE153:
 2086              		.section	.text.STC3115_AlarmSetVoltageThreshold,"ax",%progbits
 2087              		.align	1
 2088              		.global	STC3115_AlarmSetVoltageThreshold
 2089              		.syntax unified
 2090              		.thumb
 2091              		.thumb_func
 2092              		.fpu fpv4-sp-d16
 2094              	STC3115_AlarmSetVoltageThreshold:
 2095              	.LFB154:
1097:../../core/drivers/STC3115/src/stc3115.c **** 
1098:../../core/drivers/STC3115/src/stc3115.c **** 
1099:../../core/drivers/STC3115/src/stc3115.c **** /*******************************************************************************
1100:../../core/drivers/STC3115/src/stc3115.c **** * Function Name  : STC3115_AlarmSetVoltageThreshold
ARM GAS  /tmp/ccnLq8Cp.s 			page 59


1101:../../core/drivers/STC3115/src/stc3115.c **** * Description    : Set the alarm threshold
1102:../../core/drivers/STC3115/src/stc3115.c **** * Input          : int voltage threshold in mV
1103:../../core/drivers/STC3115/src/stc3115.c **** * Return         : error status (STC3115_OK, !STC3115_OK)
1104:../../core/drivers/STC3115/src/stc3115.c **** *******************************************************************************/
1105:../../core/drivers/STC3115/src/stc3115.c **** int STC3115_AlarmSetVoltageThreshold(STC3115_ConfigData_TypeDef *ConfigData, int VoltThresh)
1106:../../core/drivers/STC3115/src/stc3115.c **** {
 2096              		.loc 1 1106 0
 2097              		.cfi_startproc
 2098              		@ args = 0, pretend = 0, frame = 0
 2099              		@ frame_needed = 0, uses_anonymous_args = 0
 2100              	.LVL219:
 2101 0000 08B5     		push	{r3, lr}
 2102              	.LCFI56:
 2103              		.cfi_def_cfa_offset 8
 2104              		.cfi_offset 3, -8
 2105              		.cfi_offset 14, -4
1107:../../core/drivers/STC3115/src/stc3115.c ****   int res;
1108:../../core/drivers/STC3115/src/stc3115.c ****   int value;
1109:../../core/drivers/STC3115/src/stc3115.c ****   
1110:../../core/drivers/STC3115/src/stc3115.c ****   ConfigData->Alm_Vbat = VoltThresh;
 2106              		.loc 1 1110 0
 2107 0002 8160     		str	r1, [r0, #8]
1111:../../core/drivers/STC3115/src/stc3115.c ****     
1112:../../core/drivers/STC3115/src/stc3115.c ****   value= ((long)(ConfigData->Alm_Vbat << 9) / VoltageFactor); /* LSB=8*2.2mV */
 2108              		.loc 1 1112 0
 2109 0004 4902     		lsls	r1, r1, #9
 2110              	.LVL220:
 2111 0006 054B     		ldr	r3, .L173
 2112 0008 83FB0123 		smull	r2, r3, r3, r1
 2113 000c C917     		asrs	r1, r1, #31
 2114 000e C1EB2331 		rsb	r1, r1, r3, asr #12
 2115              	.LVL221:
1113:../../core/drivers/STC3115/src/stc3115.c ****   res = STC3115_WriteByte(STC3115_REG_ALARM_VOLTAGE, value);
 2116              		.loc 1 1113 0
 2117 0012 C9B2     		uxtb	r1, r1
 2118              	.LVL222:
 2119 0014 1420     		movs	r0, #20
 2120              	.LVL223:
 2121 0016 FFF7FEFF 		bl	STC3115_WriteByte
 2122              	.LVL224:
1114:../../core/drivers/STC3115/src/stc3115.c ****   if (res!= STC3115_OK) return (res);
1115:../../core/drivers/STC3115/src/stc3115.c **** 
1116:../../core/drivers/STC3115/src/stc3115.c ****    return (STC3115_OK);
1117:../../core/drivers/STC3115/src/stc3115.c **** }
 2123              		.loc 1 1117 0
 2124 001a 08BD     		pop	{r3, pc}
 2125              	.L174:
 2126              		.align	2
 2127              	.L173:
 2128 001c 89C05D74 		.word	1952301193
 2129              		.cfi_endproc
 2130              	.LFE154:
 2132              		.section	.text.STC3115_AlarmSetSOCThreshold,"ax",%progbits
 2133              		.align	1
 2134              		.global	STC3115_AlarmSetSOCThreshold
 2135              		.syntax unified
 2136              		.thumb
ARM GAS  /tmp/ccnLq8Cp.s 			page 60


 2137              		.thumb_func
 2138              		.fpu fpv4-sp-d16
 2140              	STC3115_AlarmSetSOCThreshold:
 2141              	.LFB155:
1118:../../core/drivers/STC3115/src/stc3115.c **** 
1119:../../core/drivers/STC3115/src/stc3115.c **** 
1120:../../core/drivers/STC3115/src/stc3115.c **** /*******************************************************************************
1121:../../core/drivers/STC3115/src/stc3115.c **** * Function Name  : STC3115_AlarmSetSOCThreshold
1122:../../core/drivers/STC3115/src/stc3115.c **** * Description    : Set the alarm threshold
1123:../../core/drivers/STC3115/src/stc3115.c **** * Input          : int voltage threshold in %
1124:../../core/drivers/STC3115/src/stc3115.c **** * Return         : error status (STC3115_OK, !STC3115_OK)
1125:../../core/drivers/STC3115/src/stc3115.c **** *******************************************************************************/
1126:../../core/drivers/STC3115/src/stc3115.c **** int STC3115_AlarmSetSOCThreshold(STC3115_ConfigData_TypeDef *ConfigData, int SOCThresh)
1127:../../core/drivers/STC3115/src/stc3115.c **** {
 2142              		.loc 1 1127 0
 2143              		.cfi_startproc
 2144              		@ args = 0, pretend = 0, frame = 0
 2145              		@ frame_needed = 0, uses_anonymous_args = 0
 2146              	.LVL225:
 2147 0000 08B5     		push	{r3, lr}
 2148              	.LCFI57:
 2149              		.cfi_def_cfa_offset 8
 2150              		.cfi_offset 3, -8
 2151              		.cfi_offset 14, -4
1128:../../core/drivers/STC3115/src/stc3115.c ****   int res;
1129:../../core/drivers/STC3115/src/stc3115.c **** 
1130:../../core/drivers/STC3115/src/stc3115.c ****   ConfigData->Alm_SOC = SOCThresh;
 2152              		.loc 1 1130 0
 2153 0002 4160     		str	r1, [r0, #4]
1131:../../core/drivers/STC3115/src/stc3115.c ****   res = STC3115_WriteByte(STC3115_REG_ALARM_SOC, ConfigData->Alm_SOC*2);
 2154              		.loc 1 1131 0
 2155 0004 4900     		lsls	r1, r1, #1
 2156              	.LVL226:
 2157 0006 01F0FE01 		and	r1, r1, #254
 2158 000a 1320     		movs	r0, #19
 2159              	.LVL227:
 2160 000c FFF7FEFF 		bl	STC3115_WriteByte
 2161              	.LVL228:
1132:../../core/drivers/STC3115/src/stc3115.c ****   if (res!= STC3115_OK) return (res);
1133:../../core/drivers/STC3115/src/stc3115.c ****   
1134:../../core/drivers/STC3115/src/stc3115.c ****   return (STC3115_OK);
1135:../../core/drivers/STC3115/src/stc3115.c **** }
 2162              		.loc 1 1135 0
 2163 0010 08BD     		pop	{r3, pc}
 2164              		.cfi_endproc
 2165              	.LFE155:
 2167              		.section	.bss.RAMData,"aw",%nobits
 2168              		.align	2
 2169              		.set	.LANCHOR0,. + 0
 2172              	RAMData:
 2173 0000 00000000 		.space	16
 2173      00000000 
 2173      00000000 
 2173      00000000 
 2174              		.section	.bss.hi2cLib,"aw",%nobits
 2175              		.align	2
 2176              		.set	.LANCHOR1,. + 0
ARM GAS  /tmp/ccnLq8Cp.s 			page 61


 2179              	hi2cLib:
 2180 0000 00000000 		.space	4
 2181              		.text
 2182              	.Letext0:
 2183              		.file 2 "/home/mats/gcc-arm-none-eabi-7-2018-q2-update/arm-none-eabi/include/machine/_default_type
 2184              		.file 3 "/home/mats/gcc-arm-none-eabi-7-2018-q2-update/arm-none-eabi/include/sys/_stdint.h"
 2185              		.file 4 "../../core/ST/CMSIS/Include/core_cm4.h"
 2186              		.file 5 "../../core/ST/CMSIS/Device/ST/STM32L4xx/Include/system_stm32l4xx.h"
 2187              		.file 6 "../../core/ST/CMSIS/Device/ST/STM32L4xx/Include/stm32l496xx.h"
 2188              		.file 7 "../../core/ST/STM32L4xx_HAL_Driver/Inc/stm32l4xx_hal_def.h"
 2189              		.file 8 "../../core/ST/STM32L4xx_HAL_Driver/Inc/stm32l4xx_hal_dma.h"
 2190              		.file 9 "../../core/ST/STM32L4xx_HAL_Driver/Inc/stm32l4xx_hal_i2c.h"
 2191              		.file 10 "../../core/ST/STM32L4xx_HAL_Driver/Inc/stm32l4xx_hal.h"
 2192              		.file 11 "../../core/drivers/STC3115/inc/stc3115.h"
 2193              		.file 12 "<built-in>"
ARM GAS  /tmp/ccnLq8Cp.s 			page 62

