ARM GAS  /tmp/ccvegzZU.s 			page 1


   1              		.cpu cortex-m4
   2              		.eabi_attribute 27, 1
   3              		.eabi_attribute 28, 1
   4              		.eabi_attribute 20, 1
   5              		.eabi_attribute 21, 1
   6              		.eabi_attribute 23, 3
   7              		.eabi_attribute 24, 1
   8              		.eabi_attribute 25, 1
   9              		.eabi_attribute 26, 1
  10              		.eabi_attribute 30, 1
  11              		.eabi_attribute 34, 1
  12              		.eabi_attribute 18, 4
  13              		.file	"stm32l4xx_hal_flash.c"
  14              		.text
  15              	.Ltext0:
  16              		.cfi_sections	.debug_frame
  17              		.section	.text.FLASH_Program_DoubleWord,"ax",%progbits
  18              		.align	1
  19              		.syntax unified
  20              		.thumb
  21              		.thumb_func
  22              		.fpu fpv4-sp-d16
  24              	FLASH_Program_DoubleWord:
  25              	.LFB135:
  26              		.file 1 "../../core/ST/STM32L4xx_HAL_Driver/Src/stm32l4xx_hal_flash.c"
   1:../../core/ST/STM32L4xx_HAL_Driver/Src/stm32l4xx_hal_flash.c **** /**
   2:../../core/ST/STM32L4xx_HAL_Driver/Src/stm32l4xx_hal_flash.c ****   ******************************************************************************
   3:../../core/ST/STM32L4xx_HAL_Driver/Src/stm32l4xx_hal_flash.c ****   * @file    stm32l4xx_hal_flash.c
   4:../../core/ST/STM32L4xx_HAL_Driver/Src/stm32l4xx_hal_flash.c ****   * @author  MCD Application Team
   5:../../core/ST/STM32L4xx_HAL_Driver/Src/stm32l4xx_hal_flash.c ****   * @brief   FLASH HAL module driver.
   6:../../core/ST/STM32L4xx_HAL_Driver/Src/stm32l4xx_hal_flash.c ****   *          This file provides firmware functions to manage the following
   7:../../core/ST/STM32L4xx_HAL_Driver/Src/stm32l4xx_hal_flash.c ****   *          functionalities of the internal FLASH memory:
   8:../../core/ST/STM32L4xx_HAL_Driver/Src/stm32l4xx_hal_flash.c ****   *           + Program operations functions
   9:../../core/ST/STM32L4xx_HAL_Driver/Src/stm32l4xx_hal_flash.c ****   *           + Memory Control functions
  10:../../core/ST/STM32L4xx_HAL_Driver/Src/stm32l4xx_hal_flash.c ****   *           + Peripheral Errors functions
  11:../../core/ST/STM32L4xx_HAL_Driver/Src/stm32l4xx_hal_flash.c ****   *
  12:../../core/ST/STM32L4xx_HAL_Driver/Src/stm32l4xx_hal_flash.c ****  @verbatim
  13:../../core/ST/STM32L4xx_HAL_Driver/Src/stm32l4xx_hal_flash.c ****   ==============================================================================
  14:../../core/ST/STM32L4xx_HAL_Driver/Src/stm32l4xx_hal_flash.c ****                         ##### FLASH peripheral features #####
  15:../../core/ST/STM32L4xx_HAL_Driver/Src/stm32l4xx_hal_flash.c ****   ==============================================================================
  16:../../core/ST/STM32L4xx_HAL_Driver/Src/stm32l4xx_hal_flash.c **** 
  17:../../core/ST/STM32L4xx_HAL_Driver/Src/stm32l4xx_hal_flash.c ****   [..] The Flash memory interface manages CPU AHB I-Code and D-Code accesses
  18:../../core/ST/STM32L4xx_HAL_Driver/Src/stm32l4xx_hal_flash.c ****        to the Flash memory. It implements the erase and program Flash memory operations
  19:../../core/ST/STM32L4xx_HAL_Driver/Src/stm32l4xx_hal_flash.c ****        and the read and write protection mechanisms.
  20:../../core/ST/STM32L4xx_HAL_Driver/Src/stm32l4xx_hal_flash.c **** 
  21:../../core/ST/STM32L4xx_HAL_Driver/Src/stm32l4xx_hal_flash.c ****   [..] The Flash memory interface accelerates code execution with a system of instruction
  22:../../core/ST/STM32L4xx_HAL_Driver/Src/stm32l4xx_hal_flash.c ****        prefetch and cache lines.
  23:../../core/ST/STM32L4xx_HAL_Driver/Src/stm32l4xx_hal_flash.c **** 
  24:../../core/ST/STM32L4xx_HAL_Driver/Src/stm32l4xx_hal_flash.c ****   [..] The FLASH main features are:
  25:../../core/ST/STM32L4xx_HAL_Driver/Src/stm32l4xx_hal_flash.c ****       (+) Flash memory read operations
  26:../../core/ST/STM32L4xx_HAL_Driver/Src/stm32l4xx_hal_flash.c ****       (+) Flash memory program/erase operations
  27:../../core/ST/STM32L4xx_HAL_Driver/Src/stm32l4xx_hal_flash.c ****       (+) Read / write protections
  28:../../core/ST/STM32L4xx_HAL_Driver/Src/stm32l4xx_hal_flash.c ****       (+) Option bytes programming
  29:../../core/ST/STM32L4xx_HAL_Driver/Src/stm32l4xx_hal_flash.c ****       (+) Prefetch on I-Code
  30:../../core/ST/STM32L4xx_HAL_Driver/Src/stm32l4xx_hal_flash.c ****       (+) 32 cache lines of 4*64 bits on I-Code
  31:../../core/ST/STM32L4xx_HAL_Driver/Src/stm32l4xx_hal_flash.c ****       (+) 8 cache lines of 4*64 bits on D-Code
  32:../../core/ST/STM32L4xx_HAL_Driver/Src/stm32l4xx_hal_flash.c ****       (+) Error code correction (ECC) : Data in flash are 72-bits word
ARM GAS  /tmp/ccvegzZU.s 			page 2


  33:../../core/ST/STM32L4xx_HAL_Driver/Src/stm32l4xx_hal_flash.c ****           (8 bits added per double word)
  34:../../core/ST/STM32L4xx_HAL_Driver/Src/stm32l4xx_hal_flash.c **** 
  35:../../core/ST/STM32L4xx_HAL_Driver/Src/stm32l4xx_hal_flash.c **** 
  36:../../core/ST/STM32L4xx_HAL_Driver/Src/stm32l4xx_hal_flash.c ****                         ##### How to use this driver #####
  37:../../core/ST/STM32L4xx_HAL_Driver/Src/stm32l4xx_hal_flash.c ****  ==============================================================================
  38:../../core/ST/STM32L4xx_HAL_Driver/Src/stm32l4xx_hal_flash.c ****     [..]
  39:../../core/ST/STM32L4xx_HAL_Driver/Src/stm32l4xx_hal_flash.c ****       This driver provides functions and macros to configure and program the FLASH
  40:../../core/ST/STM32L4xx_HAL_Driver/Src/stm32l4xx_hal_flash.c ****       memory of all STM32L4xx devices.
  41:../../core/ST/STM32L4xx_HAL_Driver/Src/stm32l4xx_hal_flash.c **** 
  42:../../core/ST/STM32L4xx_HAL_Driver/Src/stm32l4xx_hal_flash.c ****       (#) Flash Memory IO Programming functions:
  43:../../core/ST/STM32L4xx_HAL_Driver/Src/stm32l4xx_hal_flash.c ****            (++) Lock and Unlock the FLASH interface using HAL_FLASH_Unlock() and
  44:../../core/ST/STM32L4xx_HAL_Driver/Src/stm32l4xx_hal_flash.c ****                 HAL_FLASH_Lock() functions
  45:../../core/ST/STM32L4xx_HAL_Driver/Src/stm32l4xx_hal_flash.c ****            (++) Program functions: double word and fast program (full row programming)
  46:../../core/ST/STM32L4xx_HAL_Driver/Src/stm32l4xx_hal_flash.c ****            (++) There Two modes of programming :
  47:../../core/ST/STM32L4xx_HAL_Driver/Src/stm32l4xx_hal_flash.c ****             (+++) Polling mode using HAL_FLASH_Program() function
  48:../../core/ST/STM32L4xx_HAL_Driver/Src/stm32l4xx_hal_flash.c ****             (+++) Interrupt mode using HAL_FLASH_Program_IT() function
  49:../../core/ST/STM32L4xx_HAL_Driver/Src/stm32l4xx_hal_flash.c **** 
  50:../../core/ST/STM32L4xx_HAL_Driver/Src/stm32l4xx_hal_flash.c ****       (#) Interrupts and flags management functions :
  51:../../core/ST/STM32L4xx_HAL_Driver/Src/stm32l4xx_hal_flash.c ****            (++) Handle FLASH interrupts by calling HAL_FLASH_IRQHandler()
  52:../../core/ST/STM32L4xx_HAL_Driver/Src/stm32l4xx_hal_flash.c ****            (++) Callback functions are called when the flash operations are finished :
  53:../../core/ST/STM32L4xx_HAL_Driver/Src/stm32l4xx_hal_flash.c ****                 HAL_FLASH_EndOfOperationCallback() when everything is ok, otherwise
  54:../../core/ST/STM32L4xx_HAL_Driver/Src/stm32l4xx_hal_flash.c ****                 HAL_FLASH_OperationErrorCallback()
  55:../../core/ST/STM32L4xx_HAL_Driver/Src/stm32l4xx_hal_flash.c ****            (++) Get error flag status by calling HAL_GetError()
  56:../../core/ST/STM32L4xx_HAL_Driver/Src/stm32l4xx_hal_flash.c **** 
  57:../../core/ST/STM32L4xx_HAL_Driver/Src/stm32l4xx_hal_flash.c ****       (#) Option bytes management functions :
  58:../../core/ST/STM32L4xx_HAL_Driver/Src/stm32l4xx_hal_flash.c ****            (++) Lock and Unlock the option bytes using HAL_FLASH_OB_Unlock() and
  59:../../core/ST/STM32L4xx_HAL_Driver/Src/stm32l4xx_hal_flash.c ****                 HAL_FLASH_OB_Lock() functions
  60:../../core/ST/STM32L4xx_HAL_Driver/Src/stm32l4xx_hal_flash.c ****            (++) Launch the reload of the option bytes using HAL_FLASH_Launch() function.
  61:../../core/ST/STM32L4xx_HAL_Driver/Src/stm32l4xx_hal_flash.c ****                 In this case, a reset is generated
  62:../../core/ST/STM32L4xx_HAL_Driver/Src/stm32l4xx_hal_flash.c **** 
  63:../../core/ST/STM32L4xx_HAL_Driver/Src/stm32l4xx_hal_flash.c ****     [..]
  64:../../core/ST/STM32L4xx_HAL_Driver/Src/stm32l4xx_hal_flash.c ****       In addition to these functions, this driver includes a set of macros allowing
  65:../../core/ST/STM32L4xx_HAL_Driver/Src/stm32l4xx_hal_flash.c ****       to handle the following operations:
  66:../../core/ST/STM32L4xx_HAL_Driver/Src/stm32l4xx_hal_flash.c ****        (+) Set the latency
  67:../../core/ST/STM32L4xx_HAL_Driver/Src/stm32l4xx_hal_flash.c ****        (+) Enable/Disable the prefetch buffer
  68:../../core/ST/STM32L4xx_HAL_Driver/Src/stm32l4xx_hal_flash.c ****        (+) Enable/Disable the Instruction cache and the Data cache
  69:../../core/ST/STM32L4xx_HAL_Driver/Src/stm32l4xx_hal_flash.c ****        (+) Reset the Instruction cache and the Data cache
  70:../../core/ST/STM32L4xx_HAL_Driver/Src/stm32l4xx_hal_flash.c ****        (+) Enable/Disable the Flash power-down during low-power run and sleep modes
  71:../../core/ST/STM32L4xx_HAL_Driver/Src/stm32l4xx_hal_flash.c ****        (+) Enable/Disable the Flash interrupts
  72:../../core/ST/STM32L4xx_HAL_Driver/Src/stm32l4xx_hal_flash.c ****        (+) Monitor the Flash flags status
  73:../../core/ST/STM32L4xx_HAL_Driver/Src/stm32l4xx_hal_flash.c **** 
  74:../../core/ST/STM32L4xx_HAL_Driver/Src/stm32l4xx_hal_flash.c ****  @endverbatim
  75:../../core/ST/STM32L4xx_HAL_Driver/Src/stm32l4xx_hal_flash.c ****   ******************************************************************************
  76:../../core/ST/STM32L4xx_HAL_Driver/Src/stm32l4xx_hal_flash.c ****   * @attention
  77:../../core/ST/STM32L4xx_HAL_Driver/Src/stm32l4xx_hal_flash.c ****   *
  78:../../core/ST/STM32L4xx_HAL_Driver/Src/stm32l4xx_hal_flash.c ****   * <h2><center>&copy; COPYRIGHT(c) 2017 STMicroelectronics</center></h2>
  79:../../core/ST/STM32L4xx_HAL_Driver/Src/stm32l4xx_hal_flash.c ****   *
  80:../../core/ST/STM32L4xx_HAL_Driver/Src/stm32l4xx_hal_flash.c ****   * Redistribution and use in source and binary forms, with or without modification,
  81:../../core/ST/STM32L4xx_HAL_Driver/Src/stm32l4xx_hal_flash.c ****   * are permitted provided that the following conditions are met:
  82:../../core/ST/STM32L4xx_HAL_Driver/Src/stm32l4xx_hal_flash.c ****   *   1. Redistributions of source code must retain the above copyright notice,
  83:../../core/ST/STM32L4xx_HAL_Driver/Src/stm32l4xx_hal_flash.c ****   *      this list of conditions and the following disclaimer.
  84:../../core/ST/STM32L4xx_HAL_Driver/Src/stm32l4xx_hal_flash.c ****   *   2. Redistributions in binary form must reproduce the above copyright notice,
  85:../../core/ST/STM32L4xx_HAL_Driver/Src/stm32l4xx_hal_flash.c ****   *      this list of conditions and the following disclaimer in the documentation
  86:../../core/ST/STM32L4xx_HAL_Driver/Src/stm32l4xx_hal_flash.c ****   *      and/or other materials provided with the distribution.
  87:../../core/ST/STM32L4xx_HAL_Driver/Src/stm32l4xx_hal_flash.c ****   *   3. Neither the name of STMicroelectronics nor the names of its contributors
  88:../../core/ST/STM32L4xx_HAL_Driver/Src/stm32l4xx_hal_flash.c ****   *      may be used to endorse or promote products derived from this software
  89:../../core/ST/STM32L4xx_HAL_Driver/Src/stm32l4xx_hal_flash.c ****   *      without specific prior written permission.
ARM GAS  /tmp/ccvegzZU.s 			page 3


  90:../../core/ST/STM32L4xx_HAL_Driver/Src/stm32l4xx_hal_flash.c ****   *
  91:../../core/ST/STM32L4xx_HAL_Driver/Src/stm32l4xx_hal_flash.c ****   * THIS SOFTWARE IS PROVIDED BY THE COPYRIGHT HOLDERS AND CONTRIBUTORS "AS IS"
  92:../../core/ST/STM32L4xx_HAL_Driver/Src/stm32l4xx_hal_flash.c ****   * AND ANY EXPRESS OR IMPLIED WARRANTIES, INCLUDING, BUT NOT LIMITED TO, THE
  93:../../core/ST/STM32L4xx_HAL_Driver/Src/stm32l4xx_hal_flash.c ****   * IMPLIED WARRANTIES OF MERCHANTABILITY AND FITNESS FOR A PARTICULAR PURPOSE ARE
  94:../../core/ST/STM32L4xx_HAL_Driver/Src/stm32l4xx_hal_flash.c ****   * DISCLAIMED. IN NO EVENT SHALL THE COPYRIGHT HOLDER OR CONTRIBUTORS BE LIABLE
  95:../../core/ST/STM32L4xx_HAL_Driver/Src/stm32l4xx_hal_flash.c ****   * FOR ANY DIRECT, INDIRECT, INCIDENTAL, SPECIAL, EXEMPLARY, OR CONSEQUENTIAL
  96:../../core/ST/STM32L4xx_HAL_Driver/Src/stm32l4xx_hal_flash.c ****   * DAMAGES (INCLUDING, BUT NOT LIMITED TO, PROCUREMENT OF SUBSTITUTE GOODS OR
  97:../../core/ST/STM32L4xx_HAL_Driver/Src/stm32l4xx_hal_flash.c ****   * SERVICES; LOSS OF USE, DATA, OR PROFITS; OR BUSINESS INTERRUPTION) HOWEVER
  98:../../core/ST/STM32L4xx_HAL_Driver/Src/stm32l4xx_hal_flash.c ****   * CAUSED AND ON ANY THEORY OF LIABILITY, WHETHER IN CONTRACT, STRICT LIABILITY,
  99:../../core/ST/STM32L4xx_HAL_Driver/Src/stm32l4xx_hal_flash.c ****   * OR TORT (INCLUDING NEGLIGENCE OR OTHERWISE) ARISING IN ANY WAY OUT OF THE USE
 100:../../core/ST/STM32L4xx_HAL_Driver/Src/stm32l4xx_hal_flash.c ****   * OF THIS SOFTWARE, EVEN IF ADVISED OF THE POSSIBILITY OF SUCH DAMAGE.
 101:../../core/ST/STM32L4xx_HAL_Driver/Src/stm32l4xx_hal_flash.c ****   *
 102:../../core/ST/STM32L4xx_HAL_Driver/Src/stm32l4xx_hal_flash.c ****   ******************************************************************************
 103:../../core/ST/STM32L4xx_HAL_Driver/Src/stm32l4xx_hal_flash.c ****   */
 104:../../core/ST/STM32L4xx_HAL_Driver/Src/stm32l4xx_hal_flash.c **** 
 105:../../core/ST/STM32L4xx_HAL_Driver/Src/stm32l4xx_hal_flash.c **** /* Includes ------------------------------------------------------------------*/
 106:../../core/ST/STM32L4xx_HAL_Driver/Src/stm32l4xx_hal_flash.c **** #include "stm32l4xx_hal.h"
 107:../../core/ST/STM32L4xx_HAL_Driver/Src/stm32l4xx_hal_flash.c **** 
 108:../../core/ST/STM32L4xx_HAL_Driver/Src/stm32l4xx_hal_flash.c **** /** @addtogroup STM32L4xx_HAL_Driver
 109:../../core/ST/STM32L4xx_HAL_Driver/Src/stm32l4xx_hal_flash.c ****   * @{
 110:../../core/ST/STM32L4xx_HAL_Driver/Src/stm32l4xx_hal_flash.c ****   */
 111:../../core/ST/STM32L4xx_HAL_Driver/Src/stm32l4xx_hal_flash.c **** 
 112:../../core/ST/STM32L4xx_HAL_Driver/Src/stm32l4xx_hal_flash.c **** /** @defgroup FLASH FLASH
 113:../../core/ST/STM32L4xx_HAL_Driver/Src/stm32l4xx_hal_flash.c ****   * @brief FLASH HAL module driver
 114:../../core/ST/STM32L4xx_HAL_Driver/Src/stm32l4xx_hal_flash.c ****   * @{
 115:../../core/ST/STM32L4xx_HAL_Driver/Src/stm32l4xx_hal_flash.c ****   */
 116:../../core/ST/STM32L4xx_HAL_Driver/Src/stm32l4xx_hal_flash.c **** 
 117:../../core/ST/STM32L4xx_HAL_Driver/Src/stm32l4xx_hal_flash.c **** #ifdef HAL_FLASH_MODULE_ENABLED
 118:../../core/ST/STM32L4xx_HAL_Driver/Src/stm32l4xx_hal_flash.c **** 
 119:../../core/ST/STM32L4xx_HAL_Driver/Src/stm32l4xx_hal_flash.c **** /* Private typedef -----------------------------------------------------------*/
 120:../../core/ST/STM32L4xx_HAL_Driver/Src/stm32l4xx_hal_flash.c **** /* Private defines -----------------------------------------------------------*/
 121:../../core/ST/STM32L4xx_HAL_Driver/Src/stm32l4xx_hal_flash.c **** #if defined (STM32L4R5xx) || defined (STM32L4R7xx) || defined (STM32L4R9xx) || defined (STM32L4S5xx
 122:../../core/ST/STM32L4xx_HAL_Driver/Src/stm32l4xx_hal_flash.c **** #define FLASH_NB_DOUBLE_WORDS_IN_ROW  64
 123:../../core/ST/STM32L4xx_HAL_Driver/Src/stm32l4xx_hal_flash.c **** #else
 124:../../core/ST/STM32L4xx_HAL_Driver/Src/stm32l4xx_hal_flash.c **** #define FLASH_NB_DOUBLE_WORDS_IN_ROW  32
 125:../../core/ST/STM32L4xx_HAL_Driver/Src/stm32l4xx_hal_flash.c **** #endif
 126:../../core/ST/STM32L4xx_HAL_Driver/Src/stm32l4xx_hal_flash.c **** /* Private macros ------------------------------------------------------------*/
 127:../../core/ST/STM32L4xx_HAL_Driver/Src/stm32l4xx_hal_flash.c **** /* Private variables ---------------------------------------------------------*/
 128:../../core/ST/STM32L4xx_HAL_Driver/Src/stm32l4xx_hal_flash.c **** /** @defgroup FLASH_Private_Variables FLASH Private Variables
 129:../../core/ST/STM32L4xx_HAL_Driver/Src/stm32l4xx_hal_flash.c ****  * @{
 130:../../core/ST/STM32L4xx_HAL_Driver/Src/stm32l4xx_hal_flash.c ****  */
 131:../../core/ST/STM32L4xx_HAL_Driver/Src/stm32l4xx_hal_flash.c **** /**
 132:../../core/ST/STM32L4xx_HAL_Driver/Src/stm32l4xx_hal_flash.c ****   * @brief  Variable used for Program/Erase sectors under interruption
 133:../../core/ST/STM32L4xx_HAL_Driver/Src/stm32l4xx_hal_flash.c ****   */
 134:../../core/ST/STM32L4xx_HAL_Driver/Src/stm32l4xx_hal_flash.c **** extern FLASH_ProcessTypeDef pFlash;
 135:../../core/ST/STM32L4xx_HAL_Driver/Src/stm32l4xx_hal_flash.c **** FLASH_ProcessTypeDef pFlash = {.Lock = HAL_UNLOCKED, \
 136:../../core/ST/STM32L4xx_HAL_Driver/Src/stm32l4xx_hal_flash.c ****                                .ErrorCode = HAL_FLASH_ERROR_NONE, \
 137:../../core/ST/STM32L4xx_HAL_Driver/Src/stm32l4xx_hal_flash.c ****                                .ProcedureOnGoing = FLASH_PROC_NONE, \
 138:../../core/ST/STM32L4xx_HAL_Driver/Src/stm32l4xx_hal_flash.c ****                                .Address = 0U, \
 139:../../core/ST/STM32L4xx_HAL_Driver/Src/stm32l4xx_hal_flash.c ****                                .Bank = FLASH_BANK_1, \
 140:../../core/ST/STM32L4xx_HAL_Driver/Src/stm32l4xx_hal_flash.c ****                                .Page = 0U, \
 141:../../core/ST/STM32L4xx_HAL_Driver/Src/stm32l4xx_hal_flash.c ****                                .NbPagesToErase = 0U, \
 142:../../core/ST/STM32L4xx_HAL_Driver/Src/stm32l4xx_hal_flash.c ****                                .CacheToReactivate = FLASH_CACHE_DISABLED};
 143:../../core/ST/STM32L4xx_HAL_Driver/Src/stm32l4xx_hal_flash.c **** /**
 144:../../core/ST/STM32L4xx_HAL_Driver/Src/stm32l4xx_hal_flash.c ****   * @}
 145:../../core/ST/STM32L4xx_HAL_Driver/Src/stm32l4xx_hal_flash.c ****   */
 146:../../core/ST/STM32L4xx_HAL_Driver/Src/stm32l4xx_hal_flash.c **** 
ARM GAS  /tmp/ccvegzZU.s 			page 4


 147:../../core/ST/STM32L4xx_HAL_Driver/Src/stm32l4xx_hal_flash.c **** /* Private function prototypes -----------------------------------------------*/
 148:../../core/ST/STM32L4xx_HAL_Driver/Src/stm32l4xx_hal_flash.c **** /** @defgroup FLASH_Private_Functions FLASH Private Functions
 149:../../core/ST/STM32L4xx_HAL_Driver/Src/stm32l4xx_hal_flash.c ****  * @{
 150:../../core/ST/STM32L4xx_HAL_Driver/Src/stm32l4xx_hal_flash.c ****  */
 151:../../core/ST/STM32L4xx_HAL_Driver/Src/stm32l4xx_hal_flash.c **** HAL_StatusTypeDef    FLASH_WaitForLastOperation(uint32_t Timeout);
 152:../../core/ST/STM32L4xx_HAL_Driver/Src/stm32l4xx_hal_flash.c **** extern void          FLASH_PageErase(uint32_t Page, uint32_t Banks);
 153:../../core/ST/STM32L4xx_HAL_Driver/Src/stm32l4xx_hal_flash.c **** extern void          FLASH_FlushCaches(void);
 154:../../core/ST/STM32L4xx_HAL_Driver/Src/stm32l4xx_hal_flash.c **** static void          FLASH_Program_DoubleWord(uint32_t Address, uint64_t Data);
 155:../../core/ST/STM32L4xx_HAL_Driver/Src/stm32l4xx_hal_flash.c **** static void          FLASH_Program_Fast(uint32_t Address, uint32_t DataAddress);
 156:../../core/ST/STM32L4xx_HAL_Driver/Src/stm32l4xx_hal_flash.c **** /**
 157:../../core/ST/STM32L4xx_HAL_Driver/Src/stm32l4xx_hal_flash.c ****   * @}
 158:../../core/ST/STM32L4xx_HAL_Driver/Src/stm32l4xx_hal_flash.c ****   */
 159:../../core/ST/STM32L4xx_HAL_Driver/Src/stm32l4xx_hal_flash.c **** 
 160:../../core/ST/STM32L4xx_HAL_Driver/Src/stm32l4xx_hal_flash.c **** /* Exported functions --------------------------------------------------------*/
 161:../../core/ST/STM32L4xx_HAL_Driver/Src/stm32l4xx_hal_flash.c **** /** @defgroup FLASH_Exported_Functions FLASH Exported Functions
 162:../../core/ST/STM32L4xx_HAL_Driver/Src/stm32l4xx_hal_flash.c ****   * @{
 163:../../core/ST/STM32L4xx_HAL_Driver/Src/stm32l4xx_hal_flash.c ****   */
 164:../../core/ST/STM32L4xx_HAL_Driver/Src/stm32l4xx_hal_flash.c **** 
 165:../../core/ST/STM32L4xx_HAL_Driver/Src/stm32l4xx_hal_flash.c **** /** @defgroup FLASH_Exported_Functions_Group1 Programming operation functions
 166:../../core/ST/STM32L4xx_HAL_Driver/Src/stm32l4xx_hal_flash.c ****  *  @brief   Programming operation functions
 167:../../core/ST/STM32L4xx_HAL_Driver/Src/stm32l4xx_hal_flash.c ****  *
 168:../../core/ST/STM32L4xx_HAL_Driver/Src/stm32l4xx_hal_flash.c **** @verbatim
 169:../../core/ST/STM32L4xx_HAL_Driver/Src/stm32l4xx_hal_flash.c ****  ===============================================================================
 170:../../core/ST/STM32L4xx_HAL_Driver/Src/stm32l4xx_hal_flash.c ****                   ##### Programming operation functions #####
 171:../../core/ST/STM32L4xx_HAL_Driver/Src/stm32l4xx_hal_flash.c ****  ===============================================================================
 172:../../core/ST/STM32L4xx_HAL_Driver/Src/stm32l4xx_hal_flash.c ****     [..]
 173:../../core/ST/STM32L4xx_HAL_Driver/Src/stm32l4xx_hal_flash.c ****     This subsection provides a set of functions allowing to manage the FLASH
 174:../../core/ST/STM32L4xx_HAL_Driver/Src/stm32l4xx_hal_flash.c ****     program operations.
 175:../../core/ST/STM32L4xx_HAL_Driver/Src/stm32l4xx_hal_flash.c **** 
 176:../../core/ST/STM32L4xx_HAL_Driver/Src/stm32l4xx_hal_flash.c **** @endverbatim
 177:../../core/ST/STM32L4xx_HAL_Driver/Src/stm32l4xx_hal_flash.c ****   * @{
 178:../../core/ST/STM32L4xx_HAL_Driver/Src/stm32l4xx_hal_flash.c ****   */
 179:../../core/ST/STM32L4xx_HAL_Driver/Src/stm32l4xx_hal_flash.c **** 
 180:../../core/ST/STM32L4xx_HAL_Driver/Src/stm32l4xx_hal_flash.c **** /**
 181:../../core/ST/STM32L4xx_HAL_Driver/Src/stm32l4xx_hal_flash.c ****   * @brief  Program double word or fast program of a row at a specified address.
 182:../../core/ST/STM32L4xx_HAL_Driver/Src/stm32l4xx_hal_flash.c ****   * @param  TypeProgram:  Indicate the way to program at a specified address.
 183:../../core/ST/STM32L4xx_HAL_Driver/Src/stm32l4xx_hal_flash.c ****   *                           This parameter can be a value of @ref FLASH_Type_Program
 184:../../core/ST/STM32L4xx_HAL_Driver/Src/stm32l4xx_hal_flash.c ****   * @param  Address:  specifies the address to be programmed.
 185:../../core/ST/STM32L4xx_HAL_Driver/Src/stm32l4xx_hal_flash.c ****   * @param  Data: specifies the data to be programmed
 186:../../core/ST/STM32L4xx_HAL_Driver/Src/stm32l4xx_hal_flash.c ****   *                This parameter is the data for the double word program and the address where
 187:../../core/ST/STM32L4xx_HAL_Driver/Src/stm32l4xx_hal_flash.c ****   *                are stored the data for the row fast program
 188:../../core/ST/STM32L4xx_HAL_Driver/Src/stm32l4xx_hal_flash.c ****   *
 189:../../core/ST/STM32L4xx_HAL_Driver/Src/stm32l4xx_hal_flash.c ****   * @retval HAL_StatusTypeDef HAL Status
 190:../../core/ST/STM32L4xx_HAL_Driver/Src/stm32l4xx_hal_flash.c ****   */
 191:../../core/ST/STM32L4xx_HAL_Driver/Src/stm32l4xx_hal_flash.c **** HAL_StatusTypeDef HAL_FLASH_Program(uint32_t TypeProgram, uint32_t Address, uint64_t Data)
 192:../../core/ST/STM32L4xx_HAL_Driver/Src/stm32l4xx_hal_flash.c **** {
 193:../../core/ST/STM32L4xx_HAL_Driver/Src/stm32l4xx_hal_flash.c ****   HAL_StatusTypeDef status;
 194:../../core/ST/STM32L4xx_HAL_Driver/Src/stm32l4xx_hal_flash.c ****   uint32_t prog_bit = 0;
 195:../../core/ST/STM32L4xx_HAL_Driver/Src/stm32l4xx_hal_flash.c **** 
 196:../../core/ST/STM32L4xx_HAL_Driver/Src/stm32l4xx_hal_flash.c ****   /* Process Locked */
 197:../../core/ST/STM32L4xx_HAL_Driver/Src/stm32l4xx_hal_flash.c ****   __HAL_LOCK(&pFlash);
 198:../../core/ST/STM32L4xx_HAL_Driver/Src/stm32l4xx_hal_flash.c **** 
 199:../../core/ST/STM32L4xx_HAL_Driver/Src/stm32l4xx_hal_flash.c ****   /* Check the parameters */
 200:../../core/ST/STM32L4xx_HAL_Driver/Src/stm32l4xx_hal_flash.c ****   assert_param(IS_FLASH_TYPEPROGRAM(TypeProgram));
 201:../../core/ST/STM32L4xx_HAL_Driver/Src/stm32l4xx_hal_flash.c **** 
 202:../../core/ST/STM32L4xx_HAL_Driver/Src/stm32l4xx_hal_flash.c ****   /* Wait for last operation to be completed */
 203:../../core/ST/STM32L4xx_HAL_Driver/Src/stm32l4xx_hal_flash.c ****   status = FLASH_WaitForLastOperation((uint32_t)FLASH_TIMEOUT_VALUE);
ARM GAS  /tmp/ccvegzZU.s 			page 5


 204:../../core/ST/STM32L4xx_HAL_Driver/Src/stm32l4xx_hal_flash.c **** 
 205:../../core/ST/STM32L4xx_HAL_Driver/Src/stm32l4xx_hal_flash.c ****   if(status == HAL_OK)
 206:../../core/ST/STM32L4xx_HAL_Driver/Src/stm32l4xx_hal_flash.c ****   {
 207:../../core/ST/STM32L4xx_HAL_Driver/Src/stm32l4xx_hal_flash.c ****     pFlash.ErrorCode = HAL_FLASH_ERROR_NONE;
 208:../../core/ST/STM32L4xx_HAL_Driver/Src/stm32l4xx_hal_flash.c **** 
 209:../../core/ST/STM32L4xx_HAL_Driver/Src/stm32l4xx_hal_flash.c ****     /* Deactivate the data cache if they are activated to avoid data misbehavior */
 210:../../core/ST/STM32L4xx_HAL_Driver/Src/stm32l4xx_hal_flash.c ****     if(READ_BIT(FLASH->ACR, FLASH_ACR_DCEN) != 0U)
 211:../../core/ST/STM32L4xx_HAL_Driver/Src/stm32l4xx_hal_flash.c ****     {
 212:../../core/ST/STM32L4xx_HAL_Driver/Src/stm32l4xx_hal_flash.c ****       /* Disable data cache  */
 213:../../core/ST/STM32L4xx_HAL_Driver/Src/stm32l4xx_hal_flash.c ****       __HAL_FLASH_DATA_CACHE_DISABLE();
 214:../../core/ST/STM32L4xx_HAL_Driver/Src/stm32l4xx_hal_flash.c ****       pFlash.CacheToReactivate = FLASH_CACHE_DCACHE_ENABLED;
 215:../../core/ST/STM32L4xx_HAL_Driver/Src/stm32l4xx_hal_flash.c ****     }
 216:../../core/ST/STM32L4xx_HAL_Driver/Src/stm32l4xx_hal_flash.c ****     else
 217:../../core/ST/STM32L4xx_HAL_Driver/Src/stm32l4xx_hal_flash.c ****     {
 218:../../core/ST/STM32L4xx_HAL_Driver/Src/stm32l4xx_hal_flash.c ****       pFlash.CacheToReactivate = FLASH_CACHE_DISABLED;
 219:../../core/ST/STM32L4xx_HAL_Driver/Src/stm32l4xx_hal_flash.c ****     }
 220:../../core/ST/STM32L4xx_HAL_Driver/Src/stm32l4xx_hal_flash.c **** 
 221:../../core/ST/STM32L4xx_HAL_Driver/Src/stm32l4xx_hal_flash.c ****     if(TypeProgram == FLASH_TYPEPROGRAM_DOUBLEWORD)
 222:../../core/ST/STM32L4xx_HAL_Driver/Src/stm32l4xx_hal_flash.c ****     {
 223:../../core/ST/STM32L4xx_HAL_Driver/Src/stm32l4xx_hal_flash.c ****       /* Program double-word (64-bit) at a specified address */
 224:../../core/ST/STM32L4xx_HAL_Driver/Src/stm32l4xx_hal_flash.c ****       FLASH_Program_DoubleWord(Address, Data);
 225:../../core/ST/STM32L4xx_HAL_Driver/Src/stm32l4xx_hal_flash.c ****       prog_bit = FLASH_CR_PG;
 226:../../core/ST/STM32L4xx_HAL_Driver/Src/stm32l4xx_hal_flash.c ****     }
 227:../../core/ST/STM32L4xx_HAL_Driver/Src/stm32l4xx_hal_flash.c ****     else if((TypeProgram == FLASH_TYPEPROGRAM_FAST) || (TypeProgram == FLASH_TYPEPROGRAM_FAST_AND_L
 228:../../core/ST/STM32L4xx_HAL_Driver/Src/stm32l4xx_hal_flash.c ****     {
 229:../../core/ST/STM32L4xx_HAL_Driver/Src/stm32l4xx_hal_flash.c ****       /* Fast program a 32 row double-word (64-bit) at a specified address */
 230:../../core/ST/STM32L4xx_HAL_Driver/Src/stm32l4xx_hal_flash.c ****       FLASH_Program_Fast(Address, (uint32_t)Data);
 231:../../core/ST/STM32L4xx_HAL_Driver/Src/stm32l4xx_hal_flash.c **** 
 232:../../core/ST/STM32L4xx_HAL_Driver/Src/stm32l4xx_hal_flash.c ****       /* If it is the last row, the bit will be cleared at the end of the operation */
 233:../../core/ST/STM32L4xx_HAL_Driver/Src/stm32l4xx_hal_flash.c ****       if(TypeProgram == FLASH_TYPEPROGRAM_FAST_AND_LAST)
 234:../../core/ST/STM32L4xx_HAL_Driver/Src/stm32l4xx_hal_flash.c ****       {
 235:../../core/ST/STM32L4xx_HAL_Driver/Src/stm32l4xx_hal_flash.c ****         prog_bit = FLASH_CR_FSTPG;
 236:../../core/ST/STM32L4xx_HAL_Driver/Src/stm32l4xx_hal_flash.c ****       }
 237:../../core/ST/STM32L4xx_HAL_Driver/Src/stm32l4xx_hal_flash.c ****     }
 238:../../core/ST/STM32L4xx_HAL_Driver/Src/stm32l4xx_hal_flash.c ****     else
 239:../../core/ST/STM32L4xx_HAL_Driver/Src/stm32l4xx_hal_flash.c ****     {
 240:../../core/ST/STM32L4xx_HAL_Driver/Src/stm32l4xx_hal_flash.c ****       /* Nothing to do */
 241:../../core/ST/STM32L4xx_HAL_Driver/Src/stm32l4xx_hal_flash.c ****     }
 242:../../core/ST/STM32L4xx_HAL_Driver/Src/stm32l4xx_hal_flash.c **** 
 243:../../core/ST/STM32L4xx_HAL_Driver/Src/stm32l4xx_hal_flash.c ****     /* Wait for last operation to be completed */
 244:../../core/ST/STM32L4xx_HAL_Driver/Src/stm32l4xx_hal_flash.c ****     status = FLASH_WaitForLastOperation((uint32_t)FLASH_TIMEOUT_VALUE);
 245:../../core/ST/STM32L4xx_HAL_Driver/Src/stm32l4xx_hal_flash.c **** 
 246:../../core/ST/STM32L4xx_HAL_Driver/Src/stm32l4xx_hal_flash.c ****     /* If the program operation is completed, disable the PG or FSTPG Bit */
 247:../../core/ST/STM32L4xx_HAL_Driver/Src/stm32l4xx_hal_flash.c ****     if (prog_bit != 0U)
 248:../../core/ST/STM32L4xx_HAL_Driver/Src/stm32l4xx_hal_flash.c ****     {
 249:../../core/ST/STM32L4xx_HAL_Driver/Src/stm32l4xx_hal_flash.c ****       CLEAR_BIT(FLASH->CR, prog_bit);
 250:../../core/ST/STM32L4xx_HAL_Driver/Src/stm32l4xx_hal_flash.c ****     }
 251:../../core/ST/STM32L4xx_HAL_Driver/Src/stm32l4xx_hal_flash.c **** 
 252:../../core/ST/STM32L4xx_HAL_Driver/Src/stm32l4xx_hal_flash.c ****     /* Flush the caches to be sure of the data consistency */
 253:../../core/ST/STM32L4xx_HAL_Driver/Src/stm32l4xx_hal_flash.c ****     FLASH_FlushCaches();
 254:../../core/ST/STM32L4xx_HAL_Driver/Src/stm32l4xx_hal_flash.c ****   }
 255:../../core/ST/STM32L4xx_HAL_Driver/Src/stm32l4xx_hal_flash.c **** 
 256:../../core/ST/STM32L4xx_HAL_Driver/Src/stm32l4xx_hal_flash.c ****   /* Process Unlocked */
 257:../../core/ST/STM32L4xx_HAL_Driver/Src/stm32l4xx_hal_flash.c ****   __HAL_UNLOCK(&pFlash);
 258:../../core/ST/STM32L4xx_HAL_Driver/Src/stm32l4xx_hal_flash.c **** 
 259:../../core/ST/STM32L4xx_HAL_Driver/Src/stm32l4xx_hal_flash.c ****   return status;
 260:../../core/ST/STM32L4xx_HAL_Driver/Src/stm32l4xx_hal_flash.c **** }
ARM GAS  /tmp/ccvegzZU.s 			page 6


 261:../../core/ST/STM32L4xx_HAL_Driver/Src/stm32l4xx_hal_flash.c **** 
 262:../../core/ST/STM32L4xx_HAL_Driver/Src/stm32l4xx_hal_flash.c **** /**
 263:../../core/ST/STM32L4xx_HAL_Driver/Src/stm32l4xx_hal_flash.c ****   * @brief  Program double word or fast program of a row at a specified address with interrupt enab
 264:../../core/ST/STM32L4xx_HAL_Driver/Src/stm32l4xx_hal_flash.c ****   * @param  TypeProgram:  Indicate the way to program at a specified address.
 265:../../core/ST/STM32L4xx_HAL_Driver/Src/stm32l4xx_hal_flash.c ****   *                           This parameter can be a value of @ref FLASH_Type_Program
 266:../../core/ST/STM32L4xx_HAL_Driver/Src/stm32l4xx_hal_flash.c ****   * @param  Address:  specifies the address to be programmed.
 267:../../core/ST/STM32L4xx_HAL_Driver/Src/stm32l4xx_hal_flash.c ****   * @param  Data: specifies the data to be programmed
 268:../../core/ST/STM32L4xx_HAL_Driver/Src/stm32l4xx_hal_flash.c ****   *                This parameter is the data for the double word program and the address where
 269:../../core/ST/STM32L4xx_HAL_Driver/Src/stm32l4xx_hal_flash.c ****   *                are stored the data for the row fast program
 270:../../core/ST/STM32L4xx_HAL_Driver/Src/stm32l4xx_hal_flash.c ****   *
 271:../../core/ST/STM32L4xx_HAL_Driver/Src/stm32l4xx_hal_flash.c ****   * @retval HAL Status
 272:../../core/ST/STM32L4xx_HAL_Driver/Src/stm32l4xx_hal_flash.c ****   */
 273:../../core/ST/STM32L4xx_HAL_Driver/Src/stm32l4xx_hal_flash.c **** HAL_StatusTypeDef HAL_FLASH_Program_IT(uint32_t TypeProgram, uint32_t Address, uint64_t Data)
 274:../../core/ST/STM32L4xx_HAL_Driver/Src/stm32l4xx_hal_flash.c **** {
 275:../../core/ST/STM32L4xx_HAL_Driver/Src/stm32l4xx_hal_flash.c ****   HAL_StatusTypeDef status = HAL_OK;
 276:../../core/ST/STM32L4xx_HAL_Driver/Src/stm32l4xx_hal_flash.c **** 
 277:../../core/ST/STM32L4xx_HAL_Driver/Src/stm32l4xx_hal_flash.c ****   /* Check the parameters */
 278:../../core/ST/STM32L4xx_HAL_Driver/Src/stm32l4xx_hal_flash.c ****   assert_param(IS_FLASH_TYPEPROGRAM(TypeProgram));
 279:../../core/ST/STM32L4xx_HAL_Driver/Src/stm32l4xx_hal_flash.c **** 
 280:../../core/ST/STM32L4xx_HAL_Driver/Src/stm32l4xx_hal_flash.c ****   /* Process Locked */
 281:../../core/ST/STM32L4xx_HAL_Driver/Src/stm32l4xx_hal_flash.c ****   __HAL_LOCK(&pFlash);
 282:../../core/ST/STM32L4xx_HAL_Driver/Src/stm32l4xx_hal_flash.c **** 
 283:../../core/ST/STM32L4xx_HAL_Driver/Src/stm32l4xx_hal_flash.c ****   pFlash.ErrorCode = HAL_FLASH_ERROR_NONE;
 284:../../core/ST/STM32L4xx_HAL_Driver/Src/stm32l4xx_hal_flash.c **** 
 285:../../core/ST/STM32L4xx_HAL_Driver/Src/stm32l4xx_hal_flash.c ****   /* Deactivate the data cache if they are activated to avoid data misbehavior */
 286:../../core/ST/STM32L4xx_HAL_Driver/Src/stm32l4xx_hal_flash.c ****   if(READ_BIT(FLASH->ACR, FLASH_ACR_DCEN) != 0U)
 287:../../core/ST/STM32L4xx_HAL_Driver/Src/stm32l4xx_hal_flash.c ****   {
 288:../../core/ST/STM32L4xx_HAL_Driver/Src/stm32l4xx_hal_flash.c ****     /* Disable data cache  */
 289:../../core/ST/STM32L4xx_HAL_Driver/Src/stm32l4xx_hal_flash.c ****     __HAL_FLASH_DATA_CACHE_DISABLE();
 290:../../core/ST/STM32L4xx_HAL_Driver/Src/stm32l4xx_hal_flash.c ****     pFlash.CacheToReactivate = FLASH_CACHE_DCACHE_ENABLED;
 291:../../core/ST/STM32L4xx_HAL_Driver/Src/stm32l4xx_hal_flash.c ****   }
 292:../../core/ST/STM32L4xx_HAL_Driver/Src/stm32l4xx_hal_flash.c ****   else
 293:../../core/ST/STM32L4xx_HAL_Driver/Src/stm32l4xx_hal_flash.c ****   {
 294:../../core/ST/STM32L4xx_HAL_Driver/Src/stm32l4xx_hal_flash.c ****     pFlash.CacheToReactivate = FLASH_CACHE_DISABLED;
 295:../../core/ST/STM32L4xx_HAL_Driver/Src/stm32l4xx_hal_flash.c ****   }
 296:../../core/ST/STM32L4xx_HAL_Driver/Src/stm32l4xx_hal_flash.c **** 
 297:../../core/ST/STM32L4xx_HAL_Driver/Src/stm32l4xx_hal_flash.c ****   /* Set internal variables used by the IRQ handler */
 298:../../core/ST/STM32L4xx_HAL_Driver/Src/stm32l4xx_hal_flash.c ****   if(TypeProgram == FLASH_TYPEPROGRAM_FAST_AND_LAST)
 299:../../core/ST/STM32L4xx_HAL_Driver/Src/stm32l4xx_hal_flash.c ****   {
 300:../../core/ST/STM32L4xx_HAL_Driver/Src/stm32l4xx_hal_flash.c ****     pFlash.ProcedureOnGoing = FLASH_PROC_PROGRAM_LAST;
 301:../../core/ST/STM32L4xx_HAL_Driver/Src/stm32l4xx_hal_flash.c ****   }
 302:../../core/ST/STM32L4xx_HAL_Driver/Src/stm32l4xx_hal_flash.c ****   else
 303:../../core/ST/STM32L4xx_HAL_Driver/Src/stm32l4xx_hal_flash.c ****   {
 304:../../core/ST/STM32L4xx_HAL_Driver/Src/stm32l4xx_hal_flash.c ****     pFlash.ProcedureOnGoing = FLASH_PROC_PROGRAM;
 305:../../core/ST/STM32L4xx_HAL_Driver/Src/stm32l4xx_hal_flash.c ****   }
 306:../../core/ST/STM32L4xx_HAL_Driver/Src/stm32l4xx_hal_flash.c ****   pFlash.Address = Address;
 307:../../core/ST/STM32L4xx_HAL_Driver/Src/stm32l4xx_hal_flash.c **** 
 308:../../core/ST/STM32L4xx_HAL_Driver/Src/stm32l4xx_hal_flash.c ****   /* Enable End of Operation and Error interrupts */
 309:../../core/ST/STM32L4xx_HAL_Driver/Src/stm32l4xx_hal_flash.c ****   __HAL_FLASH_ENABLE_IT(FLASH_IT_EOP | FLASH_IT_OPERR);
 310:../../core/ST/STM32L4xx_HAL_Driver/Src/stm32l4xx_hal_flash.c **** 
 311:../../core/ST/STM32L4xx_HAL_Driver/Src/stm32l4xx_hal_flash.c ****   if(TypeProgram == FLASH_TYPEPROGRAM_DOUBLEWORD)
 312:../../core/ST/STM32L4xx_HAL_Driver/Src/stm32l4xx_hal_flash.c ****   {
 313:../../core/ST/STM32L4xx_HAL_Driver/Src/stm32l4xx_hal_flash.c ****     /* Program double-word (64-bit) at a specified address */
 314:../../core/ST/STM32L4xx_HAL_Driver/Src/stm32l4xx_hal_flash.c ****     FLASH_Program_DoubleWord(Address, Data);
 315:../../core/ST/STM32L4xx_HAL_Driver/Src/stm32l4xx_hal_flash.c ****   }
 316:../../core/ST/STM32L4xx_HAL_Driver/Src/stm32l4xx_hal_flash.c ****   else if((TypeProgram == FLASH_TYPEPROGRAM_FAST) || (TypeProgram == FLASH_TYPEPROGRAM_FAST_AND_LAS
 317:../../core/ST/STM32L4xx_HAL_Driver/Src/stm32l4xx_hal_flash.c ****   {
ARM GAS  /tmp/ccvegzZU.s 			page 7


 318:../../core/ST/STM32L4xx_HAL_Driver/Src/stm32l4xx_hal_flash.c ****     /* Fast program a 32 row double-word (64-bit) at a specified address */
 319:../../core/ST/STM32L4xx_HAL_Driver/Src/stm32l4xx_hal_flash.c ****     FLASH_Program_Fast(Address, (uint32_t)Data);
 320:../../core/ST/STM32L4xx_HAL_Driver/Src/stm32l4xx_hal_flash.c ****   }
 321:../../core/ST/STM32L4xx_HAL_Driver/Src/stm32l4xx_hal_flash.c ****   else
 322:../../core/ST/STM32L4xx_HAL_Driver/Src/stm32l4xx_hal_flash.c ****   {
 323:../../core/ST/STM32L4xx_HAL_Driver/Src/stm32l4xx_hal_flash.c ****     /* Nothing to do */
 324:../../core/ST/STM32L4xx_HAL_Driver/Src/stm32l4xx_hal_flash.c ****   }
 325:../../core/ST/STM32L4xx_HAL_Driver/Src/stm32l4xx_hal_flash.c **** 
 326:../../core/ST/STM32L4xx_HAL_Driver/Src/stm32l4xx_hal_flash.c ****   return status;
 327:../../core/ST/STM32L4xx_HAL_Driver/Src/stm32l4xx_hal_flash.c **** }
 328:../../core/ST/STM32L4xx_HAL_Driver/Src/stm32l4xx_hal_flash.c **** 
 329:../../core/ST/STM32L4xx_HAL_Driver/Src/stm32l4xx_hal_flash.c **** /**
 330:../../core/ST/STM32L4xx_HAL_Driver/Src/stm32l4xx_hal_flash.c ****   * @brief Handle FLASH interrupt request.
 331:../../core/ST/STM32L4xx_HAL_Driver/Src/stm32l4xx_hal_flash.c ****   * @retval None
 332:../../core/ST/STM32L4xx_HAL_Driver/Src/stm32l4xx_hal_flash.c ****   */
 333:../../core/ST/STM32L4xx_HAL_Driver/Src/stm32l4xx_hal_flash.c **** void HAL_FLASH_IRQHandler(void)
 334:../../core/ST/STM32L4xx_HAL_Driver/Src/stm32l4xx_hal_flash.c **** {
 335:../../core/ST/STM32L4xx_HAL_Driver/Src/stm32l4xx_hal_flash.c ****   uint32_t tmp_page;
 336:../../core/ST/STM32L4xx_HAL_Driver/Src/stm32l4xx_hal_flash.c ****   uint32_t error;
 337:../../core/ST/STM32L4xx_HAL_Driver/Src/stm32l4xx_hal_flash.c ****   FLASH_ProcedureTypeDef procedure;
 338:../../core/ST/STM32L4xx_HAL_Driver/Src/stm32l4xx_hal_flash.c **** 
 339:../../core/ST/STM32L4xx_HAL_Driver/Src/stm32l4xx_hal_flash.c ****   /* If the operation is completed, disable the PG, PNB, MER1, MER2 and PER Bit */
 340:../../core/ST/STM32L4xx_HAL_Driver/Src/stm32l4xx_hal_flash.c ****   CLEAR_BIT(FLASH->CR, (FLASH_CR_PG | FLASH_CR_MER1 | FLASH_CR_PER | FLASH_CR_PNB));
 341:../../core/ST/STM32L4xx_HAL_Driver/Src/stm32l4xx_hal_flash.c **** #if defined (STM32L471xx) || defined (STM32L475xx) || defined (STM32L476xx) || defined (STM32L485xx
 342:../../core/ST/STM32L4xx_HAL_Driver/Src/stm32l4xx_hal_flash.c ****     defined (STM32L496xx) || defined (STM32L4A6xx) || \
 343:../../core/ST/STM32L4xx_HAL_Driver/Src/stm32l4xx_hal_flash.c ****     defined (STM32L4R5xx) || defined (STM32L4R7xx) || defined (STM32L4R9xx) || defined (STM32L4S5xx
 344:../../core/ST/STM32L4xx_HAL_Driver/Src/stm32l4xx_hal_flash.c ****   CLEAR_BIT(FLASH->CR, FLASH_CR_MER2);
 345:../../core/ST/STM32L4xx_HAL_Driver/Src/stm32l4xx_hal_flash.c **** #endif
 346:../../core/ST/STM32L4xx_HAL_Driver/Src/stm32l4xx_hal_flash.c **** 
 347:../../core/ST/STM32L4xx_HAL_Driver/Src/stm32l4xx_hal_flash.c ****   /* Disable the FSTPG Bit only if it is the last row programmed */
 348:../../core/ST/STM32L4xx_HAL_Driver/Src/stm32l4xx_hal_flash.c ****   if(pFlash.ProcedureOnGoing == FLASH_PROC_PROGRAM_LAST)
 349:../../core/ST/STM32L4xx_HAL_Driver/Src/stm32l4xx_hal_flash.c ****   {
 350:../../core/ST/STM32L4xx_HAL_Driver/Src/stm32l4xx_hal_flash.c ****     CLEAR_BIT(FLASH->CR, FLASH_CR_FSTPG);
 351:../../core/ST/STM32L4xx_HAL_Driver/Src/stm32l4xx_hal_flash.c ****   }
 352:../../core/ST/STM32L4xx_HAL_Driver/Src/stm32l4xx_hal_flash.c **** 
 353:../../core/ST/STM32L4xx_HAL_Driver/Src/stm32l4xx_hal_flash.c ****   /* Check FLASH operation error flags */
 354:../../core/ST/STM32L4xx_HAL_Driver/Src/stm32l4xx_hal_flash.c ****   error = (FLASH->SR & FLASH_FLAG_SR_ERRORS);
 355:../../core/ST/STM32L4xx_HAL_Driver/Src/stm32l4xx_hal_flash.c ****   error |= (FLASH->ECCR & FLASH_FLAG_ECCC);
 356:../../core/ST/STM32L4xx_HAL_Driver/Src/stm32l4xx_hal_flash.c **** 
 357:../../core/ST/STM32L4xx_HAL_Driver/Src/stm32l4xx_hal_flash.c ****   if (error !=0U)
 358:../../core/ST/STM32L4xx_HAL_Driver/Src/stm32l4xx_hal_flash.c ****   {
 359:../../core/ST/STM32L4xx_HAL_Driver/Src/stm32l4xx_hal_flash.c ****     /*Save the error code*/
 360:../../core/ST/STM32L4xx_HAL_Driver/Src/stm32l4xx_hal_flash.c ****     pFlash.ErrorCode |= error;
 361:../../core/ST/STM32L4xx_HAL_Driver/Src/stm32l4xx_hal_flash.c **** 
 362:../../core/ST/STM32L4xx_HAL_Driver/Src/stm32l4xx_hal_flash.c ****     /* Clear error programming flags */
 363:../../core/ST/STM32L4xx_HAL_Driver/Src/stm32l4xx_hal_flash.c ****     __HAL_FLASH_CLEAR_FLAG(error);
 364:../../core/ST/STM32L4xx_HAL_Driver/Src/stm32l4xx_hal_flash.c **** 
 365:../../core/ST/STM32L4xx_HAL_Driver/Src/stm32l4xx_hal_flash.c ****     /* Flush the caches to be sure of the data consistency */
 366:../../core/ST/STM32L4xx_HAL_Driver/Src/stm32l4xx_hal_flash.c ****     FLASH_FlushCaches() ;
 367:../../core/ST/STM32L4xx_HAL_Driver/Src/stm32l4xx_hal_flash.c **** 
 368:../../core/ST/STM32L4xx_HAL_Driver/Src/stm32l4xx_hal_flash.c ****     /* FLASH error interrupt user callback */
 369:../../core/ST/STM32L4xx_HAL_Driver/Src/stm32l4xx_hal_flash.c ****     procedure = pFlash.ProcedureOnGoing;
 370:../../core/ST/STM32L4xx_HAL_Driver/Src/stm32l4xx_hal_flash.c ****     if(procedure == FLASH_PROC_PAGE_ERASE)
 371:../../core/ST/STM32L4xx_HAL_Driver/Src/stm32l4xx_hal_flash.c ****     {
 372:../../core/ST/STM32L4xx_HAL_Driver/Src/stm32l4xx_hal_flash.c ****        HAL_FLASH_OperationErrorCallback(pFlash.Page);
 373:../../core/ST/STM32L4xx_HAL_Driver/Src/stm32l4xx_hal_flash.c ****     }
 374:../../core/ST/STM32L4xx_HAL_Driver/Src/stm32l4xx_hal_flash.c ****     else if(procedure == FLASH_PROC_MASS_ERASE)
ARM GAS  /tmp/ccvegzZU.s 			page 8


 375:../../core/ST/STM32L4xx_HAL_Driver/Src/stm32l4xx_hal_flash.c ****     {
 376:../../core/ST/STM32L4xx_HAL_Driver/Src/stm32l4xx_hal_flash.c ****         HAL_FLASH_OperationErrorCallback(pFlash.Bank);
 377:../../core/ST/STM32L4xx_HAL_Driver/Src/stm32l4xx_hal_flash.c ****     }
 378:../../core/ST/STM32L4xx_HAL_Driver/Src/stm32l4xx_hal_flash.c ****     else if((procedure == FLASH_PROC_PROGRAM) ||
 379:../../core/ST/STM32L4xx_HAL_Driver/Src/stm32l4xx_hal_flash.c ****             (procedure == FLASH_PROC_PROGRAM_LAST))
 380:../../core/ST/STM32L4xx_HAL_Driver/Src/stm32l4xx_hal_flash.c ****     {
 381:../../core/ST/STM32L4xx_HAL_Driver/Src/stm32l4xx_hal_flash.c ****        HAL_FLASH_OperationErrorCallback(pFlash.Address);
 382:../../core/ST/STM32L4xx_HAL_Driver/Src/stm32l4xx_hal_flash.c ****     }
 383:../../core/ST/STM32L4xx_HAL_Driver/Src/stm32l4xx_hal_flash.c ****     else
 384:../../core/ST/STM32L4xx_HAL_Driver/Src/stm32l4xx_hal_flash.c ****     {
 385:../../core/ST/STM32L4xx_HAL_Driver/Src/stm32l4xx_hal_flash.c ****        HAL_FLASH_OperationErrorCallback(0U);
 386:../../core/ST/STM32L4xx_HAL_Driver/Src/stm32l4xx_hal_flash.c ****     }
 387:../../core/ST/STM32L4xx_HAL_Driver/Src/stm32l4xx_hal_flash.c **** 
 388:../../core/ST/STM32L4xx_HAL_Driver/Src/stm32l4xx_hal_flash.c ****     /*Stop the procedure ongoing*/
 389:../../core/ST/STM32L4xx_HAL_Driver/Src/stm32l4xx_hal_flash.c ****     pFlash.ProcedureOnGoing = FLASH_PROC_NONE;
 390:../../core/ST/STM32L4xx_HAL_Driver/Src/stm32l4xx_hal_flash.c ****   }
 391:../../core/ST/STM32L4xx_HAL_Driver/Src/stm32l4xx_hal_flash.c **** 
 392:../../core/ST/STM32L4xx_HAL_Driver/Src/stm32l4xx_hal_flash.c ****   /* Check FLASH End of Operation flag  */
 393:../../core/ST/STM32L4xx_HAL_Driver/Src/stm32l4xx_hal_flash.c ****   if(__HAL_FLASH_GET_FLAG(FLASH_FLAG_EOP) != 0U)
 394:../../core/ST/STM32L4xx_HAL_Driver/Src/stm32l4xx_hal_flash.c ****   {
 395:../../core/ST/STM32L4xx_HAL_Driver/Src/stm32l4xx_hal_flash.c ****     /* Clear FLASH End of Operation pending bit */
 396:../../core/ST/STM32L4xx_HAL_Driver/Src/stm32l4xx_hal_flash.c ****     __HAL_FLASH_CLEAR_FLAG(FLASH_FLAG_EOP);
 397:../../core/ST/STM32L4xx_HAL_Driver/Src/stm32l4xx_hal_flash.c **** 
 398:../../core/ST/STM32L4xx_HAL_Driver/Src/stm32l4xx_hal_flash.c ****     if(pFlash.ProcedureOnGoing == FLASH_PROC_PAGE_ERASE)
 399:../../core/ST/STM32L4xx_HAL_Driver/Src/stm32l4xx_hal_flash.c ****     {
 400:../../core/ST/STM32L4xx_HAL_Driver/Src/stm32l4xx_hal_flash.c ****       /* Nb of pages to erased can be decreased */
 401:../../core/ST/STM32L4xx_HAL_Driver/Src/stm32l4xx_hal_flash.c ****       pFlash.NbPagesToErase--;
 402:../../core/ST/STM32L4xx_HAL_Driver/Src/stm32l4xx_hal_flash.c **** 
 403:../../core/ST/STM32L4xx_HAL_Driver/Src/stm32l4xx_hal_flash.c ****       /* Check if there are still pages to erase*/
 404:../../core/ST/STM32L4xx_HAL_Driver/Src/stm32l4xx_hal_flash.c ****       if(pFlash.NbPagesToErase != 0U)
 405:../../core/ST/STM32L4xx_HAL_Driver/Src/stm32l4xx_hal_flash.c ****       {
 406:../../core/ST/STM32L4xx_HAL_Driver/Src/stm32l4xx_hal_flash.c ****         /* Indicate user which page has been erased*/
 407:../../core/ST/STM32L4xx_HAL_Driver/Src/stm32l4xx_hal_flash.c ****         HAL_FLASH_EndOfOperationCallback(pFlash.Page);
 408:../../core/ST/STM32L4xx_HAL_Driver/Src/stm32l4xx_hal_flash.c **** 
 409:../../core/ST/STM32L4xx_HAL_Driver/Src/stm32l4xx_hal_flash.c ****         /* Increment page number */
 410:../../core/ST/STM32L4xx_HAL_Driver/Src/stm32l4xx_hal_flash.c ****         pFlash.Page++;
 411:../../core/ST/STM32L4xx_HAL_Driver/Src/stm32l4xx_hal_flash.c ****         tmp_page = pFlash.Page;
 412:../../core/ST/STM32L4xx_HAL_Driver/Src/stm32l4xx_hal_flash.c ****         FLASH_PageErase(tmp_page, pFlash.Bank);
 413:../../core/ST/STM32L4xx_HAL_Driver/Src/stm32l4xx_hal_flash.c ****       }
 414:../../core/ST/STM32L4xx_HAL_Driver/Src/stm32l4xx_hal_flash.c ****       else
 415:../../core/ST/STM32L4xx_HAL_Driver/Src/stm32l4xx_hal_flash.c ****       {
 416:../../core/ST/STM32L4xx_HAL_Driver/Src/stm32l4xx_hal_flash.c ****         /* No more pages to Erase */
 417:../../core/ST/STM32L4xx_HAL_Driver/Src/stm32l4xx_hal_flash.c ****         /* Reset Address and stop Erase pages procedure */
 418:../../core/ST/STM32L4xx_HAL_Driver/Src/stm32l4xx_hal_flash.c ****         pFlash.Page = 0xFFFFFFFFU;
 419:../../core/ST/STM32L4xx_HAL_Driver/Src/stm32l4xx_hal_flash.c ****         pFlash.ProcedureOnGoing = FLASH_PROC_NONE;
 420:../../core/ST/STM32L4xx_HAL_Driver/Src/stm32l4xx_hal_flash.c **** 
 421:../../core/ST/STM32L4xx_HAL_Driver/Src/stm32l4xx_hal_flash.c ****         /* Flush the caches to be sure of the data consistency */
 422:../../core/ST/STM32L4xx_HAL_Driver/Src/stm32l4xx_hal_flash.c ****         FLASH_FlushCaches() ;
 423:../../core/ST/STM32L4xx_HAL_Driver/Src/stm32l4xx_hal_flash.c **** 
 424:../../core/ST/STM32L4xx_HAL_Driver/Src/stm32l4xx_hal_flash.c ****         /* FLASH EOP interrupt user callback */
 425:../../core/ST/STM32L4xx_HAL_Driver/Src/stm32l4xx_hal_flash.c ****         HAL_FLASH_EndOfOperationCallback(pFlash.Page);
 426:../../core/ST/STM32L4xx_HAL_Driver/Src/stm32l4xx_hal_flash.c ****       }
 427:../../core/ST/STM32L4xx_HAL_Driver/Src/stm32l4xx_hal_flash.c ****     }
 428:../../core/ST/STM32L4xx_HAL_Driver/Src/stm32l4xx_hal_flash.c ****     else
 429:../../core/ST/STM32L4xx_HAL_Driver/Src/stm32l4xx_hal_flash.c ****     {
 430:../../core/ST/STM32L4xx_HAL_Driver/Src/stm32l4xx_hal_flash.c ****       /* Flush the caches to be sure of the data consistency */
 431:../../core/ST/STM32L4xx_HAL_Driver/Src/stm32l4xx_hal_flash.c ****       FLASH_FlushCaches() ;
ARM GAS  /tmp/ccvegzZU.s 			page 9


 432:../../core/ST/STM32L4xx_HAL_Driver/Src/stm32l4xx_hal_flash.c **** 
 433:../../core/ST/STM32L4xx_HAL_Driver/Src/stm32l4xx_hal_flash.c ****       procedure = pFlash.ProcedureOnGoing;
 434:../../core/ST/STM32L4xx_HAL_Driver/Src/stm32l4xx_hal_flash.c ****       if(procedure == FLASH_PROC_MASS_ERASE)
 435:../../core/ST/STM32L4xx_HAL_Driver/Src/stm32l4xx_hal_flash.c ****       {
 436:../../core/ST/STM32L4xx_HAL_Driver/Src/stm32l4xx_hal_flash.c ****         /* MassErase ended. Return the selected bank */
 437:../../core/ST/STM32L4xx_HAL_Driver/Src/stm32l4xx_hal_flash.c ****         /* FLASH EOP interrupt user callback */
 438:../../core/ST/STM32L4xx_HAL_Driver/Src/stm32l4xx_hal_flash.c ****         HAL_FLASH_EndOfOperationCallback(pFlash.Bank);
 439:../../core/ST/STM32L4xx_HAL_Driver/Src/stm32l4xx_hal_flash.c ****       }
 440:../../core/ST/STM32L4xx_HAL_Driver/Src/stm32l4xx_hal_flash.c ****       else if((procedure == FLASH_PROC_PROGRAM) ||
 441:../../core/ST/STM32L4xx_HAL_Driver/Src/stm32l4xx_hal_flash.c ****               (procedure == FLASH_PROC_PROGRAM_LAST))
 442:../../core/ST/STM32L4xx_HAL_Driver/Src/stm32l4xx_hal_flash.c ****       {
 443:../../core/ST/STM32L4xx_HAL_Driver/Src/stm32l4xx_hal_flash.c ****         /* Program ended. Return the selected address */
 444:../../core/ST/STM32L4xx_HAL_Driver/Src/stm32l4xx_hal_flash.c ****         /* FLASH EOP interrupt user callback */
 445:../../core/ST/STM32L4xx_HAL_Driver/Src/stm32l4xx_hal_flash.c ****         HAL_FLASH_EndOfOperationCallback(pFlash.Address);
 446:../../core/ST/STM32L4xx_HAL_Driver/Src/stm32l4xx_hal_flash.c ****       }
 447:../../core/ST/STM32L4xx_HAL_Driver/Src/stm32l4xx_hal_flash.c ****       else
 448:../../core/ST/STM32L4xx_HAL_Driver/Src/stm32l4xx_hal_flash.c ****       {
 449:../../core/ST/STM32L4xx_HAL_Driver/Src/stm32l4xx_hal_flash.c ****         /* Nothing to do */
 450:../../core/ST/STM32L4xx_HAL_Driver/Src/stm32l4xx_hal_flash.c ****       }
 451:../../core/ST/STM32L4xx_HAL_Driver/Src/stm32l4xx_hal_flash.c **** 
 452:../../core/ST/STM32L4xx_HAL_Driver/Src/stm32l4xx_hal_flash.c ****       /*Clear the procedure ongoing*/
 453:../../core/ST/STM32L4xx_HAL_Driver/Src/stm32l4xx_hal_flash.c ****       pFlash.ProcedureOnGoing = FLASH_PROC_NONE;
 454:../../core/ST/STM32L4xx_HAL_Driver/Src/stm32l4xx_hal_flash.c ****     }
 455:../../core/ST/STM32L4xx_HAL_Driver/Src/stm32l4xx_hal_flash.c ****   }
 456:../../core/ST/STM32L4xx_HAL_Driver/Src/stm32l4xx_hal_flash.c **** 
 457:../../core/ST/STM32L4xx_HAL_Driver/Src/stm32l4xx_hal_flash.c ****   if(pFlash.ProcedureOnGoing == FLASH_PROC_NONE)
 458:../../core/ST/STM32L4xx_HAL_Driver/Src/stm32l4xx_hal_flash.c ****   {
 459:../../core/ST/STM32L4xx_HAL_Driver/Src/stm32l4xx_hal_flash.c ****     /* Disable End of Operation and Error interrupts */
 460:../../core/ST/STM32L4xx_HAL_Driver/Src/stm32l4xx_hal_flash.c ****     __HAL_FLASH_DISABLE_IT(FLASH_IT_EOP | FLASH_IT_OPERR);
 461:../../core/ST/STM32L4xx_HAL_Driver/Src/stm32l4xx_hal_flash.c **** 
 462:../../core/ST/STM32L4xx_HAL_Driver/Src/stm32l4xx_hal_flash.c ****     /* Process Unlocked */
 463:../../core/ST/STM32L4xx_HAL_Driver/Src/stm32l4xx_hal_flash.c ****     __HAL_UNLOCK(&pFlash);
 464:../../core/ST/STM32L4xx_HAL_Driver/Src/stm32l4xx_hal_flash.c ****   }
 465:../../core/ST/STM32L4xx_HAL_Driver/Src/stm32l4xx_hal_flash.c **** }
 466:../../core/ST/STM32L4xx_HAL_Driver/Src/stm32l4xx_hal_flash.c **** 
 467:../../core/ST/STM32L4xx_HAL_Driver/Src/stm32l4xx_hal_flash.c **** /**
 468:../../core/ST/STM32L4xx_HAL_Driver/Src/stm32l4xx_hal_flash.c ****   * @brief  FLASH end of operation interrupt callback.
 469:../../core/ST/STM32L4xx_HAL_Driver/Src/stm32l4xx_hal_flash.c ****   * @param  ReturnValue: The value saved in this parameter depends on the ongoing procedure
 470:../../core/ST/STM32L4xx_HAL_Driver/Src/stm32l4xx_hal_flash.c ****   *                  Mass Erase: Bank number which has been requested to erase
 471:../../core/ST/STM32L4xx_HAL_Driver/Src/stm32l4xx_hal_flash.c ****   *                  Page Erase: Page which has been erased
 472:../../core/ST/STM32L4xx_HAL_Driver/Src/stm32l4xx_hal_flash.c ****   *                    (if 0xFFFFFFFF, it means that all the selected pages have been erased)
 473:../../core/ST/STM32L4xx_HAL_Driver/Src/stm32l4xx_hal_flash.c ****   *                  Program: Address which was selected for data program
 474:../../core/ST/STM32L4xx_HAL_Driver/Src/stm32l4xx_hal_flash.c ****   * @retval None
 475:../../core/ST/STM32L4xx_HAL_Driver/Src/stm32l4xx_hal_flash.c ****   */
 476:../../core/ST/STM32L4xx_HAL_Driver/Src/stm32l4xx_hal_flash.c **** __weak void HAL_FLASH_EndOfOperationCallback(uint32_t ReturnValue)
 477:../../core/ST/STM32L4xx_HAL_Driver/Src/stm32l4xx_hal_flash.c **** {
 478:../../core/ST/STM32L4xx_HAL_Driver/Src/stm32l4xx_hal_flash.c ****   /* Prevent unused argument(s) compilation warning */
 479:../../core/ST/STM32L4xx_HAL_Driver/Src/stm32l4xx_hal_flash.c ****   UNUSED(ReturnValue);
 480:../../core/ST/STM32L4xx_HAL_Driver/Src/stm32l4xx_hal_flash.c **** 
 481:../../core/ST/STM32L4xx_HAL_Driver/Src/stm32l4xx_hal_flash.c ****   /* NOTE : This function should not be modified, when the callback is needed,
 482:../../core/ST/STM32L4xx_HAL_Driver/Src/stm32l4xx_hal_flash.c ****             the HAL_FLASH_EndOfOperationCallback could be implemented in the user file
 483:../../core/ST/STM32L4xx_HAL_Driver/Src/stm32l4xx_hal_flash.c ****    */
 484:../../core/ST/STM32L4xx_HAL_Driver/Src/stm32l4xx_hal_flash.c **** }
 485:../../core/ST/STM32L4xx_HAL_Driver/Src/stm32l4xx_hal_flash.c **** 
 486:../../core/ST/STM32L4xx_HAL_Driver/Src/stm32l4xx_hal_flash.c **** /**
 487:../../core/ST/STM32L4xx_HAL_Driver/Src/stm32l4xx_hal_flash.c ****   * @brief  FLASH operation error interrupt callback.
 488:../../core/ST/STM32L4xx_HAL_Driver/Src/stm32l4xx_hal_flash.c ****   * @param  ReturnValue: The value saved in this parameter depends on the ongoing procedure
ARM GAS  /tmp/ccvegzZU.s 			page 10


 489:../../core/ST/STM32L4xx_HAL_Driver/Src/stm32l4xx_hal_flash.c ****   *                 Mass Erase: Bank number which has been requested to erase
 490:../../core/ST/STM32L4xx_HAL_Driver/Src/stm32l4xx_hal_flash.c ****   *                 Page Erase: Page number which returned an error
 491:../../core/ST/STM32L4xx_HAL_Driver/Src/stm32l4xx_hal_flash.c ****   *                 Program: Address which was selected for data program
 492:../../core/ST/STM32L4xx_HAL_Driver/Src/stm32l4xx_hal_flash.c ****   * @retval None
 493:../../core/ST/STM32L4xx_HAL_Driver/Src/stm32l4xx_hal_flash.c ****   */
 494:../../core/ST/STM32L4xx_HAL_Driver/Src/stm32l4xx_hal_flash.c **** __weak void HAL_FLASH_OperationErrorCallback(uint32_t ReturnValue)
 495:../../core/ST/STM32L4xx_HAL_Driver/Src/stm32l4xx_hal_flash.c **** {
 496:../../core/ST/STM32L4xx_HAL_Driver/Src/stm32l4xx_hal_flash.c ****   /* Prevent unused argument(s) compilation warning */
 497:../../core/ST/STM32L4xx_HAL_Driver/Src/stm32l4xx_hal_flash.c ****   UNUSED(ReturnValue);
 498:../../core/ST/STM32L4xx_HAL_Driver/Src/stm32l4xx_hal_flash.c **** 
 499:../../core/ST/STM32L4xx_HAL_Driver/Src/stm32l4xx_hal_flash.c ****   /* NOTE : This function should not be modified, when the callback is needed,
 500:../../core/ST/STM32L4xx_HAL_Driver/Src/stm32l4xx_hal_flash.c ****             the HAL_FLASH_OperationErrorCallback could be implemented in the user file
 501:../../core/ST/STM32L4xx_HAL_Driver/Src/stm32l4xx_hal_flash.c ****    */
 502:../../core/ST/STM32L4xx_HAL_Driver/Src/stm32l4xx_hal_flash.c **** }
 503:../../core/ST/STM32L4xx_HAL_Driver/Src/stm32l4xx_hal_flash.c **** 
 504:../../core/ST/STM32L4xx_HAL_Driver/Src/stm32l4xx_hal_flash.c **** /**
 505:../../core/ST/STM32L4xx_HAL_Driver/Src/stm32l4xx_hal_flash.c ****   * @}
 506:../../core/ST/STM32L4xx_HAL_Driver/Src/stm32l4xx_hal_flash.c ****   */
 507:../../core/ST/STM32L4xx_HAL_Driver/Src/stm32l4xx_hal_flash.c **** 
 508:../../core/ST/STM32L4xx_HAL_Driver/Src/stm32l4xx_hal_flash.c **** /** @defgroup FLASH_Exported_Functions_Group2 Peripheral Control functions
 509:../../core/ST/STM32L4xx_HAL_Driver/Src/stm32l4xx_hal_flash.c ****  *  @brief   Management functions
 510:../../core/ST/STM32L4xx_HAL_Driver/Src/stm32l4xx_hal_flash.c ****  *
 511:../../core/ST/STM32L4xx_HAL_Driver/Src/stm32l4xx_hal_flash.c **** @verbatim
 512:../../core/ST/STM32L4xx_HAL_Driver/Src/stm32l4xx_hal_flash.c ****  ===============================================================================
 513:../../core/ST/STM32L4xx_HAL_Driver/Src/stm32l4xx_hal_flash.c ****                       ##### Peripheral Control functions #####
 514:../../core/ST/STM32L4xx_HAL_Driver/Src/stm32l4xx_hal_flash.c ****  ===============================================================================
 515:../../core/ST/STM32L4xx_HAL_Driver/Src/stm32l4xx_hal_flash.c ****     [..]
 516:../../core/ST/STM32L4xx_HAL_Driver/Src/stm32l4xx_hal_flash.c ****     This subsection provides a set of functions allowing to control the FLASH
 517:../../core/ST/STM32L4xx_HAL_Driver/Src/stm32l4xx_hal_flash.c ****     memory operations.
 518:../../core/ST/STM32L4xx_HAL_Driver/Src/stm32l4xx_hal_flash.c **** 
 519:../../core/ST/STM32L4xx_HAL_Driver/Src/stm32l4xx_hal_flash.c **** @endverbatim
 520:../../core/ST/STM32L4xx_HAL_Driver/Src/stm32l4xx_hal_flash.c ****   * @{
 521:../../core/ST/STM32L4xx_HAL_Driver/Src/stm32l4xx_hal_flash.c ****   */
 522:../../core/ST/STM32L4xx_HAL_Driver/Src/stm32l4xx_hal_flash.c **** 
 523:../../core/ST/STM32L4xx_HAL_Driver/Src/stm32l4xx_hal_flash.c **** /**
 524:../../core/ST/STM32L4xx_HAL_Driver/Src/stm32l4xx_hal_flash.c ****   * @brief  Unlock the FLASH control register access.
 525:../../core/ST/STM32L4xx_HAL_Driver/Src/stm32l4xx_hal_flash.c ****   * @retval HAL Status
 526:../../core/ST/STM32L4xx_HAL_Driver/Src/stm32l4xx_hal_flash.c ****   */
 527:../../core/ST/STM32L4xx_HAL_Driver/Src/stm32l4xx_hal_flash.c **** HAL_StatusTypeDef HAL_FLASH_Unlock(void)
 528:../../core/ST/STM32L4xx_HAL_Driver/Src/stm32l4xx_hal_flash.c **** {
 529:../../core/ST/STM32L4xx_HAL_Driver/Src/stm32l4xx_hal_flash.c ****   HAL_StatusTypeDef status = HAL_OK;
 530:../../core/ST/STM32L4xx_HAL_Driver/Src/stm32l4xx_hal_flash.c **** 
 531:../../core/ST/STM32L4xx_HAL_Driver/Src/stm32l4xx_hal_flash.c ****   if(READ_BIT(FLASH->CR, FLASH_CR_LOCK) != 0U)
 532:../../core/ST/STM32L4xx_HAL_Driver/Src/stm32l4xx_hal_flash.c ****   {
 533:../../core/ST/STM32L4xx_HAL_Driver/Src/stm32l4xx_hal_flash.c ****     /* Authorize the FLASH Registers access */
 534:../../core/ST/STM32L4xx_HAL_Driver/Src/stm32l4xx_hal_flash.c ****     WRITE_REG(FLASH->KEYR, FLASH_KEY1);
 535:../../core/ST/STM32L4xx_HAL_Driver/Src/stm32l4xx_hal_flash.c ****     WRITE_REG(FLASH->KEYR, FLASH_KEY2);
 536:../../core/ST/STM32L4xx_HAL_Driver/Src/stm32l4xx_hal_flash.c **** 
 537:../../core/ST/STM32L4xx_HAL_Driver/Src/stm32l4xx_hal_flash.c ****     /* Verify Flash is unlocked */
 538:../../core/ST/STM32L4xx_HAL_Driver/Src/stm32l4xx_hal_flash.c ****     if(READ_BIT(FLASH->CR, FLASH_CR_LOCK) != 0U)
 539:../../core/ST/STM32L4xx_HAL_Driver/Src/stm32l4xx_hal_flash.c ****     {
 540:../../core/ST/STM32L4xx_HAL_Driver/Src/stm32l4xx_hal_flash.c ****       status = HAL_ERROR;
 541:../../core/ST/STM32L4xx_HAL_Driver/Src/stm32l4xx_hal_flash.c ****     }
 542:../../core/ST/STM32L4xx_HAL_Driver/Src/stm32l4xx_hal_flash.c ****   }
 543:../../core/ST/STM32L4xx_HAL_Driver/Src/stm32l4xx_hal_flash.c **** 
 544:../../core/ST/STM32L4xx_HAL_Driver/Src/stm32l4xx_hal_flash.c ****   return status;
 545:../../core/ST/STM32L4xx_HAL_Driver/Src/stm32l4xx_hal_flash.c **** }
ARM GAS  /tmp/ccvegzZU.s 			page 11


 546:../../core/ST/STM32L4xx_HAL_Driver/Src/stm32l4xx_hal_flash.c **** 
 547:../../core/ST/STM32L4xx_HAL_Driver/Src/stm32l4xx_hal_flash.c **** /**
 548:../../core/ST/STM32L4xx_HAL_Driver/Src/stm32l4xx_hal_flash.c ****   * @brief  Lock the FLASH control register access.
 549:../../core/ST/STM32L4xx_HAL_Driver/Src/stm32l4xx_hal_flash.c ****   * @retval HAL Status
 550:../../core/ST/STM32L4xx_HAL_Driver/Src/stm32l4xx_hal_flash.c ****   */
 551:../../core/ST/STM32L4xx_HAL_Driver/Src/stm32l4xx_hal_flash.c **** HAL_StatusTypeDef HAL_FLASH_Lock(void)
 552:../../core/ST/STM32L4xx_HAL_Driver/Src/stm32l4xx_hal_flash.c **** {
 553:../../core/ST/STM32L4xx_HAL_Driver/Src/stm32l4xx_hal_flash.c ****   /* Set the LOCK Bit to lock the FLASH Registers access */
 554:../../core/ST/STM32L4xx_HAL_Driver/Src/stm32l4xx_hal_flash.c ****   SET_BIT(FLASH->CR, FLASH_CR_LOCK);
 555:../../core/ST/STM32L4xx_HAL_Driver/Src/stm32l4xx_hal_flash.c **** 
 556:../../core/ST/STM32L4xx_HAL_Driver/Src/stm32l4xx_hal_flash.c ****   return HAL_OK;
 557:../../core/ST/STM32L4xx_HAL_Driver/Src/stm32l4xx_hal_flash.c **** }
 558:../../core/ST/STM32L4xx_HAL_Driver/Src/stm32l4xx_hal_flash.c **** 
 559:../../core/ST/STM32L4xx_HAL_Driver/Src/stm32l4xx_hal_flash.c **** /**
 560:../../core/ST/STM32L4xx_HAL_Driver/Src/stm32l4xx_hal_flash.c ****   * @brief  Unlock the FLASH Option Bytes Registers access.
 561:../../core/ST/STM32L4xx_HAL_Driver/Src/stm32l4xx_hal_flash.c ****   * @retval HAL Status
 562:../../core/ST/STM32L4xx_HAL_Driver/Src/stm32l4xx_hal_flash.c ****   */
 563:../../core/ST/STM32L4xx_HAL_Driver/Src/stm32l4xx_hal_flash.c **** HAL_StatusTypeDef HAL_FLASH_OB_Unlock(void)
 564:../../core/ST/STM32L4xx_HAL_Driver/Src/stm32l4xx_hal_flash.c **** {
 565:../../core/ST/STM32L4xx_HAL_Driver/Src/stm32l4xx_hal_flash.c ****   if(READ_BIT(FLASH->CR, FLASH_CR_OPTLOCK) != 0U)
 566:../../core/ST/STM32L4xx_HAL_Driver/Src/stm32l4xx_hal_flash.c ****   {
 567:../../core/ST/STM32L4xx_HAL_Driver/Src/stm32l4xx_hal_flash.c ****     /* Authorizes the Option Byte register programming */
 568:../../core/ST/STM32L4xx_HAL_Driver/Src/stm32l4xx_hal_flash.c ****     WRITE_REG(FLASH->OPTKEYR, FLASH_OPTKEY1);
 569:../../core/ST/STM32L4xx_HAL_Driver/Src/stm32l4xx_hal_flash.c ****     WRITE_REG(FLASH->OPTKEYR, FLASH_OPTKEY2);
 570:../../core/ST/STM32L4xx_HAL_Driver/Src/stm32l4xx_hal_flash.c ****   }
 571:../../core/ST/STM32L4xx_HAL_Driver/Src/stm32l4xx_hal_flash.c ****   else
 572:../../core/ST/STM32L4xx_HAL_Driver/Src/stm32l4xx_hal_flash.c ****   {
 573:../../core/ST/STM32L4xx_HAL_Driver/Src/stm32l4xx_hal_flash.c ****     return HAL_ERROR;
 574:../../core/ST/STM32L4xx_HAL_Driver/Src/stm32l4xx_hal_flash.c ****   }
 575:../../core/ST/STM32L4xx_HAL_Driver/Src/stm32l4xx_hal_flash.c **** 
 576:../../core/ST/STM32L4xx_HAL_Driver/Src/stm32l4xx_hal_flash.c ****   return HAL_OK;
 577:../../core/ST/STM32L4xx_HAL_Driver/Src/stm32l4xx_hal_flash.c **** }
 578:../../core/ST/STM32L4xx_HAL_Driver/Src/stm32l4xx_hal_flash.c **** 
 579:../../core/ST/STM32L4xx_HAL_Driver/Src/stm32l4xx_hal_flash.c **** /**
 580:../../core/ST/STM32L4xx_HAL_Driver/Src/stm32l4xx_hal_flash.c ****   * @brief  Lock the FLASH Option Bytes Registers access.
 581:../../core/ST/STM32L4xx_HAL_Driver/Src/stm32l4xx_hal_flash.c ****   * @retval HAL Status
 582:../../core/ST/STM32L4xx_HAL_Driver/Src/stm32l4xx_hal_flash.c ****   */
 583:../../core/ST/STM32L4xx_HAL_Driver/Src/stm32l4xx_hal_flash.c **** HAL_StatusTypeDef HAL_FLASH_OB_Lock(void)
 584:../../core/ST/STM32L4xx_HAL_Driver/Src/stm32l4xx_hal_flash.c **** {
 585:../../core/ST/STM32L4xx_HAL_Driver/Src/stm32l4xx_hal_flash.c ****   /* Set the OPTLOCK Bit to lock the FLASH Option Byte Registers access */
 586:../../core/ST/STM32L4xx_HAL_Driver/Src/stm32l4xx_hal_flash.c ****   SET_BIT(FLASH->CR, FLASH_CR_OPTLOCK);
 587:../../core/ST/STM32L4xx_HAL_Driver/Src/stm32l4xx_hal_flash.c **** 
 588:../../core/ST/STM32L4xx_HAL_Driver/Src/stm32l4xx_hal_flash.c ****   return HAL_OK;
 589:../../core/ST/STM32L4xx_HAL_Driver/Src/stm32l4xx_hal_flash.c **** }
 590:../../core/ST/STM32L4xx_HAL_Driver/Src/stm32l4xx_hal_flash.c **** 
 591:../../core/ST/STM32L4xx_HAL_Driver/Src/stm32l4xx_hal_flash.c **** /**
 592:../../core/ST/STM32L4xx_HAL_Driver/Src/stm32l4xx_hal_flash.c ****   * @brief  Launch the option byte loading.
 593:../../core/ST/STM32L4xx_HAL_Driver/Src/stm32l4xx_hal_flash.c ****   * @retval HAL Status
 594:../../core/ST/STM32L4xx_HAL_Driver/Src/stm32l4xx_hal_flash.c ****   */
 595:../../core/ST/STM32L4xx_HAL_Driver/Src/stm32l4xx_hal_flash.c **** HAL_StatusTypeDef HAL_FLASH_OB_Launch(void)
 596:../../core/ST/STM32L4xx_HAL_Driver/Src/stm32l4xx_hal_flash.c **** {
 597:../../core/ST/STM32L4xx_HAL_Driver/Src/stm32l4xx_hal_flash.c ****   /* Set the bit to force the option byte reloading */
 598:../../core/ST/STM32L4xx_HAL_Driver/Src/stm32l4xx_hal_flash.c ****   SET_BIT(FLASH->CR, FLASH_CR_OBL_LAUNCH);
 599:../../core/ST/STM32L4xx_HAL_Driver/Src/stm32l4xx_hal_flash.c **** 
 600:../../core/ST/STM32L4xx_HAL_Driver/Src/stm32l4xx_hal_flash.c ****   /* Wait for last operation to be completed */
 601:../../core/ST/STM32L4xx_HAL_Driver/Src/stm32l4xx_hal_flash.c ****   return(FLASH_WaitForLastOperation((uint32_t)FLASH_TIMEOUT_VALUE));
 602:../../core/ST/STM32L4xx_HAL_Driver/Src/stm32l4xx_hal_flash.c **** }
ARM GAS  /tmp/ccvegzZU.s 			page 12


 603:../../core/ST/STM32L4xx_HAL_Driver/Src/stm32l4xx_hal_flash.c **** 
 604:../../core/ST/STM32L4xx_HAL_Driver/Src/stm32l4xx_hal_flash.c **** /**
 605:../../core/ST/STM32L4xx_HAL_Driver/Src/stm32l4xx_hal_flash.c ****   * @}
 606:../../core/ST/STM32L4xx_HAL_Driver/Src/stm32l4xx_hal_flash.c ****   */
 607:../../core/ST/STM32L4xx_HAL_Driver/Src/stm32l4xx_hal_flash.c **** 
 608:../../core/ST/STM32L4xx_HAL_Driver/Src/stm32l4xx_hal_flash.c **** /** @defgroup FLASH_Exported_Functions_Group3 Peripheral State and Errors functions
 609:../../core/ST/STM32L4xx_HAL_Driver/Src/stm32l4xx_hal_flash.c ****  *  @brief   Peripheral Errors functions
 610:../../core/ST/STM32L4xx_HAL_Driver/Src/stm32l4xx_hal_flash.c ****  *
 611:../../core/ST/STM32L4xx_HAL_Driver/Src/stm32l4xx_hal_flash.c **** @verbatim
 612:../../core/ST/STM32L4xx_HAL_Driver/Src/stm32l4xx_hal_flash.c ****  ===============================================================================
 613:../../core/ST/STM32L4xx_HAL_Driver/Src/stm32l4xx_hal_flash.c ****                 ##### Peripheral Errors functions #####
 614:../../core/ST/STM32L4xx_HAL_Driver/Src/stm32l4xx_hal_flash.c ****  ===============================================================================
 615:../../core/ST/STM32L4xx_HAL_Driver/Src/stm32l4xx_hal_flash.c ****     [..]
 616:../../core/ST/STM32L4xx_HAL_Driver/Src/stm32l4xx_hal_flash.c ****     This subsection permits to get in run-time Errors of the FLASH peripheral.
 617:../../core/ST/STM32L4xx_HAL_Driver/Src/stm32l4xx_hal_flash.c **** 
 618:../../core/ST/STM32L4xx_HAL_Driver/Src/stm32l4xx_hal_flash.c **** @endverbatim
 619:../../core/ST/STM32L4xx_HAL_Driver/Src/stm32l4xx_hal_flash.c ****   * @{
 620:../../core/ST/STM32L4xx_HAL_Driver/Src/stm32l4xx_hal_flash.c ****   */
 621:../../core/ST/STM32L4xx_HAL_Driver/Src/stm32l4xx_hal_flash.c **** 
 622:../../core/ST/STM32L4xx_HAL_Driver/Src/stm32l4xx_hal_flash.c **** /**
 623:../../core/ST/STM32L4xx_HAL_Driver/Src/stm32l4xx_hal_flash.c ****   * @brief  Get the specific FLASH error flag.
 624:../../core/ST/STM32L4xx_HAL_Driver/Src/stm32l4xx_hal_flash.c ****   * @retval FLASH_ErrorCode: The returned value can be:
 625:../../core/ST/STM32L4xx_HAL_Driver/Src/stm32l4xx_hal_flash.c ****   *            @arg HAL_FLASH_ERROR_RD: FLASH Read Protection error flag (PCROP)
 626:../../core/ST/STM32L4xx_HAL_Driver/Src/stm32l4xx_hal_flash.c ****   *            @arg HAL_FLASH_ERROR_PGS: FLASH Programming Sequence error flag
 627:../../core/ST/STM32L4xx_HAL_Driver/Src/stm32l4xx_hal_flash.c ****   *            @arg HAL_FLASH_ERROR_PGP: FLASH Programming Parallelism error flag
 628:../../core/ST/STM32L4xx_HAL_Driver/Src/stm32l4xx_hal_flash.c ****   *            @arg HAL_FLASH_ERROR_PGA: FLASH Programming Alignment error flag
 629:../../core/ST/STM32L4xx_HAL_Driver/Src/stm32l4xx_hal_flash.c ****   *            @arg HAL_FLASH_ERROR_WRP: FLASH Write protected error flag
 630:../../core/ST/STM32L4xx_HAL_Driver/Src/stm32l4xx_hal_flash.c ****   *            @arg HAL_FLASH_ERROR_OPERATION: FLASH operation Error flag
 631:../../core/ST/STM32L4xx_HAL_Driver/Src/stm32l4xx_hal_flash.c ****   *            @arg HAL_FLASH_ERROR_NONE: No error set
 632:../../core/ST/STM32L4xx_HAL_Driver/Src/stm32l4xx_hal_flash.c ****   *            @arg HAL_FLASH_ERROR_OP: FLASH Operation error
 633:../../core/ST/STM32L4xx_HAL_Driver/Src/stm32l4xx_hal_flash.c ****   *            @arg HAL_FLASH_ERROR_PROG: FLASH Programming error
 634:../../core/ST/STM32L4xx_HAL_Driver/Src/stm32l4xx_hal_flash.c ****   *            @arg HAL_FLASH_ERROR_WRP: FLASH Write protection error
 635:../../core/ST/STM32L4xx_HAL_Driver/Src/stm32l4xx_hal_flash.c ****   *            @arg HAL_FLASH_ERROR_PGA: FLASH Programming alignment error
 636:../../core/ST/STM32L4xx_HAL_Driver/Src/stm32l4xx_hal_flash.c ****   *            @arg HAL_FLASH_ERROR_SIZ: FLASH Size error
 637:../../core/ST/STM32L4xx_HAL_Driver/Src/stm32l4xx_hal_flash.c ****   *            @arg HAL_FLASH_ERROR_PGS: FLASH Programming sequence error
 638:../../core/ST/STM32L4xx_HAL_Driver/Src/stm32l4xx_hal_flash.c ****   *            @arg HAL_FLASH_ERROR_MIS: FLASH Fast programming data miss error
 639:../../core/ST/STM32L4xx_HAL_Driver/Src/stm32l4xx_hal_flash.c ****   *            @arg HAL_FLASH_ERROR_FAST: FLASH Fast programming error
 640:../../core/ST/STM32L4xx_HAL_Driver/Src/stm32l4xx_hal_flash.c ****   *            @arg HAL_FLASH_ERROR_RD: FLASH PCROP read error
 641:../../core/ST/STM32L4xx_HAL_Driver/Src/stm32l4xx_hal_flash.c ****   *            @arg HAL_FLASH_ERROR_OPTV: FLASH Option validity error
 642:../../core/ST/STM32L4xx_HAL_Driver/Src/stm32l4xx_hal_flash.c ****   *            @arg FLASH_FLAG_PEMPTY : FLASH Boot from not programmed flash (apply only for STM32L
 643:../../core/ST/STM32L4xx_HAL_Driver/Src/stm32l4xx_hal_flash.c ****   *            @arg HAL_FLASH_ERROR_ECCD: FLASH two ECC errors have been detected
 644:../../core/ST/STM32L4xx_HAL_Driver/Src/stm32l4xx_hal_flash.c ****   */
 645:../../core/ST/STM32L4xx_HAL_Driver/Src/stm32l4xx_hal_flash.c **** uint32_t HAL_FLASH_GetError(void)
 646:../../core/ST/STM32L4xx_HAL_Driver/Src/stm32l4xx_hal_flash.c **** {
 647:../../core/ST/STM32L4xx_HAL_Driver/Src/stm32l4xx_hal_flash.c ****    return pFlash.ErrorCode;
 648:../../core/ST/STM32L4xx_HAL_Driver/Src/stm32l4xx_hal_flash.c **** }
 649:../../core/ST/STM32L4xx_HAL_Driver/Src/stm32l4xx_hal_flash.c **** 
 650:../../core/ST/STM32L4xx_HAL_Driver/Src/stm32l4xx_hal_flash.c **** /**
 651:../../core/ST/STM32L4xx_HAL_Driver/Src/stm32l4xx_hal_flash.c ****   * @}
 652:../../core/ST/STM32L4xx_HAL_Driver/Src/stm32l4xx_hal_flash.c ****   */
 653:../../core/ST/STM32L4xx_HAL_Driver/Src/stm32l4xx_hal_flash.c **** 
 654:../../core/ST/STM32L4xx_HAL_Driver/Src/stm32l4xx_hal_flash.c **** /**
 655:../../core/ST/STM32L4xx_HAL_Driver/Src/stm32l4xx_hal_flash.c ****   * @}
 656:../../core/ST/STM32L4xx_HAL_Driver/Src/stm32l4xx_hal_flash.c ****   */
 657:../../core/ST/STM32L4xx_HAL_Driver/Src/stm32l4xx_hal_flash.c **** 
 658:../../core/ST/STM32L4xx_HAL_Driver/Src/stm32l4xx_hal_flash.c **** /* Private functions ---------------------------------------------------------*/
 659:../../core/ST/STM32L4xx_HAL_Driver/Src/stm32l4xx_hal_flash.c **** 
ARM GAS  /tmp/ccvegzZU.s 			page 13


 660:../../core/ST/STM32L4xx_HAL_Driver/Src/stm32l4xx_hal_flash.c **** /** @addtogroup FLASH_Private_Functions
 661:../../core/ST/STM32L4xx_HAL_Driver/Src/stm32l4xx_hal_flash.c ****   * @{
 662:../../core/ST/STM32L4xx_HAL_Driver/Src/stm32l4xx_hal_flash.c ****   */
 663:../../core/ST/STM32L4xx_HAL_Driver/Src/stm32l4xx_hal_flash.c **** 
 664:../../core/ST/STM32L4xx_HAL_Driver/Src/stm32l4xx_hal_flash.c **** /**
 665:../../core/ST/STM32L4xx_HAL_Driver/Src/stm32l4xx_hal_flash.c ****   * @brief  Wait for a FLASH operation to complete.
 666:../../core/ST/STM32L4xx_HAL_Driver/Src/stm32l4xx_hal_flash.c ****   * @param  Timeout: maximum flash operation timeout
 667:../../core/ST/STM32L4xx_HAL_Driver/Src/stm32l4xx_hal_flash.c ****   * @retval HAL_StatusTypeDef HAL Status
 668:../../core/ST/STM32L4xx_HAL_Driver/Src/stm32l4xx_hal_flash.c ****   */
 669:../../core/ST/STM32L4xx_HAL_Driver/Src/stm32l4xx_hal_flash.c **** HAL_StatusTypeDef FLASH_WaitForLastOperation(uint32_t Timeout)
 670:../../core/ST/STM32L4xx_HAL_Driver/Src/stm32l4xx_hal_flash.c **** {
 671:../../core/ST/STM32L4xx_HAL_Driver/Src/stm32l4xx_hal_flash.c ****   /* Wait for the FLASH operation to complete by polling on BUSY flag to be reset.
 672:../../core/ST/STM32L4xx_HAL_Driver/Src/stm32l4xx_hal_flash.c ****      Even if the FLASH operation fails, the BUSY flag will be reset and an error
 673:../../core/ST/STM32L4xx_HAL_Driver/Src/stm32l4xx_hal_flash.c ****      flag will be set */
 674:../../core/ST/STM32L4xx_HAL_Driver/Src/stm32l4xx_hal_flash.c **** 
 675:../../core/ST/STM32L4xx_HAL_Driver/Src/stm32l4xx_hal_flash.c ****   uint32_t tickstart = HAL_GetTick();
 676:../../core/ST/STM32L4xx_HAL_Driver/Src/stm32l4xx_hal_flash.c ****   uint32_t error;
 677:../../core/ST/STM32L4xx_HAL_Driver/Src/stm32l4xx_hal_flash.c **** 
 678:../../core/ST/STM32L4xx_HAL_Driver/Src/stm32l4xx_hal_flash.c ****   while(__HAL_FLASH_GET_FLAG(FLASH_FLAG_BSY))
 679:../../core/ST/STM32L4xx_HAL_Driver/Src/stm32l4xx_hal_flash.c ****   {
 680:../../core/ST/STM32L4xx_HAL_Driver/Src/stm32l4xx_hal_flash.c ****     if(Timeout != HAL_MAX_DELAY)
 681:../../core/ST/STM32L4xx_HAL_Driver/Src/stm32l4xx_hal_flash.c ****     {
 682:../../core/ST/STM32L4xx_HAL_Driver/Src/stm32l4xx_hal_flash.c ****       if((HAL_GetTick() - tickstart) >= Timeout)
 683:../../core/ST/STM32L4xx_HAL_Driver/Src/stm32l4xx_hal_flash.c ****       {
 684:../../core/ST/STM32L4xx_HAL_Driver/Src/stm32l4xx_hal_flash.c ****         return HAL_TIMEOUT;
 685:../../core/ST/STM32L4xx_HAL_Driver/Src/stm32l4xx_hal_flash.c ****       }
 686:../../core/ST/STM32L4xx_HAL_Driver/Src/stm32l4xx_hal_flash.c ****     }
 687:../../core/ST/STM32L4xx_HAL_Driver/Src/stm32l4xx_hal_flash.c ****   }
 688:../../core/ST/STM32L4xx_HAL_Driver/Src/stm32l4xx_hal_flash.c **** 
 689:../../core/ST/STM32L4xx_HAL_Driver/Src/stm32l4xx_hal_flash.c ****   error = (FLASH->SR & FLASH_FLAG_SR_ERRORS);
 690:../../core/ST/STM32L4xx_HAL_Driver/Src/stm32l4xx_hal_flash.c ****   error |= (FLASH->ECCR & FLASH_FLAG_ECCD);
 691:../../core/ST/STM32L4xx_HAL_Driver/Src/stm32l4xx_hal_flash.c **** 
 692:../../core/ST/STM32L4xx_HAL_Driver/Src/stm32l4xx_hal_flash.c ****   if(error != 0u)
 693:../../core/ST/STM32L4xx_HAL_Driver/Src/stm32l4xx_hal_flash.c ****   {
 694:../../core/ST/STM32L4xx_HAL_Driver/Src/stm32l4xx_hal_flash.c ****     /*Save the error code*/
 695:../../core/ST/STM32L4xx_HAL_Driver/Src/stm32l4xx_hal_flash.c ****     pFlash.ErrorCode |= error;
 696:../../core/ST/STM32L4xx_HAL_Driver/Src/stm32l4xx_hal_flash.c **** 
 697:../../core/ST/STM32L4xx_HAL_Driver/Src/stm32l4xx_hal_flash.c ****     /* Clear error programming flags */
 698:../../core/ST/STM32L4xx_HAL_Driver/Src/stm32l4xx_hal_flash.c ****     __HAL_FLASH_CLEAR_FLAG(error);
 699:../../core/ST/STM32L4xx_HAL_Driver/Src/stm32l4xx_hal_flash.c **** 
 700:../../core/ST/STM32L4xx_HAL_Driver/Src/stm32l4xx_hal_flash.c ****     return HAL_ERROR;
 701:../../core/ST/STM32L4xx_HAL_Driver/Src/stm32l4xx_hal_flash.c ****   }
 702:../../core/ST/STM32L4xx_HAL_Driver/Src/stm32l4xx_hal_flash.c **** 
 703:../../core/ST/STM32L4xx_HAL_Driver/Src/stm32l4xx_hal_flash.c ****   /* Check FLASH End of Operation flag  */
 704:../../core/ST/STM32L4xx_HAL_Driver/Src/stm32l4xx_hal_flash.c ****   if (__HAL_FLASH_GET_FLAG(FLASH_FLAG_EOP))
 705:../../core/ST/STM32L4xx_HAL_Driver/Src/stm32l4xx_hal_flash.c ****   {
 706:../../core/ST/STM32L4xx_HAL_Driver/Src/stm32l4xx_hal_flash.c ****     /* Clear FLASH End of Operation pending bit */
 707:../../core/ST/STM32L4xx_HAL_Driver/Src/stm32l4xx_hal_flash.c ****     __HAL_FLASH_CLEAR_FLAG(FLASH_FLAG_EOP);
 708:../../core/ST/STM32L4xx_HAL_Driver/Src/stm32l4xx_hal_flash.c ****   }
 709:../../core/ST/STM32L4xx_HAL_Driver/Src/stm32l4xx_hal_flash.c **** 
 710:../../core/ST/STM32L4xx_HAL_Driver/Src/stm32l4xx_hal_flash.c ****   /* If there is an error flag set */
 711:../../core/ST/STM32L4xx_HAL_Driver/Src/stm32l4xx_hal_flash.c ****   return HAL_OK;
 712:../../core/ST/STM32L4xx_HAL_Driver/Src/stm32l4xx_hal_flash.c **** }
 713:../../core/ST/STM32L4xx_HAL_Driver/Src/stm32l4xx_hal_flash.c **** 
 714:../../core/ST/STM32L4xx_HAL_Driver/Src/stm32l4xx_hal_flash.c **** /**
 715:../../core/ST/STM32L4xx_HAL_Driver/Src/stm32l4xx_hal_flash.c ****   * @brief  Program double-word (64-bit) at a specified address.
 716:../../core/ST/STM32L4xx_HAL_Driver/Src/stm32l4xx_hal_flash.c ****   * @param  Address: specifies the address to be programmed.
ARM GAS  /tmp/ccvegzZU.s 			page 14


 717:../../core/ST/STM32L4xx_HAL_Driver/Src/stm32l4xx_hal_flash.c ****   * @param  Data: specifies the data to be programmed.
 718:../../core/ST/STM32L4xx_HAL_Driver/Src/stm32l4xx_hal_flash.c ****   * @retval None
 719:../../core/ST/STM32L4xx_HAL_Driver/Src/stm32l4xx_hal_flash.c ****   */
 720:../../core/ST/STM32L4xx_HAL_Driver/Src/stm32l4xx_hal_flash.c **** static void FLASH_Program_DoubleWord(uint32_t Address, uint64_t Data)
 721:../../core/ST/STM32L4xx_HAL_Driver/Src/stm32l4xx_hal_flash.c **** {
  27              		.loc 1 721 0
  28              		.cfi_startproc
  29              		@ args = 0, pretend = 0, frame = 0
  30              		@ frame_needed = 0, uses_anonymous_args = 0
  31              		@ link register save eliminated.
  32              	.LVL0:
  33 0000 10B4     		push	{r4}
  34              	.LCFI0:
  35              		.cfi_def_cfa_offset 4
  36              		.cfi_offset 4, -4
 722:../../core/ST/STM32L4xx_HAL_Driver/Src/stm32l4xx_hal_flash.c ****   /* Check the parameters */
 723:../../core/ST/STM32L4xx_HAL_Driver/Src/stm32l4xx_hal_flash.c ****   assert_param(IS_FLASH_PROGRAM_ADDRESS(Address));
 724:../../core/ST/STM32L4xx_HAL_Driver/Src/stm32l4xx_hal_flash.c **** 
 725:../../core/ST/STM32L4xx_HAL_Driver/Src/stm32l4xx_hal_flash.c ****   /* Set PG bit */
 726:../../core/ST/STM32L4xx_HAL_Driver/Src/stm32l4xx_hal_flash.c ****   SET_BIT(FLASH->CR, FLASH_CR_PG);
  37              		.loc 1 726 0
  38 0002 054C     		ldr	r4, .L3
  39 0004 6169     		ldr	r1, [r4, #20]
  40 0006 41F00101 		orr	r1, r1, #1
  41 000a 6161     		str	r1, [r4, #20]
 727:../../core/ST/STM32L4xx_HAL_Driver/Src/stm32l4xx_hal_flash.c **** 
 728:../../core/ST/STM32L4xx_HAL_Driver/Src/stm32l4xx_hal_flash.c ****   /* Program the double word */
 729:../../core/ST/STM32L4xx_HAL_Driver/Src/stm32l4xx_hal_flash.c ****   *(__IO uint32_t*)Address = (uint32_t)Data;
  42              		.loc 1 729 0
  43 000c 0260     		str	r2, [r0]
 730:../../core/ST/STM32L4xx_HAL_Driver/Src/stm32l4xx_hal_flash.c ****   *(__IO uint32_t*)(Address+4U) = (uint32_t)(Data >> 32);
  44              		.loc 1 730 0
  45 000e 4360     		str	r3, [r0, #4]
 731:../../core/ST/STM32L4xx_HAL_Driver/Src/stm32l4xx_hal_flash.c **** }
  46              		.loc 1 731 0
  47 0010 5DF8044B 		ldr	r4, [sp], #4
  48              	.LCFI1:
  49              		.cfi_restore 4
  50              		.cfi_def_cfa_offset 0
  51 0014 7047     		bx	lr
  52              	.L4:
  53 0016 00BF     		.align	2
  54              	.L3:
  55 0018 00200240 		.word	1073881088
  56              		.cfi_endproc
  57              	.LFE135:
  59              		.section	.text.FLASH_Program_Fast,"ax",%progbits
  60              		.align	1
  61              		.syntax unified
  62              		.thumb
  63              		.thumb_func
  64              		.fpu fpv4-sp-d16
  66              	FLASH_Program_Fast:
  67              	.LFB136:
 732:../../core/ST/STM32L4xx_HAL_Driver/Src/stm32l4xx_hal_flash.c **** 
 733:../../core/ST/STM32L4xx_HAL_Driver/Src/stm32l4xx_hal_flash.c **** /**
 734:../../core/ST/STM32L4xx_HAL_Driver/Src/stm32l4xx_hal_flash.c ****   * @brief  Fast program a row double-word (64-bit) at a specified address.
ARM GAS  /tmp/ccvegzZU.s 			page 15


 735:../../core/ST/STM32L4xx_HAL_Driver/Src/stm32l4xx_hal_flash.c ****   * @param  Address: specifies the address to be programmed.
 736:../../core/ST/STM32L4xx_HAL_Driver/Src/stm32l4xx_hal_flash.c ****   * @param  DataAddress: specifies the address where the data are stored.
 737:../../core/ST/STM32L4xx_HAL_Driver/Src/stm32l4xx_hal_flash.c ****   * @retval None
 738:../../core/ST/STM32L4xx_HAL_Driver/Src/stm32l4xx_hal_flash.c ****   */
 739:../../core/ST/STM32L4xx_HAL_Driver/Src/stm32l4xx_hal_flash.c **** static void FLASH_Program_Fast(uint32_t Address, uint32_t DataAddress)
 740:../../core/ST/STM32L4xx_HAL_Driver/Src/stm32l4xx_hal_flash.c **** {
  68              		.loc 1 740 0
  69              		.cfi_startproc
  70              		@ args = 0, pretend = 0, frame = 0
  71              		@ frame_needed = 0, uses_anonymous_args = 0
  72              		@ link register save eliminated.
  73              	.LVL1:
 741:../../core/ST/STM32L4xx_HAL_Driver/Src/stm32l4xx_hal_flash.c ****   uint8_t row_index = (2*FLASH_NB_DOUBLE_WORDS_IN_ROW);
 742:../../core/ST/STM32L4xx_HAL_Driver/Src/stm32l4xx_hal_flash.c ****   __IO uint32_t *dest_addr = (__IO uint32_t*)Address;
 743:../../core/ST/STM32L4xx_HAL_Driver/Src/stm32l4xx_hal_flash.c ****   __IO uint32_t *src_addr = (__IO uint32_t*)DataAddress;
 744:../../core/ST/STM32L4xx_HAL_Driver/Src/stm32l4xx_hal_flash.c **** 
 745:../../core/ST/STM32L4xx_HAL_Driver/Src/stm32l4xx_hal_flash.c ****   /* Check the parameters */
 746:../../core/ST/STM32L4xx_HAL_Driver/Src/stm32l4xx_hal_flash.c ****   assert_param(IS_FLASH_MAIN_MEM_ADDRESS(Address));
 747:../../core/ST/STM32L4xx_HAL_Driver/Src/stm32l4xx_hal_flash.c **** 
 748:../../core/ST/STM32L4xx_HAL_Driver/Src/stm32l4xx_hal_flash.c ****   /* Set FSTPG bit */
 749:../../core/ST/STM32L4xx_HAL_Driver/Src/stm32l4xx_hal_flash.c ****   SET_BIT(FLASH->CR, FLASH_CR_FSTPG);
  74              		.loc 1 749 0
  75 0000 084A     		ldr	r2, .L7
  76 0002 5369     		ldr	r3, [r2, #20]
  77 0004 43F48023 		orr	r3, r3, #262144
  78 0008 5361     		str	r3, [r2, #20]
  79              	.LBB6:
  80              	.LBB7:
  81              		.file 2 "../../core/ST/CMSIS/Include/cmsis_gcc.h"
   1:../../core/ST/CMSIS/Include/cmsis_gcc.h **** /**************************************************************************//**
   2:../../core/ST/CMSIS/Include/cmsis_gcc.h ****  * @file     cmsis_gcc.h
   3:../../core/ST/CMSIS/Include/cmsis_gcc.h ****  * @brief    CMSIS Cortex-M Core Function/Instruction Header File
   4:../../core/ST/CMSIS/Include/cmsis_gcc.h ****  * @version  V4.30
   5:../../core/ST/CMSIS/Include/cmsis_gcc.h ****  * @date     20. October 2015
   6:../../core/ST/CMSIS/Include/cmsis_gcc.h ****  ******************************************************************************/
   7:../../core/ST/CMSIS/Include/cmsis_gcc.h **** /* Copyright (c) 2009 - 2015 ARM LIMITED
   8:../../core/ST/CMSIS/Include/cmsis_gcc.h **** 
   9:../../core/ST/CMSIS/Include/cmsis_gcc.h ****    All rights reserved.
  10:../../core/ST/CMSIS/Include/cmsis_gcc.h ****    Redistribution and use in source and binary forms, with or without
  11:../../core/ST/CMSIS/Include/cmsis_gcc.h ****    modification, are permitted provided that the following conditions are met:
  12:../../core/ST/CMSIS/Include/cmsis_gcc.h ****    - Redistributions of source code must retain the above copyright
  13:../../core/ST/CMSIS/Include/cmsis_gcc.h ****      notice, this list of conditions and the following disclaimer.
  14:../../core/ST/CMSIS/Include/cmsis_gcc.h ****    - Redistributions in binary form must reproduce the above copyright
  15:../../core/ST/CMSIS/Include/cmsis_gcc.h ****      notice, this list of conditions and the following disclaimer in the
  16:../../core/ST/CMSIS/Include/cmsis_gcc.h ****      documentation and/or other materials provided with the distribution.
  17:../../core/ST/CMSIS/Include/cmsis_gcc.h ****    - Neither the name of ARM nor the names of its contributors may be used
  18:../../core/ST/CMSIS/Include/cmsis_gcc.h ****      to endorse or promote products derived from this software without
  19:../../core/ST/CMSIS/Include/cmsis_gcc.h ****      specific prior written permission.
  20:../../core/ST/CMSIS/Include/cmsis_gcc.h ****    *
  21:../../core/ST/CMSIS/Include/cmsis_gcc.h ****    THIS SOFTWARE IS PROVIDED BY THE COPYRIGHT HOLDERS AND CONTRIBUTORS "AS IS"
  22:../../core/ST/CMSIS/Include/cmsis_gcc.h ****    AND ANY EXPRESS OR IMPLIED WARRANTIES, INCLUDING, BUT NOT LIMITED TO, THE
  23:../../core/ST/CMSIS/Include/cmsis_gcc.h ****    IMPLIED WARRANTIES OF MERCHANTABILITY AND FITNESS FOR A PARTICULAR PURPOSE
  24:../../core/ST/CMSIS/Include/cmsis_gcc.h ****    ARE DISCLAIMED. IN NO EVENT SHALL COPYRIGHT HOLDERS AND CONTRIBUTORS BE
  25:../../core/ST/CMSIS/Include/cmsis_gcc.h ****    LIABLE FOR ANY DIRECT, INDIRECT, INCIDENTAL, SPECIAL, EXEMPLARY, OR
  26:../../core/ST/CMSIS/Include/cmsis_gcc.h ****    CONSEQUENTIAL DAMAGES (INCLUDING, BUT NOT LIMITED TO, PROCUREMENT OF
  27:../../core/ST/CMSIS/Include/cmsis_gcc.h ****    SUBSTITUTE GOODS OR SERVICES; LOSS OF USE, DATA, OR PROFITS; OR BUSINESS
  28:../../core/ST/CMSIS/Include/cmsis_gcc.h ****    INTERRUPTION) HOWEVER CAUSED AND ON ANY THEORY OF LIABILITY, WHETHER IN
ARM GAS  /tmp/ccvegzZU.s 			page 16


  29:../../core/ST/CMSIS/Include/cmsis_gcc.h ****    CONTRACT, STRICT LIABILITY, OR TORT (INCLUDING NEGLIGENCE OR OTHERWISE)
  30:../../core/ST/CMSIS/Include/cmsis_gcc.h ****    ARISING IN ANY WAY OUT OF THE USE OF THIS SOFTWARE, EVEN IF ADVISED OF THE
  31:../../core/ST/CMSIS/Include/cmsis_gcc.h ****    POSSIBILITY OF SUCH DAMAGE.
  32:../../core/ST/CMSIS/Include/cmsis_gcc.h ****    ---------------------------------------------------------------------------*/
  33:../../core/ST/CMSIS/Include/cmsis_gcc.h **** 
  34:../../core/ST/CMSIS/Include/cmsis_gcc.h **** 
  35:../../core/ST/CMSIS/Include/cmsis_gcc.h **** #ifndef __CMSIS_GCC_H
  36:../../core/ST/CMSIS/Include/cmsis_gcc.h **** #define __CMSIS_GCC_H
  37:../../core/ST/CMSIS/Include/cmsis_gcc.h **** 
  38:../../core/ST/CMSIS/Include/cmsis_gcc.h **** /* ignore some GCC warnings */
  39:../../core/ST/CMSIS/Include/cmsis_gcc.h **** #if defined ( __GNUC__ )
  40:../../core/ST/CMSIS/Include/cmsis_gcc.h **** #pragma GCC diagnostic push
  41:../../core/ST/CMSIS/Include/cmsis_gcc.h **** #pragma GCC diagnostic ignored "-Wsign-conversion"
  42:../../core/ST/CMSIS/Include/cmsis_gcc.h **** #pragma GCC diagnostic ignored "-Wconversion"
  43:../../core/ST/CMSIS/Include/cmsis_gcc.h **** #pragma GCC diagnostic ignored "-Wunused-parameter"
  44:../../core/ST/CMSIS/Include/cmsis_gcc.h **** #endif
  45:../../core/ST/CMSIS/Include/cmsis_gcc.h **** 
  46:../../core/ST/CMSIS/Include/cmsis_gcc.h **** 
  47:../../core/ST/CMSIS/Include/cmsis_gcc.h **** /* ###########################  Core Function Access  ########################### */
  48:../../core/ST/CMSIS/Include/cmsis_gcc.h **** /** \ingroup  CMSIS_Core_FunctionInterface
  49:../../core/ST/CMSIS/Include/cmsis_gcc.h ****     \defgroup CMSIS_Core_RegAccFunctions CMSIS Core Register Access Functions
  50:../../core/ST/CMSIS/Include/cmsis_gcc.h ****   @{
  51:../../core/ST/CMSIS/Include/cmsis_gcc.h ****  */
  52:../../core/ST/CMSIS/Include/cmsis_gcc.h **** 
  53:../../core/ST/CMSIS/Include/cmsis_gcc.h **** /**
  54:../../core/ST/CMSIS/Include/cmsis_gcc.h ****   \brief   Enable IRQ Interrupts
  55:../../core/ST/CMSIS/Include/cmsis_gcc.h ****   \details Enables IRQ interrupts by clearing the I-bit in the CPSR.
  56:../../core/ST/CMSIS/Include/cmsis_gcc.h ****            Can only be executed in Privileged modes.
  57:../../core/ST/CMSIS/Include/cmsis_gcc.h ****  */
  58:../../core/ST/CMSIS/Include/cmsis_gcc.h **** __attribute__( ( always_inline ) ) __STATIC_INLINE void __enable_irq(void)
  59:../../core/ST/CMSIS/Include/cmsis_gcc.h **** {
  60:../../core/ST/CMSIS/Include/cmsis_gcc.h ****   __ASM volatile ("cpsie i" : : : "memory");
  61:../../core/ST/CMSIS/Include/cmsis_gcc.h **** }
  62:../../core/ST/CMSIS/Include/cmsis_gcc.h **** 
  63:../../core/ST/CMSIS/Include/cmsis_gcc.h **** 
  64:../../core/ST/CMSIS/Include/cmsis_gcc.h **** /**
  65:../../core/ST/CMSIS/Include/cmsis_gcc.h ****   \brief   Disable IRQ Interrupts
  66:../../core/ST/CMSIS/Include/cmsis_gcc.h ****   \details Disables IRQ interrupts by setting the I-bit in the CPSR.
  67:../../core/ST/CMSIS/Include/cmsis_gcc.h ****   Can only be executed in Privileged modes.
  68:../../core/ST/CMSIS/Include/cmsis_gcc.h ****  */
  69:../../core/ST/CMSIS/Include/cmsis_gcc.h **** __attribute__( ( always_inline ) ) __STATIC_INLINE void __disable_irq(void)
  70:../../core/ST/CMSIS/Include/cmsis_gcc.h **** {
  71:../../core/ST/CMSIS/Include/cmsis_gcc.h ****   __ASM volatile ("cpsid i" : : : "memory");
  82              		.loc 2 71 0
  83              		.syntax unified
  84              	@ 71 "../../core/ST/CMSIS/Include/cmsis_gcc.h" 1
  85 000a 72B6     		cpsid i
  86              	@ 0 "" 2
  87              		.thumb
  88              		.syntax unified
  89              	.LBE7:
  90              	.LBE6:
 741:../../core/ST/STM32L4xx_HAL_Driver/Src/stm32l4xx_hal_flash.c ****   uint8_t row_index = (2*FLASH_NB_DOUBLE_WORDS_IN_ROW);
  91              		.loc 1 741 0
  92 000c 4023     		movs	r3, #64
  93              	.LVL2:
  94              	.L6:
ARM GAS  /tmp/ccvegzZU.s 			page 17


 750:../../core/ST/STM32L4xx_HAL_Driver/Src/stm32l4xx_hal_flash.c **** 
 751:../../core/ST/STM32L4xx_HAL_Driver/Src/stm32l4xx_hal_flash.c ****   /* Disable interrupts to avoid any interruption during the loop */
 752:../../core/ST/STM32L4xx_HAL_Driver/Src/stm32l4xx_hal_flash.c ****   __disable_irq();
 753:../../core/ST/STM32L4xx_HAL_Driver/Src/stm32l4xx_hal_flash.c **** 
 754:../../core/ST/STM32L4xx_HAL_Driver/Src/stm32l4xx_hal_flash.c ****   /* Program the double word of the row */
 755:../../core/ST/STM32L4xx_HAL_Driver/Src/stm32l4xx_hal_flash.c ****   do
 756:../../core/ST/STM32L4xx_HAL_Driver/Src/stm32l4xx_hal_flash.c ****   {
 757:../../core/ST/STM32L4xx_HAL_Driver/Src/stm32l4xx_hal_flash.c ****     *dest_addr = *src_addr;
  95              		.loc 1 757 0 discriminator 1
  96 000e 51F8042B 		ldr	r2, [r1], #4
  97              	.LVL3:
  98 0012 40F8042B 		str	r2, [r0], #4
  99              	.LVL4:
 758:../../core/ST/STM32L4xx_HAL_Driver/Src/stm32l4xx_hal_flash.c ****     dest_addr++;
 759:../../core/ST/STM32L4xx_HAL_Driver/Src/stm32l4xx_hal_flash.c ****     src_addr++;
 760:../../core/ST/STM32L4xx_HAL_Driver/Src/stm32l4xx_hal_flash.c ****     row_index--;
 100              		.loc 1 760 0 discriminator 1
 101 0016 013B     		subs	r3, r3, #1
 102              	.LVL5:
 761:../../core/ST/STM32L4xx_HAL_Driver/Src/stm32l4xx_hal_flash.c ****   } while (row_index != 0U);
 103              		.loc 1 761 0 discriminator 1
 104 0018 13F0FF03 		ands	r3, r3, #255
 105              	.LVL6:
 106 001c F7D1     		bne	.L6
 107              	.LBB8:
 108              	.LBB9:
  60:../../core/ST/CMSIS/Include/cmsis_gcc.h **** }
 109              		.loc 2 60 0
 110              		.syntax unified
 111              	@ 60 "../../core/ST/CMSIS/Include/cmsis_gcc.h" 1
 112 001e 62B6     		cpsie i
 113              	@ 0 "" 2
 114              		.thumb
 115              		.syntax unified
 116              	.LBE9:
 117              	.LBE8:
 762:../../core/ST/STM32L4xx_HAL_Driver/Src/stm32l4xx_hal_flash.c **** 
 763:../../core/ST/STM32L4xx_HAL_Driver/Src/stm32l4xx_hal_flash.c ****   /* Re-enable the interrupts */
 764:../../core/ST/STM32L4xx_HAL_Driver/Src/stm32l4xx_hal_flash.c ****   __enable_irq();
 765:../../core/ST/STM32L4xx_HAL_Driver/Src/stm32l4xx_hal_flash.c **** }
 118              		.loc 1 765 0
 119 0020 7047     		bx	lr
 120              	.L8:
 121 0022 00BF     		.align	2
 122              	.L7:
 123 0024 00200240 		.word	1073881088
 124              		.cfi_endproc
 125              	.LFE136:
 127              		.section	.text.HAL_FLASH_Program_IT,"ax",%progbits
 128              		.align	1
 129              		.global	HAL_FLASH_Program_IT
 130              		.syntax unified
 131              		.thumb
 132              		.thumb_func
 133              		.fpu fpv4-sp-d16
 135              	HAL_FLASH_Program_IT:
 136              	.LFB124:
ARM GAS  /tmp/ccvegzZU.s 			page 18


 274:../../core/ST/STM32L4xx_HAL_Driver/Src/stm32l4xx_hal_flash.c ****   HAL_StatusTypeDef status = HAL_OK;
 137              		.loc 1 274 0
 138              		.cfi_startproc
 139              		@ args = 0, pretend = 0, frame = 0
 140              		@ frame_needed = 0, uses_anonymous_args = 0
 141              	.LVL7:
 142 0000 38B5     		push	{r3, r4, r5, lr}
 143              	.LCFI2:
 144              		.cfi_def_cfa_offset 16
 145              		.cfi_offset 3, -16
 146              		.cfi_offset 4, -12
 147              		.cfi_offset 5, -8
 148              		.cfi_offset 14, -4
 149              	.LVL8:
 281:../../core/ST/STM32L4xx_HAL_Driver/Src/stm32l4xx_hal_flash.c **** 
 150              		.loc 1 281 0
 151 0002 1F4C     		ldr	r4, .L22
 152 0004 2478     		ldrb	r4, [r4]	@ zero_extendqisi2
 153 0006 012C     		cmp	r4, #1
 154 0008 37D0     		beq	.L16
 281:../../core/ST/STM32L4xx_HAL_Driver/Src/stm32l4xx_hal_flash.c **** 
 155              		.loc 1 281 0 is_stmt 0 discriminator 2
 156 000a 1D4C     		ldr	r4, .L22
 157 000c 0125     		movs	r5, #1
 158 000e 2570     		strb	r5, [r4]
 283:../../core/ST/STM32L4xx_HAL_Driver/Src/stm32l4xx_hal_flash.c **** 
 159              		.loc 1 283 0 is_stmt 1 discriminator 2
 160 0010 0025     		movs	r5, #0
 161 0012 6560     		str	r5, [r4, #4]
 286:../../core/ST/STM32L4xx_HAL_Driver/Src/stm32l4xx_hal_flash.c ****   {
 162              		.loc 1 286 0 discriminator 2
 163 0014 1B4C     		ldr	r4, .L22+4
 164 0016 2468     		ldr	r4, [r4]
 165 0018 14F4806F 		tst	r4, #1024
 166 001c 1AD0     		beq	.L11
 289:../../core/ST/STM32L4xx_HAL_Driver/Src/stm32l4xx_hal_flash.c ****     pFlash.CacheToReactivate = FLASH_CACHE_DCACHE_ENABLED;
 167              		.loc 1 289 0
 168 001e 194D     		ldr	r5, .L22+4
 169 0020 2C68     		ldr	r4, [r5]
 170 0022 24F48064 		bic	r4, r4, #1024
 171 0026 2C60     		str	r4, [r5]
 290:../../core/ST/STM32L4xx_HAL_Driver/Src/stm32l4xx_hal_flash.c ****   }
 172              		.loc 1 290 0
 173 0028 154C     		ldr	r4, .L22
 174 002a 0225     		movs	r5, #2
 175 002c 2577     		strb	r5, [r4, #28]
 176              	.L12:
 298:../../core/ST/STM32L4xx_HAL_Driver/Src/stm32l4xx_hal_flash.c ****   {
 177              		.loc 1 298 0
 178 002e 0228     		cmp	r0, #2
 179 0030 14D0     		beq	.L19
 304:../../core/ST/STM32L4xx_HAL_Driver/Src/stm32l4xx_hal_flash.c ****   }
 180              		.loc 1 304 0
 181 0032 134C     		ldr	r4, .L22
 182 0034 0325     		movs	r5, #3
 183 0036 2572     		strb	r5, [r4, #8]
 184              	.L14:
ARM GAS  /tmp/ccvegzZU.s 			page 19


 185 0038 0C46     		mov	r4, r1
 306:../../core/ST/STM32L4xx_HAL_Driver/Src/stm32l4xx_hal_flash.c **** 
 186              		.loc 1 306 0
 187 003a 1149     		ldr	r1, .L22
 188              	.LVL9:
 189 003c CC60     		str	r4, [r1, #12]
 309:../../core/ST/STM32L4xx_HAL_Driver/Src/stm32l4xx_hal_flash.c **** 
 190              		.loc 1 309 0
 191 003e 1149     		ldr	r1, .L22+4
 192 0040 4D69     		ldr	r5, [r1, #20]
 193 0042 45F04075 		orr	r5, r5, #50331648
 194 0046 4D61     		str	r5, [r1, #20]
 311:../../core/ST/STM32L4xx_HAL_Driver/Src/stm32l4xx_hal_flash.c ****   {
 195              		.loc 1 311 0
 196 0048 60B1     		cbz	r0, .L20
 316:../../core/ST/STM32L4xx_HAL_Driver/Src/stm32l4xx_hal_flash.c ****   {
 197              		.loc 1 316 0
 198 004a 431E     		subs	r3, r0, #1
 199 004c 012B     		cmp	r3, #1
 200 004e 0ED9     		bls	.L21
 326:../../core/ST/STM32L4xx_HAL_Driver/Src/stm32l4xx_hal_flash.c **** }
 201              		.loc 1 326 0
 202 0050 0020     		movs	r0, #0
 203              	.LVL10:
 204              	.L10:
 327:../../core/ST/STM32L4xx_HAL_Driver/Src/stm32l4xx_hal_flash.c **** 
 205              		.loc 1 327 0
 206 0052 38BD     		pop	{r3, r4, r5, pc}
 207              	.LVL11:
 208              	.L11:
 294:../../core/ST/STM32L4xx_HAL_Driver/Src/stm32l4xx_hal_flash.c ****   }
 209              		.loc 1 294 0
 210 0054 0A4C     		ldr	r4, .L22
 211 0056 0025     		movs	r5, #0
 212 0058 2577     		strb	r5, [r4, #28]
 213 005a E8E7     		b	.L12
 214              	.L19:
 300:../../core/ST/STM32L4xx_HAL_Driver/Src/stm32l4xx_hal_flash.c ****   }
 215              		.loc 1 300 0
 216 005c 084C     		ldr	r4, .L22
 217 005e 0425     		movs	r5, #4
 218 0060 2572     		strb	r5, [r4, #8]
 219 0062 E9E7     		b	.L14
 220              	.LVL12:
 221              	.L20:
 314:../../core/ST/STM32L4xx_HAL_Driver/Src/stm32l4xx_hal_flash.c ****   }
 222              		.loc 1 314 0
 223 0064 2046     		mov	r0, r4
 224              	.LVL13:
 225 0066 FFF7FEFF 		bl	FLASH_Program_DoubleWord
 226              	.LVL14:
 326:../../core/ST/STM32L4xx_HAL_Driver/Src/stm32l4xx_hal_flash.c **** }
 227              		.loc 1 326 0
 228 006a 0020     		movs	r0, #0
 229 006c F1E7     		b	.L10
 230              	.LVL15:
 231              	.L21:
ARM GAS  /tmp/ccvegzZU.s 			page 20


 319:../../core/ST/STM32L4xx_HAL_Driver/Src/stm32l4xx_hal_flash.c ****   }
 232              		.loc 1 319 0
 233 006e 1146     		mov	r1, r2
 234 0070 2046     		mov	r0, r4
 235              	.LVL16:
 236 0072 FFF7FEFF 		bl	FLASH_Program_Fast
 237              	.LVL17:
 326:../../core/ST/STM32L4xx_HAL_Driver/Src/stm32l4xx_hal_flash.c **** }
 238              		.loc 1 326 0
 239 0076 0020     		movs	r0, #0
 240 0078 EBE7     		b	.L10
 241              	.LVL18:
 242              	.L16:
 281:../../core/ST/STM32L4xx_HAL_Driver/Src/stm32l4xx_hal_flash.c **** 
 243              		.loc 1 281 0
 244 007a 0220     		movs	r0, #2
 245              	.LVL19:
 246 007c E9E7     		b	.L10
 247              	.L23:
 248 007e 00BF     		.align	2
 249              	.L22:
 250 0080 00000000 		.word	.LANCHOR0
 251 0084 00200240 		.word	1073881088
 252              		.cfi_endproc
 253              	.LFE124:
 255              		.section	.text.HAL_FLASH_EndOfOperationCallback,"ax",%progbits
 256              		.align	1
 257              		.weak	HAL_FLASH_EndOfOperationCallback
 258              		.syntax unified
 259              		.thumb
 260              		.thumb_func
 261              		.fpu fpv4-sp-d16
 263              	HAL_FLASH_EndOfOperationCallback:
 264              	.LFB126:
 477:../../core/ST/STM32L4xx_HAL_Driver/Src/stm32l4xx_hal_flash.c ****   /* Prevent unused argument(s) compilation warning */
 265              		.loc 1 477 0
 266              		.cfi_startproc
 267              		@ args = 0, pretend = 0, frame = 0
 268              		@ frame_needed = 0, uses_anonymous_args = 0
 269              		@ link register save eliminated.
 270              	.LVL20:
 484:../../core/ST/STM32L4xx_HAL_Driver/Src/stm32l4xx_hal_flash.c **** 
 271              		.loc 1 484 0
 272 0000 7047     		bx	lr
 273              		.cfi_endproc
 274              	.LFE126:
 276              		.section	.text.HAL_FLASH_OperationErrorCallback,"ax",%progbits
 277              		.align	1
 278              		.weak	HAL_FLASH_OperationErrorCallback
 279              		.syntax unified
 280              		.thumb
 281              		.thumb_func
 282              		.fpu fpv4-sp-d16
 284              	HAL_FLASH_OperationErrorCallback:
 285              	.LFB127:
 495:../../core/ST/STM32L4xx_HAL_Driver/Src/stm32l4xx_hal_flash.c ****   /* Prevent unused argument(s) compilation warning */
 286              		.loc 1 495 0
ARM GAS  /tmp/ccvegzZU.s 			page 21


 287              		.cfi_startproc
 288              		@ args = 0, pretend = 0, frame = 0
 289              		@ frame_needed = 0, uses_anonymous_args = 0
 290              		@ link register save eliminated.
 291              	.LVL21:
 502:../../core/ST/STM32L4xx_HAL_Driver/Src/stm32l4xx_hal_flash.c **** 
 292              		.loc 1 502 0
 293 0000 7047     		bx	lr
 294              		.cfi_endproc
 295              	.LFE127:
 297              		.section	.text.HAL_FLASH_IRQHandler,"ax",%progbits
 298              		.align	1
 299              		.global	HAL_FLASH_IRQHandler
 300              		.syntax unified
 301              		.thumb
 302              		.thumb_func
 303              		.fpu fpv4-sp-d16
 305              	HAL_FLASH_IRQHandler:
 306              	.LFB125:
 334:../../core/ST/STM32L4xx_HAL_Driver/Src/stm32l4xx_hal_flash.c ****   uint32_t tmp_page;
 307              		.loc 1 334 0
 308              		.cfi_startproc
 309              		@ args = 0, pretend = 0, frame = 0
 310              		@ frame_needed = 0, uses_anonymous_args = 0
 311 0000 10B5     		push	{r4, lr}
 312              	.LCFI3:
 313              		.cfi_def_cfa_offset 8
 314              		.cfi_offset 4, -8
 315              		.cfi_offset 14, -4
 340:../../core/ST/STM32L4xx_HAL_Driver/Src/stm32l4xx_hal_flash.c **** #if defined (STM32L471xx) || defined (STM32L475xx) || defined (STM32L476xx) || defined (STM32L485xx
 316              		.loc 1 340 0
 317 0002 524A     		ldr	r2, .L48
 318 0004 5369     		ldr	r3, [r2, #20]
 319 0006 23F4FF63 		bic	r3, r3, #2040
 320 000a 23F00703 		bic	r3, r3, #7
 321 000e 5361     		str	r3, [r2, #20]
 344:../../core/ST/STM32L4xx_HAL_Driver/Src/stm32l4xx_hal_flash.c **** #endif
 322              		.loc 1 344 0
 323 0010 5369     		ldr	r3, [r2, #20]
 324 0012 23F40043 		bic	r3, r3, #32768
 325 0016 5361     		str	r3, [r2, #20]
 348:../../core/ST/STM32L4xx_HAL_Driver/Src/stm32l4xx_hal_flash.c ****   {
 326              		.loc 1 348 0
 327 0018 4D4B     		ldr	r3, .L48+4
 328 001a 1B7A     		ldrb	r3, [r3, #8]	@ zero_extendqisi2
 329 001c DBB2     		uxtb	r3, r3
 330 001e 042B     		cmp	r3, #4
 331 0020 50D0     		beq	.L42
 332              	.L27:
 354:../../core/ST/STM32L4xx_HAL_Driver/Src/stm32l4xx_hal_flash.c ****   error |= (FLASH->ECCR & FLASH_FLAG_ECCC);
 333              		.loc 1 354 0
 334 0022 4A4A     		ldr	r2, .L48
 335 0024 1369     		ldr	r3, [r2, #16]
 336 0026 23F07F43 		bic	r3, r3, #-16777216
 337 002a 23F47D03 		bic	r3, r3, #16580608
 338 002e 23F47053 		bic	r3, r3, #15360
 339 0032 23F00503 		bic	r3, r3, #5
ARM GAS  /tmp/ccvegzZU.s 			page 22


 340              	.LVL22:
 355:../../core/ST/STM32L4xx_HAL_Driver/Src/stm32l4xx_hal_flash.c **** 
 341              		.loc 1 355 0
 342 0036 9269     		ldr	r2, [r2, #24]
 343 0038 02F08042 		and	r2, r2, #1073741824
 344              	.LVL23:
 357:../../core/ST/STM32L4xx_HAL_Driver/Src/stm32l4xx_hal_flash.c ****   {
 345              		.loc 1 357 0
 346 003c 1343     		orrs	r3, r3, r2
 347              	.LVL24:
 348 003e 22D0     		beq	.L28
 360:../../core/ST/STM32L4xx_HAL_Driver/Src/stm32l4xx_hal_flash.c **** 
 349              		.loc 1 360 0
 350 0040 4349     		ldr	r1, .L48+4
 351 0042 4A68     		ldr	r2, [r1, #4]
 352 0044 1A43     		orrs	r2, r2, r3
 353 0046 4A60     		str	r2, [r1, #4]
 363:../../core/ST/STM32L4xx_HAL_Driver/Src/stm32l4xx_hal_flash.c **** 
 354              		.loc 1 363 0
 355 0048 13F04042 		ands	r2, r3, #-1073741824
 356 004c 03D0     		beq	.L29
 363:../../core/ST/STM32L4xx_HAL_Driver/Src/stm32l4xx_hal_flash.c **** 
 357              		.loc 1 363 0 is_stmt 0 discriminator 1
 358 004e 3F49     		ldr	r1, .L48
 359 0050 8869     		ldr	r0, [r1, #24]
 360 0052 0243     		orrs	r2, r2, r0
 361 0054 8A61     		str	r2, [r1, #24]
 362              	.L29:
 363:../../core/ST/STM32L4xx_HAL_Driver/Src/stm32l4xx_hal_flash.c **** 
 363              		.loc 1 363 0 discriminator 3
 364 0056 33F04043 		bics	r3, r3, #-1073741824
 365              	.LVL25:
 366 005a 01D0     		beq	.L30
 363:../../core/ST/STM32L4xx_HAL_Driver/Src/stm32l4xx_hal_flash.c **** 
 367              		.loc 1 363 0 discriminator 4
 368 005c 3B4A     		ldr	r2, .L48
 369 005e 1361     		str	r3, [r2, #16]
 370              	.L30:
 366:../../core/ST/STM32L4xx_HAL_Driver/Src/stm32l4xx_hal_flash.c **** 
 371              		.loc 1 366 0 is_stmt 1
 372 0060 FFF7FEFF 		bl	FLASH_FlushCaches
 373              	.LVL26:
 369:../../core/ST/STM32L4xx_HAL_Driver/Src/stm32l4xx_hal_flash.c ****     if(procedure == FLASH_PROC_PAGE_ERASE)
 374              		.loc 1 369 0
 375 0064 3A4B     		ldr	r3, .L48+4
 376 0066 1B7A     		ldrb	r3, [r3, #8]	@ zero_extendqisi2
 377 0068 DBB2     		uxtb	r3, r3
 378              	.LVL27:
 370:../../core/ST/STM32L4xx_HAL_Driver/Src/stm32l4xx_hal_flash.c ****     {
 379              		.loc 1 370 0
 380 006a 012B     		cmp	r3, #1
 381 006c 2FD0     		beq	.L43
 374:../../core/ST/STM32L4xx_HAL_Driver/Src/stm32l4xx_hal_flash.c ****     {
 382              		.loc 1 374 0
 383 006e 022B     		cmp	r3, #2
 384 0070 32D0     		beq	.L44
 378:../../core/ST/STM32L4xx_HAL_Driver/Src/stm32l4xx_hal_flash.c ****             (procedure == FLASH_PROC_PROGRAM_LAST))
ARM GAS  /tmp/ccvegzZU.s 			page 23


 385              		.loc 1 378 0
 386 0072 033B     		subs	r3, r3, #3
 387              	.LVL28:
 388 0074 DBB2     		uxtb	r3, r3
 389              	.LVL29:
 390 0076 012B     		cmp	r3, #1
 391 0078 33D9     		bls	.L45
 385:../../core/ST/STM32L4xx_HAL_Driver/Src/stm32l4xx_hal_flash.c ****     }
 392              		.loc 1 385 0
 393 007a 0020     		movs	r0, #0
 394 007c FFF7FEFF 		bl	HAL_FLASH_OperationErrorCallback
 395              	.LVL30:
 396              	.L32:
 389:../../core/ST/STM32L4xx_HAL_Driver/Src/stm32l4xx_hal_flash.c ****   }
 397              		.loc 1 389 0
 398 0080 334B     		ldr	r3, .L48+4
 399 0082 0022     		movs	r2, #0
 400 0084 1A72     		strb	r2, [r3, #8]
 401              	.L28:
 393:../../core/ST/STM32L4xx_HAL_Driver/Src/stm32l4xx_hal_flash.c ****   {
 402              		.loc 1 393 0
 403 0086 314B     		ldr	r3, .L48
 404 0088 1B69     		ldr	r3, [r3, #16]
 405 008a 13F0010F 		tst	r3, #1
 406 008e 47D0     		beq	.L35
 396:../../core/ST/STM32L4xx_HAL_Driver/Src/stm32l4xx_hal_flash.c **** 
 407              		.loc 1 396 0 discriminator 4
 408 0090 2E4B     		ldr	r3, .L48
 409 0092 0122     		movs	r2, #1
 410 0094 1A61     		str	r2, [r3, #16]
 398:../../core/ST/STM32L4xx_HAL_Driver/Src/stm32l4xx_hal_flash.c ****     {
 411              		.loc 1 398 0 discriminator 4
 412 0096 2E4B     		ldr	r3, .L48+4
 413 0098 1B7A     		ldrb	r3, [r3, #8]	@ zero_extendqisi2
 414 009a DBB2     		uxtb	r3, r3
 415 009c 9342     		cmp	r3, r2
 416 009e 31D1     		bne	.L36
 401:../../core/ST/STM32L4xx_HAL_Driver/Src/stm32l4xx_hal_flash.c **** 
 417              		.loc 1 401 0
 418 00a0 2B4B     		ldr	r3, .L48+4
 419 00a2 9A69     		ldr	r2, [r3, #24]
 420 00a4 013A     		subs	r2, r2, #1
 421 00a6 9A61     		str	r2, [r3, #24]
 404:../../core/ST/STM32L4xx_HAL_Driver/Src/stm32l4xx_hal_flash.c ****       {
 422              		.loc 1 404 0
 423 00a8 9B69     		ldr	r3, [r3, #24]
 424 00aa FBB1     		cbz	r3, .L37
 407:../../core/ST/STM32L4xx_HAL_Driver/Src/stm32l4xx_hal_flash.c **** 
 425              		.loc 1 407 0
 426 00ac 284C     		ldr	r4, .L48+4
 427 00ae 6069     		ldr	r0, [r4, #20]
 428 00b0 FFF7FEFF 		bl	HAL_FLASH_EndOfOperationCallback
 429              	.LVL31:
 410:../../core/ST/STM32L4xx_HAL_Driver/Src/stm32l4xx_hal_flash.c ****         tmp_page = pFlash.Page;
 430              		.loc 1 410 0
 431 00b4 6369     		ldr	r3, [r4, #20]
 432 00b6 0133     		adds	r3, r3, #1
ARM GAS  /tmp/ccvegzZU.s 			page 24


 433 00b8 6361     		str	r3, [r4, #20]
 411:../../core/ST/STM32L4xx_HAL_Driver/Src/stm32l4xx_hal_flash.c ****         FLASH_PageErase(tmp_page, pFlash.Bank);
 434              		.loc 1 411 0
 435 00ba 6069     		ldr	r0, [r4, #20]
 436              	.LVL32:
 412:../../core/ST/STM32L4xx_HAL_Driver/Src/stm32l4xx_hal_flash.c ****       }
 437              		.loc 1 412 0
 438 00bc 2169     		ldr	r1, [r4, #16]
 439 00be FFF7FEFF 		bl	FLASH_PageErase
 440              	.LVL33:
 441 00c2 2DE0     		b	.L35
 442              	.L42:
 350:../../core/ST/STM32L4xx_HAL_Driver/Src/stm32l4xx_hal_flash.c ****   }
 443              		.loc 1 350 0
 444 00c4 5369     		ldr	r3, [r2, #20]
 445 00c6 23F48023 		bic	r3, r3, #262144
 446 00ca 5361     		str	r3, [r2, #20]
 447 00cc A9E7     		b	.L27
 448              	.LVL34:
 449              	.L43:
 372:../../core/ST/STM32L4xx_HAL_Driver/Src/stm32l4xx_hal_flash.c ****     }
 450              		.loc 1 372 0
 451 00ce 204B     		ldr	r3, .L48+4
 452              	.LVL35:
 453 00d0 5869     		ldr	r0, [r3, #20]
 454 00d2 FFF7FEFF 		bl	HAL_FLASH_OperationErrorCallback
 455              	.LVL36:
 456 00d6 D3E7     		b	.L32
 457              	.LVL37:
 458              	.L44:
 376:../../core/ST/STM32L4xx_HAL_Driver/Src/stm32l4xx_hal_flash.c ****     }
 459              		.loc 1 376 0
 460 00d8 1D4B     		ldr	r3, .L48+4
 461              	.LVL38:
 462 00da 1869     		ldr	r0, [r3, #16]
 463 00dc FFF7FEFF 		bl	HAL_FLASH_OperationErrorCallback
 464              	.LVL39:
 465 00e0 CEE7     		b	.L32
 466              	.LVL40:
 467              	.L45:
 381:../../core/ST/STM32L4xx_HAL_Driver/Src/stm32l4xx_hal_flash.c ****     }
 468              		.loc 1 381 0
 469 00e2 1B4B     		ldr	r3, .L48+4
 470 00e4 D868     		ldr	r0, [r3, #12]
 471 00e6 FFF7FEFF 		bl	HAL_FLASH_OperationErrorCallback
 472              	.LVL41:
 473 00ea C9E7     		b	.L32
 474              	.L37:
 418:../../core/ST/STM32L4xx_HAL_Driver/Src/stm32l4xx_hal_flash.c ****         pFlash.ProcedureOnGoing = FLASH_PROC_NONE;
 475              		.loc 1 418 0
 476 00ec 184C     		ldr	r4, .L48+4
 477 00ee 4FF0FF33 		mov	r3, #-1
 478 00f2 6361     		str	r3, [r4, #20]
 419:../../core/ST/STM32L4xx_HAL_Driver/Src/stm32l4xx_hal_flash.c **** 
 479              		.loc 1 419 0
 480 00f4 0023     		movs	r3, #0
 481 00f6 2372     		strb	r3, [r4, #8]
ARM GAS  /tmp/ccvegzZU.s 			page 25


 422:../../core/ST/STM32L4xx_HAL_Driver/Src/stm32l4xx_hal_flash.c **** 
 482              		.loc 1 422 0
 483 00f8 FFF7FEFF 		bl	FLASH_FlushCaches
 484              	.LVL42:
 425:../../core/ST/STM32L4xx_HAL_Driver/Src/stm32l4xx_hal_flash.c ****       }
 485              		.loc 1 425 0
 486 00fc 6069     		ldr	r0, [r4, #20]
 487 00fe FFF7FEFF 		bl	HAL_FLASH_EndOfOperationCallback
 488              	.LVL43:
 489 0102 0DE0     		b	.L35
 490              	.L36:
 431:../../core/ST/STM32L4xx_HAL_Driver/Src/stm32l4xx_hal_flash.c **** 
 491              		.loc 1 431 0
 492 0104 FFF7FEFF 		bl	FLASH_FlushCaches
 493              	.LVL44:
 433:../../core/ST/STM32L4xx_HAL_Driver/Src/stm32l4xx_hal_flash.c ****       if(procedure == FLASH_PROC_MASS_ERASE)
 494              		.loc 1 433 0
 495 0108 114B     		ldr	r3, .L48+4
 496 010a 1B7A     		ldrb	r3, [r3, #8]	@ zero_extendqisi2
 497 010c DBB2     		uxtb	r3, r3
 498              	.LVL45:
 434:../../core/ST/STM32L4xx_HAL_Driver/Src/stm32l4xx_hal_flash.c ****       {
 499              		.loc 1 434 0
 500 010e 022B     		cmp	r3, #2
 501 0110 12D0     		beq	.L46
 440:../../core/ST/STM32L4xx_HAL_Driver/Src/stm32l4xx_hal_flash.c ****               (procedure == FLASH_PROC_PROGRAM_LAST))
 502              		.loc 1 440 0
 503 0112 033B     		subs	r3, r3, #3
 504              	.LVL46:
 505 0114 DBB2     		uxtb	r3, r3
 506              	.LVL47:
 507 0116 012B     		cmp	r3, #1
 508 0118 13D9     		bls	.L47
 509              	.LVL48:
 510              	.L39:
 453:../../core/ST/STM32L4xx_HAL_Driver/Src/stm32l4xx_hal_flash.c ****     }
 511              		.loc 1 453 0
 512 011a 0D4B     		ldr	r3, .L48+4
 513 011c 0022     		movs	r2, #0
 514 011e 1A72     		strb	r2, [r3, #8]
 515              	.L35:
 457:../../core/ST/STM32L4xx_HAL_Driver/Src/stm32l4xx_hal_flash.c ****   {
 516              		.loc 1 457 0
 517 0120 0B4B     		ldr	r3, .L48+4
 518 0122 1B7A     		ldrb	r3, [r3, #8]	@ zero_extendqisi2
 519 0124 3BB9     		cbnz	r3, .L26
 460:../../core/ST/STM32L4xx_HAL_Driver/Src/stm32l4xx_hal_flash.c **** 
 520              		.loc 1 460 0 discriminator 4
 521 0126 094A     		ldr	r2, .L48
 522 0128 5369     		ldr	r3, [r2, #20]
 523 012a 23F04073 		bic	r3, r3, #50331648
 524 012e 5361     		str	r3, [r2, #20]
 463:../../core/ST/STM32L4xx_HAL_Driver/Src/stm32l4xx_hal_flash.c ****   }
 525              		.loc 1 463 0 discriminator 4
 526 0130 074B     		ldr	r3, .L48+4
 527 0132 0022     		movs	r2, #0
 528 0134 1A70     		strb	r2, [r3]
ARM GAS  /tmp/ccvegzZU.s 			page 26


 529              	.L26:
 465:../../core/ST/STM32L4xx_HAL_Driver/Src/stm32l4xx_hal_flash.c **** 
 530              		.loc 1 465 0
 531 0136 10BD     		pop	{r4, pc}
 532              	.LVL49:
 533              	.L46:
 438:../../core/ST/STM32L4xx_HAL_Driver/Src/stm32l4xx_hal_flash.c ****       }
 534              		.loc 1 438 0
 535 0138 054B     		ldr	r3, .L48+4
 536              	.LVL50:
 537 013a 1869     		ldr	r0, [r3, #16]
 538 013c FFF7FEFF 		bl	HAL_FLASH_EndOfOperationCallback
 539              	.LVL51:
 540 0140 EBE7     		b	.L39
 541              	.LVL52:
 542              	.L47:
 445:../../core/ST/STM32L4xx_HAL_Driver/Src/stm32l4xx_hal_flash.c ****       }
 543              		.loc 1 445 0
 544 0142 034B     		ldr	r3, .L48+4
 545 0144 D868     		ldr	r0, [r3, #12]
 546 0146 FFF7FEFF 		bl	HAL_FLASH_EndOfOperationCallback
 547              	.LVL53:
 548 014a E6E7     		b	.L39
 549              	.L49:
 550              		.align	2
 551              	.L48:
 552 014c 00200240 		.word	1073881088
 553 0150 00000000 		.word	.LANCHOR0
 554              		.cfi_endproc
 555              	.LFE125:
 557              		.section	.text.HAL_FLASH_Unlock,"ax",%progbits
 558              		.align	1
 559              		.global	HAL_FLASH_Unlock
 560              		.syntax unified
 561              		.thumb
 562              		.thumb_func
 563              		.fpu fpv4-sp-d16
 565              	HAL_FLASH_Unlock:
 566              	.LFB128:
 528:../../core/ST/STM32L4xx_HAL_Driver/Src/stm32l4xx_hal_flash.c ****   HAL_StatusTypeDef status = HAL_OK;
 567              		.loc 1 528 0
 568              		.cfi_startproc
 569              		@ args = 0, pretend = 0, frame = 0
 570              		@ frame_needed = 0, uses_anonymous_args = 0
 571              		@ link register save eliminated.
 572              	.LVL54:
 531:../../core/ST/STM32L4xx_HAL_Driver/Src/stm32l4xx_hal_flash.c ****   {
 573              		.loc 1 531 0
 574 0000 094B     		ldr	r3, .L55
 575 0002 5B69     		ldr	r3, [r3, #20]
 576 0004 002B     		cmp	r3, #0
 577 0006 01DB     		blt	.L54
 529:../../core/ST/STM32L4xx_HAL_Driver/Src/stm32l4xx_hal_flash.c **** 
 578              		.loc 1 529 0
 579 0008 0020     		movs	r0, #0
 580 000a 7047     		bx	lr
 581              	.L54:
ARM GAS  /tmp/ccvegzZU.s 			page 27


 534:../../core/ST/STM32L4xx_HAL_Driver/Src/stm32l4xx_hal_flash.c ****     WRITE_REG(FLASH->KEYR, FLASH_KEY2);
 582              		.loc 1 534 0
 583 000c 064B     		ldr	r3, .L55
 584 000e 074A     		ldr	r2, .L55+4
 585 0010 9A60     		str	r2, [r3, #8]
 535:../../core/ST/STM32L4xx_HAL_Driver/Src/stm32l4xx_hal_flash.c **** 
 586              		.loc 1 535 0
 587 0012 02F18832 		add	r2, r2, #-2004318072
 588 0016 9A60     		str	r2, [r3, #8]
 538:../../core/ST/STM32L4xx_HAL_Driver/Src/stm32l4xx_hal_flash.c ****     {
 589              		.loc 1 538 0
 590 0018 5B69     		ldr	r3, [r3, #20]
 591 001a 002B     		cmp	r3, #0
 592 001c 01DB     		blt	.L53
 529:../../core/ST/STM32L4xx_HAL_Driver/Src/stm32l4xx_hal_flash.c **** 
 593              		.loc 1 529 0
 594 001e 0020     		movs	r0, #0
 595 0020 7047     		bx	lr
 596              	.L53:
 540:../../core/ST/STM32L4xx_HAL_Driver/Src/stm32l4xx_hal_flash.c ****     }
 597              		.loc 1 540 0
 598 0022 0120     		movs	r0, #1
 599              	.LVL55:
 545:../../core/ST/STM32L4xx_HAL_Driver/Src/stm32l4xx_hal_flash.c **** 
 600              		.loc 1 545 0
 601 0024 7047     		bx	lr
 602              	.L56:
 603 0026 00BF     		.align	2
 604              	.L55:
 605 0028 00200240 		.word	1073881088
 606 002c 23016745 		.word	1164378403
 607              		.cfi_endproc
 608              	.LFE128:
 610              		.section	.text.HAL_FLASH_Lock,"ax",%progbits
 611              		.align	1
 612              		.global	HAL_FLASH_Lock
 613              		.syntax unified
 614              		.thumb
 615              		.thumb_func
 616              		.fpu fpv4-sp-d16
 618              	HAL_FLASH_Lock:
 619              	.LFB129:
 552:../../core/ST/STM32L4xx_HAL_Driver/Src/stm32l4xx_hal_flash.c ****   /* Set the LOCK Bit to lock the FLASH Registers access */
 620              		.loc 1 552 0
 621              		.cfi_startproc
 622              		@ args = 0, pretend = 0, frame = 0
 623              		@ frame_needed = 0, uses_anonymous_args = 0
 624              		@ link register save eliminated.
 554:../../core/ST/STM32L4xx_HAL_Driver/Src/stm32l4xx_hal_flash.c **** 
 625              		.loc 1 554 0
 626 0000 034A     		ldr	r2, .L58
 627 0002 5369     		ldr	r3, [r2, #20]
 628 0004 43F00043 		orr	r3, r3, #-2147483648
 629 0008 5361     		str	r3, [r2, #20]
 557:../../core/ST/STM32L4xx_HAL_Driver/Src/stm32l4xx_hal_flash.c **** 
 630              		.loc 1 557 0
 631 000a 0020     		movs	r0, #0
ARM GAS  /tmp/ccvegzZU.s 			page 28


 632 000c 7047     		bx	lr
 633              	.L59:
 634 000e 00BF     		.align	2
 635              	.L58:
 636 0010 00200240 		.word	1073881088
 637              		.cfi_endproc
 638              	.LFE129:
 640              		.section	.text.HAL_FLASH_OB_Unlock,"ax",%progbits
 641              		.align	1
 642              		.global	HAL_FLASH_OB_Unlock
 643              		.syntax unified
 644              		.thumb
 645              		.thumb_func
 646              		.fpu fpv4-sp-d16
 648              	HAL_FLASH_OB_Unlock:
 649              	.LFB130:
 564:../../core/ST/STM32L4xx_HAL_Driver/Src/stm32l4xx_hal_flash.c ****   if(READ_BIT(FLASH->CR, FLASH_CR_OPTLOCK) != 0U)
 650              		.loc 1 564 0
 651              		.cfi_startproc
 652              		@ args = 0, pretend = 0, frame = 0
 653              		@ frame_needed = 0, uses_anonymous_args = 0
 654              		@ link register save eliminated.
 565:../../core/ST/STM32L4xx_HAL_Driver/Src/stm32l4xx_hal_flash.c ****   {
 655              		.loc 1 565 0
 656 0000 074B     		ldr	r3, .L63
 657 0002 5B69     		ldr	r3, [r3, #20]
 658 0004 13F0804F 		tst	r3, #1073741824
 659 0008 07D0     		beq	.L62
 568:../../core/ST/STM32L4xx_HAL_Driver/Src/stm32l4xx_hal_flash.c ****     WRITE_REG(FLASH->OPTKEYR, FLASH_OPTKEY2);
 660              		.loc 1 568 0
 661 000a 054B     		ldr	r3, .L63
 662 000c 054A     		ldr	r2, .L63+4
 663 000e DA60     		str	r2, [r3, #12]
 569:../../core/ST/STM32L4xx_HAL_Driver/Src/stm32l4xx_hal_flash.c ****   }
 664              		.loc 1 569 0
 665 0010 02F14432 		add	r2, r2, #1145324612
 666 0014 DA60     		str	r2, [r3, #12]
 576:../../core/ST/STM32L4xx_HAL_Driver/Src/stm32l4xx_hal_flash.c **** }
 667              		.loc 1 576 0
 668 0016 0020     		movs	r0, #0
 669 0018 7047     		bx	lr
 670              	.L62:
 573:../../core/ST/STM32L4xx_HAL_Driver/Src/stm32l4xx_hal_flash.c ****   }
 671              		.loc 1 573 0
 672 001a 0120     		movs	r0, #1
 577:../../core/ST/STM32L4xx_HAL_Driver/Src/stm32l4xx_hal_flash.c **** 
 673              		.loc 1 577 0
 674 001c 7047     		bx	lr
 675              	.L64:
 676 001e 00BF     		.align	2
 677              	.L63:
 678 0020 00200240 		.word	1073881088
 679 0024 3B2A1908 		.word	135866939
 680              		.cfi_endproc
 681              	.LFE130:
 683              		.section	.text.HAL_FLASH_OB_Lock,"ax",%progbits
 684              		.align	1
ARM GAS  /tmp/ccvegzZU.s 			page 29


 685              		.global	HAL_FLASH_OB_Lock
 686              		.syntax unified
 687              		.thumb
 688              		.thumb_func
 689              		.fpu fpv4-sp-d16
 691              	HAL_FLASH_OB_Lock:
 692              	.LFB131:
 584:../../core/ST/STM32L4xx_HAL_Driver/Src/stm32l4xx_hal_flash.c ****   /* Set the OPTLOCK Bit to lock the FLASH Option Byte Registers access */
 693              		.loc 1 584 0
 694              		.cfi_startproc
 695              		@ args = 0, pretend = 0, frame = 0
 696              		@ frame_needed = 0, uses_anonymous_args = 0
 697              		@ link register save eliminated.
 586:../../core/ST/STM32L4xx_HAL_Driver/Src/stm32l4xx_hal_flash.c **** 
 698              		.loc 1 586 0
 699 0000 034A     		ldr	r2, .L66
 700 0002 5369     		ldr	r3, [r2, #20]
 701 0004 43F08043 		orr	r3, r3, #1073741824
 702 0008 5361     		str	r3, [r2, #20]
 589:../../core/ST/STM32L4xx_HAL_Driver/Src/stm32l4xx_hal_flash.c **** 
 703              		.loc 1 589 0
 704 000a 0020     		movs	r0, #0
 705 000c 7047     		bx	lr
 706              	.L67:
 707 000e 00BF     		.align	2
 708              	.L66:
 709 0010 00200240 		.word	1073881088
 710              		.cfi_endproc
 711              	.LFE131:
 713              		.section	.text.HAL_FLASH_GetError,"ax",%progbits
 714              		.align	1
 715              		.global	HAL_FLASH_GetError
 716              		.syntax unified
 717              		.thumb
 718              		.thumb_func
 719              		.fpu fpv4-sp-d16
 721              	HAL_FLASH_GetError:
 722              	.LFB133:
 646:../../core/ST/STM32L4xx_HAL_Driver/Src/stm32l4xx_hal_flash.c ****    return pFlash.ErrorCode;
 723              		.loc 1 646 0
 724              		.cfi_startproc
 725              		@ args = 0, pretend = 0, frame = 0
 726              		@ frame_needed = 0, uses_anonymous_args = 0
 727              		@ link register save eliminated.
 647:../../core/ST/STM32L4xx_HAL_Driver/Src/stm32l4xx_hal_flash.c **** }
 728              		.loc 1 647 0
 729 0000 014B     		ldr	r3, .L69
 730 0002 5868     		ldr	r0, [r3, #4]
 648:../../core/ST/STM32L4xx_HAL_Driver/Src/stm32l4xx_hal_flash.c **** 
 731              		.loc 1 648 0
 732 0004 7047     		bx	lr
 733              	.L70:
 734 0006 00BF     		.align	2
 735              	.L69:
 736 0008 00000000 		.word	.LANCHOR0
 737              		.cfi_endproc
 738              	.LFE133:
ARM GAS  /tmp/ccvegzZU.s 			page 30


 740              		.section	.text.FLASH_WaitForLastOperation,"ax",%progbits
 741              		.align	1
 742              		.global	FLASH_WaitForLastOperation
 743              		.syntax unified
 744              		.thumb
 745              		.thumb_func
 746              		.fpu fpv4-sp-d16
 748              	FLASH_WaitForLastOperation:
 749              	.LFB134:
 670:../../core/ST/STM32L4xx_HAL_Driver/Src/stm32l4xx_hal_flash.c ****   /* Wait for the FLASH operation to complete by polling on BUSY flag to be reset.
 750              		.loc 1 670 0
 751              		.cfi_startproc
 752              		@ args = 0, pretend = 0, frame = 0
 753              		@ frame_needed = 0, uses_anonymous_args = 0
 754              	.LVL56:
 755 0000 38B5     		push	{r3, r4, r5, lr}
 756              	.LCFI4:
 757              		.cfi_def_cfa_offset 16
 758              		.cfi_offset 3, -16
 759              		.cfi_offset 4, -12
 760              		.cfi_offset 5, -8
 761              		.cfi_offset 14, -4
 762 0002 0446     		mov	r4, r0
 675:../../core/ST/STM32L4xx_HAL_Driver/Src/stm32l4xx_hal_flash.c ****   uint32_t error;
 763              		.loc 1 675 0
 764 0004 FFF7FEFF 		bl	HAL_GetTick
 765              	.LVL57:
 766 0008 0546     		mov	r5, r0
 767              	.LVL58:
 768              	.L73:
 678:../../core/ST/STM32L4xx_HAL_Driver/Src/stm32l4xx_hal_flash.c ****   {
 769              		.loc 1 678 0
 770 000a 1F4B     		ldr	r3, .L83
 771 000c 1B69     		ldr	r3, [r3, #16]
 772 000e 13F4803F 		tst	r3, #65536
 773 0012 09D0     		beq	.L82
 680:../../core/ST/STM32L4xx_HAL_Driver/Src/stm32l4xx_hal_flash.c ****     {
 774              		.loc 1 680 0
 775 0014 B4F1FF3F 		cmp	r4, #-1
 776 0018 F7D0     		beq	.L73
 682:../../core/ST/STM32L4xx_HAL_Driver/Src/stm32l4xx_hal_flash.c ****       {
 777              		.loc 1 682 0
 778 001a FFF7FEFF 		bl	HAL_GetTick
 779              	.LVL59:
 780 001e 401B     		subs	r0, r0, r5
 781 0020 A042     		cmp	r0, r4
 782 0022 F2D3     		bcc	.L73
 684:../../core/ST/STM32L4xx_HAL_Driver/Src/stm32l4xx_hal_flash.c ****       }
 783              		.loc 1 684 0
 784 0024 0320     		movs	r0, #3
 785 0026 29E0     		b	.L74
 786              	.L82:
 689:../../core/ST/STM32L4xx_HAL_Driver/Src/stm32l4xx_hal_flash.c ****   error |= (FLASH->ECCR & FLASH_FLAG_ECCD);
 787              		.loc 1 689 0
 788 0028 174A     		ldr	r2, .L83
 789 002a 1369     		ldr	r3, [r2, #16]
 790 002c 23F07F43 		bic	r3, r3, #-16777216
ARM GAS  /tmp/ccvegzZU.s 			page 31


 791 0030 23F47D03 		bic	r3, r3, #16580608
 792 0034 23F47053 		bic	r3, r3, #15360
 793 0038 23F00503 		bic	r3, r3, #5
 794              	.LVL60:
 690:../../core/ST/STM32L4xx_HAL_Driver/Src/stm32l4xx_hal_flash.c **** 
 795              		.loc 1 690 0
 796 003c 9269     		ldr	r2, [r2, #24]
 797 003e 02F00042 		and	r2, r2, #-2147483648
 798              	.LVL61:
 692:../../core/ST/STM32L4xx_HAL_Driver/Src/stm32l4xx_hal_flash.c ****   {
 799              		.loc 1 692 0
 800 0042 1343     		orrs	r3, r3, r2
 801              	.LVL62:
 802 0044 11D0     		beq	.L76
 695:../../core/ST/STM32L4xx_HAL_Driver/Src/stm32l4xx_hal_flash.c **** 
 803              		.loc 1 695 0
 804 0046 1149     		ldr	r1, .L83+4
 805 0048 4A68     		ldr	r2, [r1, #4]
 806 004a 1A43     		orrs	r2, r2, r3
 807 004c 4A60     		str	r2, [r1, #4]
 698:../../core/ST/STM32L4xx_HAL_Driver/Src/stm32l4xx_hal_flash.c **** 
 808              		.loc 1 698 0
 809 004e 13F04042 		ands	r2, r3, #-1073741824
 810 0052 03D0     		beq	.L77
 698:../../core/ST/STM32L4xx_HAL_Driver/Src/stm32l4xx_hal_flash.c **** 
 811              		.loc 1 698 0 is_stmt 0 discriminator 1
 812 0054 0C49     		ldr	r1, .L83
 813 0056 8869     		ldr	r0, [r1, #24]
 814 0058 0243     		orrs	r2, r2, r0
 815 005a 8A61     		str	r2, [r1, #24]
 816              	.L77:
 698:../../core/ST/STM32L4xx_HAL_Driver/Src/stm32l4xx_hal_flash.c **** 
 817              		.loc 1 698 0 discriminator 3
 818 005c 33F04043 		bics	r3, r3, #-1073741824
 819              	.LVL63:
 820 0060 0DD0     		beq	.L79
 698:../../core/ST/STM32L4xx_HAL_Driver/Src/stm32l4xx_hal_flash.c **** 
 821              		.loc 1 698 0 discriminator 4
 822 0062 094A     		ldr	r2, .L83
 823 0064 1361     		str	r3, [r2, #16]
 700:../../core/ST/STM32L4xx_HAL_Driver/Src/stm32l4xx_hal_flash.c ****   }
 824              		.loc 1 700 0 is_stmt 1 discriminator 4
 825 0066 0120     		movs	r0, #1
 826 0068 08E0     		b	.L74
 827              	.LVL64:
 828              	.L76:
 704:../../core/ST/STM32L4xx_HAL_Driver/Src/stm32l4xx_hal_flash.c ****   {
 829              		.loc 1 704 0
 830 006a 074B     		ldr	r3, .L83
 831              	.LVL65:
 832 006c 1B69     		ldr	r3, [r3, #16]
 833 006e 13F0010F 		tst	r3, #1
 834 0072 06D0     		beq	.L80
 707:../../core/ST/STM32L4xx_HAL_Driver/Src/stm32l4xx_hal_flash.c ****   }
 835              		.loc 1 707 0 discriminator 4
 836 0074 044B     		ldr	r3, .L83
 837 0076 0122     		movs	r2, #1
ARM GAS  /tmp/ccvegzZU.s 			page 32


 838 0078 1A61     		str	r2, [r3, #16]
 711:../../core/ST/STM32L4xx_HAL_Driver/Src/stm32l4xx_hal_flash.c **** }
 839              		.loc 1 711 0 discriminator 4
 840 007a 0020     		movs	r0, #0
 841              	.L74:
 712:../../core/ST/STM32L4xx_HAL_Driver/Src/stm32l4xx_hal_flash.c **** 
 842              		.loc 1 712 0
 843 007c 38BD     		pop	{r3, r4, r5, pc}
 844              	.LVL66:
 845              	.L79:
 700:../../core/ST/STM32L4xx_HAL_Driver/Src/stm32l4xx_hal_flash.c ****   }
 846              		.loc 1 700 0
 847 007e 0120     		movs	r0, #1
 848 0080 FCE7     		b	.L74
 849              	.L80:
 711:../../core/ST/STM32L4xx_HAL_Driver/Src/stm32l4xx_hal_flash.c **** }
 850              		.loc 1 711 0
 851 0082 0020     		movs	r0, #0
 852 0084 FAE7     		b	.L74
 853              	.L84:
 854 0086 00BF     		.align	2
 855              	.L83:
 856 0088 00200240 		.word	1073881088
 857 008c 00000000 		.word	.LANCHOR0
 858              		.cfi_endproc
 859              	.LFE134:
 861              		.section	.text.HAL_FLASH_Program,"ax",%progbits
 862              		.align	1
 863              		.global	HAL_FLASH_Program
 864              		.syntax unified
 865              		.thumb
 866              		.thumb_func
 867              		.fpu fpv4-sp-d16
 869              	HAL_FLASH_Program:
 870              	.LFB123:
 192:../../core/ST/STM32L4xx_HAL_Driver/Src/stm32l4xx_hal_flash.c ****   HAL_StatusTypeDef status;
 871              		.loc 1 192 0
 872              		.cfi_startproc
 873              		@ args = 0, pretend = 0, frame = 0
 874              		@ frame_needed = 0, uses_anonymous_args = 0
 875              	.LVL67:
 876 0000 2DE9F041 		push	{r4, r5, r6, r7, r8, lr}
 877              	.LCFI5:
 878              		.cfi_def_cfa_offset 24
 879              		.cfi_offset 4, -24
 880              		.cfi_offset 5, -20
 881              		.cfi_offset 6, -16
 882              		.cfi_offset 7, -12
 883              		.cfi_offset 8, -8
 884              		.cfi_offset 14, -4
 885              	.LVL68:
 197:../../core/ST/STM32L4xx_HAL_Driver/Src/stm32l4xx_hal_flash.c **** 
 886              		.loc 1 197 0
 887 0004 284C     		ldr	r4, .L99
 888 0006 2478     		ldrb	r4, [r4]	@ zero_extendqisi2
 889 0008 012C     		cmp	r4, #1
 890 000a 4AD0     		beq	.L93
ARM GAS  /tmp/ccvegzZU.s 			page 33


 891 000c 9846     		mov	r8, r3
 892 000e 1746     		mov	r7, r2
 893 0010 0D46     		mov	r5, r1
 894 0012 0446     		mov	r4, r0
 197:../../core/ST/STM32L4xx_HAL_Driver/Src/stm32l4xx_hal_flash.c **** 
 895              		.loc 1 197 0 is_stmt 0 discriminator 2
 896 0014 244B     		ldr	r3, .L99
 897 0016 0122     		movs	r2, #1
 898              	.LVL69:
 899 0018 1A70     		strb	r2, [r3]
 203:../../core/ST/STM32L4xx_HAL_Driver/Src/stm32l4xx_hal_flash.c **** 
 900              		.loc 1 203 0 is_stmt 1 discriminator 2
 901 001a 4CF25030 		movw	r0, #50000
 902              	.LVL70:
 903 001e FFF7FEFF 		bl	FLASH_WaitForLastOperation
 904              	.LVL71:
 205:../../core/ST/STM32L4xx_HAL_Driver/Src/stm32l4xx_hal_flash.c ****   {
 905              		.loc 1 205 0 discriminator 2
 906 0022 0646     		mov	r6, r0
 907 0024 08BB     		cbnz	r0, .L87
 207:../../core/ST/STM32L4xx_HAL_Driver/Src/stm32l4xx_hal_flash.c **** 
 908              		.loc 1 207 0
 909 0026 204B     		ldr	r3, .L99
 910 0028 0022     		movs	r2, #0
 911 002a 5A60     		str	r2, [r3, #4]
 210:../../core/ST/STM32L4xx_HAL_Driver/Src/stm32l4xx_hal_flash.c ****     {
 912              		.loc 1 210 0
 913 002c 1F4B     		ldr	r3, .L99+4
 914 002e 1B68     		ldr	r3, [r3]
 915 0030 13F4806F 		tst	r3, #1024
 916 0034 1FD0     		beq	.L88
 213:../../core/ST/STM32L4xx_HAL_Driver/Src/stm32l4xx_hal_flash.c ****       pFlash.CacheToReactivate = FLASH_CACHE_DCACHE_ENABLED;
 917              		.loc 1 213 0
 918 0036 1D4A     		ldr	r2, .L99+4
 919 0038 1368     		ldr	r3, [r2]
 920 003a 23F48063 		bic	r3, r3, #1024
 921 003e 1360     		str	r3, [r2]
 214:../../core/ST/STM32L4xx_HAL_Driver/Src/stm32l4xx_hal_flash.c ****     }
 922              		.loc 1 214 0
 923 0040 194B     		ldr	r3, .L99
 924 0042 0222     		movs	r2, #2
 925 0044 1A77     		strb	r2, [r3, #28]
 926              	.L89:
 221:../../core/ST/STM32L4xx_HAL_Driver/Src/stm32l4xx_hal_flash.c ****     {
 927              		.loc 1 221 0
 928 0046 D4B1     		cbz	r4, .L97
 227:../../core/ST/STM32L4xx_HAL_Driver/Src/stm32l4xx_hal_flash.c ****     {
 929              		.loc 1 227 0
 930 0048 631E     		subs	r3, r4, #1
 931 004a 012B     		cmp	r3, #1
 932 004c 1ED9     		bls	.L98
 194:../../core/ST/STM32L4xx_HAL_Driver/Src/stm32l4xx_hal_flash.c **** 
 933              		.loc 1 194 0
 934 004e 0024     		movs	r4, #0
 935              	.LVL72:
 936              	.L91:
 244:../../core/ST/STM32L4xx_HAL_Driver/Src/stm32l4xx_hal_flash.c **** 
ARM GAS  /tmp/ccvegzZU.s 			page 34


 937              		.loc 1 244 0
 938 0050 4CF25030 		movw	r0, #50000
 939 0054 FFF7FEFF 		bl	FLASH_WaitForLastOperation
 940              	.LVL73:
 941 0058 0646     		mov	r6, r0
 942              	.LVL74:
 247:../../core/ST/STM32L4xx_HAL_Driver/Src/stm32l4xx_hal_flash.c ****     {
 943              		.loc 1 247 0
 944 005a 24B1     		cbz	r4, .L92
 249:../../core/ST/STM32L4xx_HAL_Driver/Src/stm32l4xx_hal_flash.c ****     }
 945              		.loc 1 249 0
 946 005c 134A     		ldr	r2, .L99+4
 947 005e 5369     		ldr	r3, [r2, #20]
 948 0060 23EA0404 		bic	r4, r3, r4
 949              	.LVL75:
 950 0064 5461     		str	r4, [r2, #20]
 951              	.L92:
 253:../../core/ST/STM32L4xx_HAL_Driver/Src/stm32l4xx_hal_flash.c ****   }
 952              		.loc 1 253 0
 953 0066 FFF7FEFF 		bl	FLASH_FlushCaches
 954              	.LVL76:
 955              	.L87:
 257:../../core/ST/STM32L4xx_HAL_Driver/Src/stm32l4xx_hal_flash.c **** 
 956              		.loc 1 257 0
 957 006a 0F4B     		ldr	r3, .L99
 958 006c 0022     		movs	r2, #0
 959 006e 1A70     		strb	r2, [r3]
 960              	.LVL77:
 961              	.L86:
 260:../../core/ST/STM32L4xx_HAL_Driver/Src/stm32l4xx_hal_flash.c **** 
 962              		.loc 1 260 0
 963 0070 3046     		mov	r0, r6
 964 0072 BDE8F081 		pop	{r4, r5, r6, r7, r8, pc}
 965              	.LVL78:
 966              	.L88:
 218:../../core/ST/STM32L4xx_HAL_Driver/Src/stm32l4xx_hal_flash.c ****     }
 967              		.loc 1 218 0
 968 0076 0C4B     		ldr	r3, .L99
 969 0078 0022     		movs	r2, #0
 970 007a 1A77     		strb	r2, [r3, #28]
 971 007c E3E7     		b	.L89
 972              	.L97:
 224:../../core/ST/STM32L4xx_HAL_Driver/Src/stm32l4xx_hal_flash.c ****       prog_bit = FLASH_CR_PG;
 973              		.loc 1 224 0
 974 007e 3A46     		mov	r2, r7
 975 0080 4346     		mov	r3, r8
 976 0082 2846     		mov	r0, r5
 977              	.LVL79:
 978 0084 FFF7FEFF 		bl	FLASH_Program_DoubleWord
 979              	.LVL80:
 225:../../core/ST/STM32L4xx_HAL_Driver/Src/stm32l4xx_hal_flash.c ****     }
 980              		.loc 1 225 0
 981 0088 0124     		movs	r4, #1
 982              	.LVL81:
 983 008a E1E7     		b	.L91
 984              	.LVL82:
 985              	.L98:
ARM GAS  /tmp/ccvegzZU.s 			page 35


 230:../../core/ST/STM32L4xx_HAL_Driver/Src/stm32l4xx_hal_flash.c **** 
 986              		.loc 1 230 0
 987 008c 3946     		mov	r1, r7
 988 008e 2846     		mov	r0, r5
 989              	.LVL83:
 990 0090 FFF7FEFF 		bl	FLASH_Program_Fast
 991              	.LVL84:
 233:../../core/ST/STM32L4xx_HAL_Driver/Src/stm32l4xx_hal_flash.c ****       {
 992              		.loc 1 233 0
 993 0094 022C     		cmp	r4, #2
 994 0096 01D0     		beq	.L95
 194:../../core/ST/STM32L4xx_HAL_Driver/Src/stm32l4xx_hal_flash.c **** 
 995              		.loc 1 194 0
 996 0098 0024     		movs	r4, #0
 997              	.LVL85:
 998 009a D9E7     		b	.L91
 999              	.LVL86:
 1000              	.L95:
 235:../../core/ST/STM32L4xx_HAL_Driver/Src/stm32l4xx_hal_flash.c ****       }
 1001              		.loc 1 235 0
 1002 009c 4FF48024 		mov	r4, #262144
 1003              	.LVL87:
 1004 00a0 D6E7     		b	.L91
 1005              	.LVL88:
 1006              	.L93:
 197:../../core/ST/STM32L4xx_HAL_Driver/Src/stm32l4xx_hal_flash.c **** 
 1007              		.loc 1 197 0
 1008 00a2 0226     		movs	r6, #2
 1009 00a4 E4E7     		b	.L86
 1010              	.L100:
 1011 00a6 00BF     		.align	2
 1012              	.L99:
 1013 00a8 00000000 		.word	.LANCHOR0
 1014 00ac 00200240 		.word	1073881088
 1015              		.cfi_endproc
 1016              	.LFE123:
 1018              		.section	.text.HAL_FLASH_OB_Launch,"ax",%progbits
 1019              		.align	1
 1020              		.global	HAL_FLASH_OB_Launch
 1021              		.syntax unified
 1022              		.thumb
 1023              		.thumb_func
 1024              		.fpu fpv4-sp-d16
 1026              	HAL_FLASH_OB_Launch:
 1027              	.LFB132:
 596:../../core/ST/STM32L4xx_HAL_Driver/Src/stm32l4xx_hal_flash.c ****   /* Set the bit to force the option byte reloading */
 1028              		.loc 1 596 0
 1029              		.cfi_startproc
 1030              		@ args = 0, pretend = 0, frame = 0
 1031              		@ frame_needed = 0, uses_anonymous_args = 0
 1032 0000 08B5     		push	{r3, lr}
 1033              	.LCFI6:
 1034              		.cfi_def_cfa_offset 8
 1035              		.cfi_offset 3, -8
 1036              		.cfi_offset 14, -4
 598:../../core/ST/STM32L4xx_HAL_Driver/Src/stm32l4xx_hal_flash.c **** 
 1037              		.loc 1 598 0
ARM GAS  /tmp/ccvegzZU.s 			page 36


 1038 0002 054A     		ldr	r2, .L103
 1039 0004 5369     		ldr	r3, [r2, #20]
 1040 0006 43F00063 		orr	r3, r3, #134217728
 1041 000a 5361     		str	r3, [r2, #20]
 601:../../core/ST/STM32L4xx_HAL_Driver/Src/stm32l4xx_hal_flash.c **** }
 1042              		.loc 1 601 0
 1043 000c 4CF25030 		movw	r0, #50000
 1044 0010 FFF7FEFF 		bl	FLASH_WaitForLastOperation
 1045              	.LVL89:
 602:../../core/ST/STM32L4xx_HAL_Driver/Src/stm32l4xx_hal_flash.c **** 
 1046              		.loc 1 602 0
 1047 0014 08BD     		pop	{r3, pc}
 1048              	.L104:
 1049 0016 00BF     		.align	2
 1050              	.L103:
 1051 0018 00200240 		.word	1073881088
 1052              		.cfi_endproc
 1053              	.LFE132:
 1055              		.global	pFlash
 1056              		.section	.data.pFlash,"aw",%progbits
 1057              		.align	2
 1058              		.set	.LANCHOR0,. + 0
 1061              	pFlash:
 1062 0000 00       		.byte	0
 1063 0001 000000   		.space	3
 1064 0004 00000000 		.word	0
 1065 0008 00       		.byte	0
 1066 0009 000000   		.space	3
 1067 000c 00000000 		.word	0
 1068 0010 01000000 		.word	1
 1069 0014 00000000 		.word	0
 1070 0018 00000000 		.word	0
 1071 001c 00       		.byte	0
 1072 001d 000000   		.space	3
 1073              		.text
 1074              	.Letext0:
 1075              		.file 3 "/home/mats/gcc-arm-none-eabi-7-2018-q2-update/arm-none-eabi/include/machine/_default_type
 1076              		.file 4 "/home/mats/gcc-arm-none-eabi-7-2018-q2-update/arm-none-eabi/include/sys/_stdint.h"
 1077              		.file 5 "../../core/ST/CMSIS/Include/core_cm4.h"
 1078              		.file 6 "../../core/ST/CMSIS/Device/ST/STM32L4xx/Include/system_stm32l4xx.h"
 1079              		.file 7 "../../core/ST/CMSIS/Device/ST/STM32L4xx/Include/stm32l496xx.h"
 1080              		.file 8 "../../core/ST/STM32L4xx_HAL_Driver/Inc/stm32l4xx_hal_def.h"
 1081              		.file 9 "../../core/ST/STM32L4xx_HAL_Driver/Inc/stm32l4xx_hal_flash.h"
 1082              		.file 10 "../../core/ST/STM32L4xx_HAL_Driver/Inc/stm32l4xx_hal.h"
ARM GAS  /tmp/ccvegzZU.s 			page 37

