ARM GAS  /tmp/ccFXOif7.s 			page 1


   1              		.cpu cortex-m4
   2              		.eabi_attribute 27, 1
   3              		.eabi_attribute 28, 1
   4              		.eabi_attribute 20, 1
   5              		.eabi_attribute 21, 1
   6              		.eabi_attribute 23, 3
   7              		.eabi_attribute 24, 1
   8              		.eabi_attribute 25, 1
   9              		.eabi_attribute 26, 1
  10              		.eabi_attribute 30, 1
  11              		.eabi_attribute 34, 1
  12              		.eabi_attribute 18, 4
  13              		.file	"stm32l4xx_hal_crc.c"
  14              		.text
  15              	.Ltext0:
  16              		.cfi_sections	.debug_frame
  17              		.section	.text.CRC_Handle_8,"ax",%progbits
  18              		.align	1
  19              		.syntax unified
  20              		.thumb
  21              		.thumb_func
  22              		.fpu fpv4-sp-d16
  24              	CRC_Handle_8:
  25              	.LFB130:
  26              		.file 1 "../../core/ST/STM32L4xx_HAL_Driver/Src/stm32l4xx_hal_crc.c"
   1:../../core/ST/STM32L4xx_HAL_Driver/Src/stm32l4xx_hal_crc.c **** /**
   2:../../core/ST/STM32L4xx_HAL_Driver/Src/stm32l4xx_hal_crc.c ****   ******************************************************************************
   3:../../core/ST/STM32L4xx_HAL_Driver/Src/stm32l4xx_hal_crc.c ****   * @file    stm32l4xx_hal_crc.c
   4:../../core/ST/STM32L4xx_HAL_Driver/Src/stm32l4xx_hal_crc.c ****   * @author  MCD Application Team
   5:../../core/ST/STM32L4xx_HAL_Driver/Src/stm32l4xx_hal_crc.c ****   * @brief   CRC HAL module driver.
   6:../../core/ST/STM32L4xx_HAL_Driver/Src/stm32l4xx_hal_crc.c ****   *          This file provides firmware functions to manage the following
   7:../../core/ST/STM32L4xx_HAL_Driver/Src/stm32l4xx_hal_crc.c ****   *          functionalities of the Cyclic Redundancy Check (CRC) peripheral:
   8:../../core/ST/STM32L4xx_HAL_Driver/Src/stm32l4xx_hal_crc.c ****   *           + Initialization and de-initialization functions
   9:../../core/ST/STM32L4xx_HAL_Driver/Src/stm32l4xx_hal_crc.c ****   *           + Peripheral Control functions
  10:../../core/ST/STM32L4xx_HAL_Driver/Src/stm32l4xx_hal_crc.c ****   *           + Peripheral State functions
  11:../../core/ST/STM32L4xx_HAL_Driver/Src/stm32l4xx_hal_crc.c ****   *
  12:../../core/ST/STM32L4xx_HAL_Driver/Src/stm32l4xx_hal_crc.c ****   @verbatim
  13:../../core/ST/STM32L4xx_HAL_Driver/Src/stm32l4xx_hal_crc.c ****  ===============================================================================
  14:../../core/ST/STM32L4xx_HAL_Driver/Src/stm32l4xx_hal_crc.c ****                      ##### How to use this driver #####
  15:../../core/ST/STM32L4xx_HAL_Driver/Src/stm32l4xx_hal_crc.c ****  ===============================================================================
  16:../../core/ST/STM32L4xx_HAL_Driver/Src/stm32l4xx_hal_crc.c ****     [..]
  17:../../core/ST/STM32L4xx_HAL_Driver/Src/stm32l4xx_hal_crc.c ****          (+) Enable CRC AHB clock using __HAL_RCC_CRC_CLK_ENABLE();
  18:../../core/ST/STM32L4xx_HAL_Driver/Src/stm32l4xx_hal_crc.c ****          (+) Initialize CRC calculator
  19:../../core/ST/STM32L4xx_HAL_Driver/Src/stm32l4xx_hal_crc.c ****              (++) specify generating polynomial (IP default or non-default one)
  20:../../core/ST/STM32L4xx_HAL_Driver/Src/stm32l4xx_hal_crc.c ****              (++) specify initialization value (IP default or non-default one)
  21:../../core/ST/STM32L4xx_HAL_Driver/Src/stm32l4xx_hal_crc.c ****              (++) specify input data format
  22:../../core/ST/STM32L4xx_HAL_Driver/Src/stm32l4xx_hal_crc.c ****              (++) specify input or output data inversion mode if any
  23:../../core/ST/STM32L4xx_HAL_Driver/Src/stm32l4xx_hal_crc.c ****          (+) Use HAL_CRC_Accumulate() function to compute the CRC value of the
  24:../../core/ST/STM32L4xx_HAL_Driver/Src/stm32l4xx_hal_crc.c ****              input data buffer starting with the previously computed CRC as
  25:../../core/ST/STM32L4xx_HAL_Driver/Src/stm32l4xx_hal_crc.c ****              initialization value
  26:../../core/ST/STM32L4xx_HAL_Driver/Src/stm32l4xx_hal_crc.c ****          (+) Use HAL_CRC_Calculate() function to compute the CRC value of the
  27:../../core/ST/STM32L4xx_HAL_Driver/Src/stm32l4xx_hal_crc.c ****              input data buffer starting with the defined initialization value
  28:../../core/ST/STM32L4xx_HAL_Driver/Src/stm32l4xx_hal_crc.c ****              (default or non-default) to initiate CRC calculation
  29:../../core/ST/STM32L4xx_HAL_Driver/Src/stm32l4xx_hal_crc.c **** 
  30:../../core/ST/STM32L4xx_HAL_Driver/Src/stm32l4xx_hal_crc.c ****   @endverbatim
  31:../../core/ST/STM32L4xx_HAL_Driver/Src/stm32l4xx_hal_crc.c ****   ******************************************************************************
  32:../../core/ST/STM32L4xx_HAL_Driver/Src/stm32l4xx_hal_crc.c ****   * @attention
ARM GAS  /tmp/ccFXOif7.s 			page 2


  33:../../core/ST/STM32L4xx_HAL_Driver/Src/stm32l4xx_hal_crc.c ****   *
  34:../../core/ST/STM32L4xx_HAL_Driver/Src/stm32l4xx_hal_crc.c ****   * <h2><center>&copy; COPYRIGHT(c) 2017 STMicroelectronics</center></h2>
  35:../../core/ST/STM32L4xx_HAL_Driver/Src/stm32l4xx_hal_crc.c ****   *
  36:../../core/ST/STM32L4xx_HAL_Driver/Src/stm32l4xx_hal_crc.c ****   * Redistribution and use in source and binary forms, with or without modification,
  37:../../core/ST/STM32L4xx_HAL_Driver/Src/stm32l4xx_hal_crc.c ****   * are permitted provided that the following conditions are met:
  38:../../core/ST/STM32L4xx_HAL_Driver/Src/stm32l4xx_hal_crc.c ****   *   1. Redistributions of source code must retain the above copyright notice,
  39:../../core/ST/STM32L4xx_HAL_Driver/Src/stm32l4xx_hal_crc.c ****   *      this list of conditions and the following disclaimer.
  40:../../core/ST/STM32L4xx_HAL_Driver/Src/stm32l4xx_hal_crc.c ****   *   2. Redistributions in binary form must reproduce the above copyright notice,
  41:../../core/ST/STM32L4xx_HAL_Driver/Src/stm32l4xx_hal_crc.c ****   *      this list of conditions and the following disclaimer in the documentation
  42:../../core/ST/STM32L4xx_HAL_Driver/Src/stm32l4xx_hal_crc.c ****   *      and/or other materials provided with the distribution.
  43:../../core/ST/STM32L4xx_HAL_Driver/Src/stm32l4xx_hal_crc.c ****   *   3. Neither the name of STMicroelectronics nor the names of its contributors
  44:../../core/ST/STM32L4xx_HAL_Driver/Src/stm32l4xx_hal_crc.c ****   *      may be used to endorse or promote products derived from this software
  45:../../core/ST/STM32L4xx_HAL_Driver/Src/stm32l4xx_hal_crc.c ****   *      without specific prior written permission.
  46:../../core/ST/STM32L4xx_HAL_Driver/Src/stm32l4xx_hal_crc.c ****   *
  47:../../core/ST/STM32L4xx_HAL_Driver/Src/stm32l4xx_hal_crc.c ****   * THIS SOFTWARE IS PROVIDED BY THE COPYRIGHT HOLDERS AND CONTRIBUTORS "AS IS"
  48:../../core/ST/STM32L4xx_HAL_Driver/Src/stm32l4xx_hal_crc.c ****   * AND ANY EXPRESS OR IMPLIED WARRANTIES, INCLUDING, BUT NOT LIMITED TO, THE
  49:../../core/ST/STM32L4xx_HAL_Driver/Src/stm32l4xx_hal_crc.c ****   * IMPLIED WARRANTIES OF MERCHANTABILITY AND FITNESS FOR A PARTICULAR PURPOSE ARE
  50:../../core/ST/STM32L4xx_HAL_Driver/Src/stm32l4xx_hal_crc.c ****   * DISCLAIMED. IN NO EVENT SHALL THE COPYRIGHT HOLDER OR CONTRIBUTORS BE LIABLE
  51:../../core/ST/STM32L4xx_HAL_Driver/Src/stm32l4xx_hal_crc.c ****   * FOR ANY DIRECT, INDIRECT, INCIDENTAL, SPECIAL, EXEMPLARY, OR CONSEQUENTIAL
  52:../../core/ST/STM32L4xx_HAL_Driver/Src/stm32l4xx_hal_crc.c ****   * DAMAGES (INCLUDING, BUT NOT LIMITED TO, PROCUREMENT OF SUBSTITUTE GOODS OR
  53:../../core/ST/STM32L4xx_HAL_Driver/Src/stm32l4xx_hal_crc.c ****   * SERVICES; LOSS OF USE, DATA, OR PROFITS; OR BUSINESS INTERRUPTION) HOWEVER
  54:../../core/ST/STM32L4xx_HAL_Driver/Src/stm32l4xx_hal_crc.c ****   * CAUSED AND ON ANY THEORY OF LIABILITY, WHETHER IN CONTRACT, STRICT LIABILITY,
  55:../../core/ST/STM32L4xx_HAL_Driver/Src/stm32l4xx_hal_crc.c ****   * OR TORT (INCLUDING NEGLIGENCE OR OTHERWISE) ARISING IN ANY WAY OUT OF THE USE
  56:../../core/ST/STM32L4xx_HAL_Driver/Src/stm32l4xx_hal_crc.c ****   * OF THIS SOFTWARE, EVEN IF ADVISED OF THE POSSIBILITY OF SUCH DAMAGE.
  57:../../core/ST/STM32L4xx_HAL_Driver/Src/stm32l4xx_hal_crc.c ****   *
  58:../../core/ST/STM32L4xx_HAL_Driver/Src/stm32l4xx_hal_crc.c ****   ******************************************************************************
  59:../../core/ST/STM32L4xx_HAL_Driver/Src/stm32l4xx_hal_crc.c ****   */
  60:../../core/ST/STM32L4xx_HAL_Driver/Src/stm32l4xx_hal_crc.c **** 
  61:../../core/ST/STM32L4xx_HAL_Driver/Src/stm32l4xx_hal_crc.c **** /* Includes ------------------------------------------------------------------*/
  62:../../core/ST/STM32L4xx_HAL_Driver/Src/stm32l4xx_hal_crc.c **** #include "stm32l4xx_hal.h"
  63:../../core/ST/STM32L4xx_HAL_Driver/Src/stm32l4xx_hal_crc.c **** 
  64:../../core/ST/STM32L4xx_HAL_Driver/Src/stm32l4xx_hal_crc.c **** /** @addtogroup STM32L4xx_HAL_Driver
  65:../../core/ST/STM32L4xx_HAL_Driver/Src/stm32l4xx_hal_crc.c ****   * @{
  66:../../core/ST/STM32L4xx_HAL_Driver/Src/stm32l4xx_hal_crc.c ****   */
  67:../../core/ST/STM32L4xx_HAL_Driver/Src/stm32l4xx_hal_crc.c **** 
  68:../../core/ST/STM32L4xx_HAL_Driver/Src/stm32l4xx_hal_crc.c **** /** @defgroup CRC CRC
  69:../../core/ST/STM32L4xx_HAL_Driver/Src/stm32l4xx_hal_crc.c ****   * @brief CRC HAL module driver.
  70:../../core/ST/STM32L4xx_HAL_Driver/Src/stm32l4xx_hal_crc.c ****   * @{
  71:../../core/ST/STM32L4xx_HAL_Driver/Src/stm32l4xx_hal_crc.c ****   */
  72:../../core/ST/STM32L4xx_HAL_Driver/Src/stm32l4xx_hal_crc.c **** 
  73:../../core/ST/STM32L4xx_HAL_Driver/Src/stm32l4xx_hal_crc.c **** #ifdef HAL_CRC_MODULE_ENABLED
  74:../../core/ST/STM32L4xx_HAL_Driver/Src/stm32l4xx_hal_crc.c **** 
  75:../../core/ST/STM32L4xx_HAL_Driver/Src/stm32l4xx_hal_crc.c **** /* Private typedef -----------------------------------------------------------*/
  76:../../core/ST/STM32L4xx_HAL_Driver/Src/stm32l4xx_hal_crc.c **** /* Private define ------------------------------------------------------------*/
  77:../../core/ST/STM32L4xx_HAL_Driver/Src/stm32l4xx_hal_crc.c **** /* Private macro -------------------------------------------------------------*/
  78:../../core/ST/STM32L4xx_HAL_Driver/Src/stm32l4xx_hal_crc.c **** /* Private variables ---------------------------------------------------------*/
  79:../../core/ST/STM32L4xx_HAL_Driver/Src/stm32l4xx_hal_crc.c **** /* Private function prototypes -----------------------------------------------*/
  80:../../core/ST/STM32L4xx_HAL_Driver/Src/stm32l4xx_hal_crc.c **** /** @defgroup CRC_Private_Functions CRC Private Functions
  81:../../core/ST/STM32L4xx_HAL_Driver/Src/stm32l4xx_hal_crc.c ****  * @{
  82:../../core/ST/STM32L4xx_HAL_Driver/Src/stm32l4xx_hal_crc.c ****  */
  83:../../core/ST/STM32L4xx_HAL_Driver/Src/stm32l4xx_hal_crc.c **** static uint32_t CRC_Handle_8(CRC_HandleTypeDef *hcrc, uint8_t pBuffer[], uint32_t BufferLength);
  84:../../core/ST/STM32L4xx_HAL_Driver/Src/stm32l4xx_hal_crc.c **** static uint32_t CRC_Handle_16(CRC_HandleTypeDef *hcrc, uint16_t pBuffer[], uint32_t BufferLength);
  85:../../core/ST/STM32L4xx_HAL_Driver/Src/stm32l4xx_hal_crc.c **** /**
  86:../../core/ST/STM32L4xx_HAL_Driver/Src/stm32l4xx_hal_crc.c ****   * @}
  87:../../core/ST/STM32L4xx_HAL_Driver/Src/stm32l4xx_hal_crc.c ****   */
  88:../../core/ST/STM32L4xx_HAL_Driver/Src/stm32l4xx_hal_crc.c **** 
  89:../../core/ST/STM32L4xx_HAL_Driver/Src/stm32l4xx_hal_crc.c **** /* Exported functions --------------------------------------------------------*/
ARM GAS  /tmp/ccFXOif7.s 			page 3


  90:../../core/ST/STM32L4xx_HAL_Driver/Src/stm32l4xx_hal_crc.c **** 
  91:../../core/ST/STM32L4xx_HAL_Driver/Src/stm32l4xx_hal_crc.c **** /** @defgroup CRC_Exported_Functions CRC Exported Functions
  92:../../core/ST/STM32L4xx_HAL_Driver/Src/stm32l4xx_hal_crc.c ****   * @{
  93:../../core/ST/STM32L4xx_HAL_Driver/Src/stm32l4xx_hal_crc.c ****   */
  94:../../core/ST/STM32L4xx_HAL_Driver/Src/stm32l4xx_hal_crc.c **** 
  95:../../core/ST/STM32L4xx_HAL_Driver/Src/stm32l4xx_hal_crc.c **** /** @defgroup CRC_Exported_Functions_Group1 Initialization and de-initialization functions
  96:../../core/ST/STM32L4xx_HAL_Driver/Src/stm32l4xx_hal_crc.c ****  *  @brief    Initialization and Configuration functions.
  97:../../core/ST/STM32L4xx_HAL_Driver/Src/stm32l4xx_hal_crc.c ****  *
  98:../../core/ST/STM32L4xx_HAL_Driver/Src/stm32l4xx_hal_crc.c **** @verbatim
  99:../../core/ST/STM32L4xx_HAL_Driver/Src/stm32l4xx_hal_crc.c ****  ===============================================================================
 100:../../core/ST/STM32L4xx_HAL_Driver/Src/stm32l4xx_hal_crc.c ****             ##### Initialization and de-initialization functions #####
 101:../../core/ST/STM32L4xx_HAL_Driver/Src/stm32l4xx_hal_crc.c ****  ===============================================================================
 102:../../core/ST/STM32L4xx_HAL_Driver/Src/stm32l4xx_hal_crc.c ****     [..]  This section provides functions allowing to:
 103:../../core/ST/STM32L4xx_HAL_Driver/Src/stm32l4xx_hal_crc.c ****       (+) Initialize the CRC according to the specified parameters
 104:../../core/ST/STM32L4xx_HAL_Driver/Src/stm32l4xx_hal_crc.c ****           in the CRC_InitTypeDef and create the associated handle
 105:../../core/ST/STM32L4xx_HAL_Driver/Src/stm32l4xx_hal_crc.c ****       (+) DeInitialize the CRC peripheral
 106:../../core/ST/STM32L4xx_HAL_Driver/Src/stm32l4xx_hal_crc.c ****       (+) Initialize the CRC MSP (MCU Specific Package)
 107:../../core/ST/STM32L4xx_HAL_Driver/Src/stm32l4xx_hal_crc.c ****       (+) DeInitialize the CRC MSP
 108:../../core/ST/STM32L4xx_HAL_Driver/Src/stm32l4xx_hal_crc.c **** 
 109:../../core/ST/STM32L4xx_HAL_Driver/Src/stm32l4xx_hal_crc.c **** @endverbatim
 110:../../core/ST/STM32L4xx_HAL_Driver/Src/stm32l4xx_hal_crc.c ****   * @{
 111:../../core/ST/STM32L4xx_HAL_Driver/Src/stm32l4xx_hal_crc.c ****   */
 112:../../core/ST/STM32L4xx_HAL_Driver/Src/stm32l4xx_hal_crc.c **** 
 113:../../core/ST/STM32L4xx_HAL_Driver/Src/stm32l4xx_hal_crc.c **** /**
 114:../../core/ST/STM32L4xx_HAL_Driver/Src/stm32l4xx_hal_crc.c ****   * @brief  Initialize the CRC according to the specified
 115:../../core/ST/STM32L4xx_HAL_Driver/Src/stm32l4xx_hal_crc.c ****   *         parameters in the CRC_InitTypeDef and create the associated handle.
 116:../../core/ST/STM32L4xx_HAL_Driver/Src/stm32l4xx_hal_crc.c ****   * @param  hcrc CRC handle
 117:../../core/ST/STM32L4xx_HAL_Driver/Src/stm32l4xx_hal_crc.c ****   * @retval HAL status
 118:../../core/ST/STM32L4xx_HAL_Driver/Src/stm32l4xx_hal_crc.c ****   */
 119:../../core/ST/STM32L4xx_HAL_Driver/Src/stm32l4xx_hal_crc.c **** HAL_StatusTypeDef HAL_CRC_Init(CRC_HandleTypeDef *hcrc)
 120:../../core/ST/STM32L4xx_HAL_Driver/Src/stm32l4xx_hal_crc.c **** {
 121:../../core/ST/STM32L4xx_HAL_Driver/Src/stm32l4xx_hal_crc.c ****   /* Check the CRC handle allocation */
 122:../../core/ST/STM32L4xx_HAL_Driver/Src/stm32l4xx_hal_crc.c ****   if (hcrc == NULL)
 123:../../core/ST/STM32L4xx_HAL_Driver/Src/stm32l4xx_hal_crc.c ****   {
 124:../../core/ST/STM32L4xx_HAL_Driver/Src/stm32l4xx_hal_crc.c ****     return HAL_ERROR;
 125:../../core/ST/STM32L4xx_HAL_Driver/Src/stm32l4xx_hal_crc.c ****   }
 126:../../core/ST/STM32L4xx_HAL_Driver/Src/stm32l4xx_hal_crc.c **** 
 127:../../core/ST/STM32L4xx_HAL_Driver/Src/stm32l4xx_hal_crc.c ****   /* Check the parameters */
 128:../../core/ST/STM32L4xx_HAL_Driver/Src/stm32l4xx_hal_crc.c ****   assert_param(IS_CRC_ALL_INSTANCE(hcrc->Instance));
 129:../../core/ST/STM32L4xx_HAL_Driver/Src/stm32l4xx_hal_crc.c **** 
 130:../../core/ST/STM32L4xx_HAL_Driver/Src/stm32l4xx_hal_crc.c ****   if (hcrc->State == HAL_CRC_STATE_RESET)
 131:../../core/ST/STM32L4xx_HAL_Driver/Src/stm32l4xx_hal_crc.c ****   {
 132:../../core/ST/STM32L4xx_HAL_Driver/Src/stm32l4xx_hal_crc.c ****     /* Allocate lock resource and initialize it */
 133:../../core/ST/STM32L4xx_HAL_Driver/Src/stm32l4xx_hal_crc.c ****     hcrc->Lock = HAL_UNLOCKED;
 134:../../core/ST/STM32L4xx_HAL_Driver/Src/stm32l4xx_hal_crc.c ****     /* Init the low level hardware */
 135:../../core/ST/STM32L4xx_HAL_Driver/Src/stm32l4xx_hal_crc.c ****     HAL_CRC_MspInit(hcrc);
 136:../../core/ST/STM32L4xx_HAL_Driver/Src/stm32l4xx_hal_crc.c ****   }
 137:../../core/ST/STM32L4xx_HAL_Driver/Src/stm32l4xx_hal_crc.c **** 
 138:../../core/ST/STM32L4xx_HAL_Driver/Src/stm32l4xx_hal_crc.c ****   hcrc->State = HAL_CRC_STATE_BUSY;
 139:../../core/ST/STM32L4xx_HAL_Driver/Src/stm32l4xx_hal_crc.c **** 
 140:../../core/ST/STM32L4xx_HAL_Driver/Src/stm32l4xx_hal_crc.c ****   /* check whether or not non-default generating polynomial has been
 141:../../core/ST/STM32L4xx_HAL_Driver/Src/stm32l4xx_hal_crc.c ****    * picked up by user */
 142:../../core/ST/STM32L4xx_HAL_Driver/Src/stm32l4xx_hal_crc.c ****   assert_param(IS_DEFAULT_POLYNOMIAL(hcrc->Init.DefaultPolynomialUse));
 143:../../core/ST/STM32L4xx_HAL_Driver/Src/stm32l4xx_hal_crc.c ****   if (hcrc->Init.DefaultPolynomialUse == DEFAULT_POLYNOMIAL_ENABLE)
 144:../../core/ST/STM32L4xx_HAL_Driver/Src/stm32l4xx_hal_crc.c ****   {
 145:../../core/ST/STM32L4xx_HAL_Driver/Src/stm32l4xx_hal_crc.c ****     /* initialize IP with default generating polynomial */
 146:../../core/ST/STM32L4xx_HAL_Driver/Src/stm32l4xx_hal_crc.c ****     WRITE_REG(hcrc->Instance->POL, DEFAULT_CRC32_POLY);
ARM GAS  /tmp/ccFXOif7.s 			page 4


 147:../../core/ST/STM32L4xx_HAL_Driver/Src/stm32l4xx_hal_crc.c ****     MODIFY_REG(hcrc->Instance->CR, CRC_CR_POLYSIZE, CRC_POLYLENGTH_32B);
 148:../../core/ST/STM32L4xx_HAL_Driver/Src/stm32l4xx_hal_crc.c ****   }
 149:../../core/ST/STM32L4xx_HAL_Driver/Src/stm32l4xx_hal_crc.c ****   else
 150:../../core/ST/STM32L4xx_HAL_Driver/Src/stm32l4xx_hal_crc.c ****   {
 151:../../core/ST/STM32L4xx_HAL_Driver/Src/stm32l4xx_hal_crc.c ****     /* initialize CRC IP with generating polynomial defined by user */
 152:../../core/ST/STM32L4xx_HAL_Driver/Src/stm32l4xx_hal_crc.c ****     if (HAL_CRCEx_Polynomial_Set(hcrc, hcrc->Init.GeneratingPolynomial, hcrc->Init.CRCLength) != HA
 153:../../core/ST/STM32L4xx_HAL_Driver/Src/stm32l4xx_hal_crc.c ****     {
 154:../../core/ST/STM32L4xx_HAL_Driver/Src/stm32l4xx_hal_crc.c ****       return HAL_ERROR;
 155:../../core/ST/STM32L4xx_HAL_Driver/Src/stm32l4xx_hal_crc.c ****     }
 156:../../core/ST/STM32L4xx_HAL_Driver/Src/stm32l4xx_hal_crc.c ****   }
 157:../../core/ST/STM32L4xx_HAL_Driver/Src/stm32l4xx_hal_crc.c **** 
 158:../../core/ST/STM32L4xx_HAL_Driver/Src/stm32l4xx_hal_crc.c ****   /* check whether or not non-default CRC initial value has been
 159:../../core/ST/STM32L4xx_HAL_Driver/Src/stm32l4xx_hal_crc.c ****    * picked up by user */
 160:../../core/ST/STM32L4xx_HAL_Driver/Src/stm32l4xx_hal_crc.c ****   assert_param(IS_DEFAULT_INIT_VALUE(hcrc->Init.DefaultInitValueUse));
 161:../../core/ST/STM32L4xx_HAL_Driver/Src/stm32l4xx_hal_crc.c ****   if (hcrc->Init.DefaultInitValueUse == DEFAULT_INIT_VALUE_ENABLE)
 162:../../core/ST/STM32L4xx_HAL_Driver/Src/stm32l4xx_hal_crc.c ****   {
 163:../../core/ST/STM32L4xx_HAL_Driver/Src/stm32l4xx_hal_crc.c ****     WRITE_REG(hcrc->Instance->INIT, DEFAULT_CRC_INITVALUE);
 164:../../core/ST/STM32L4xx_HAL_Driver/Src/stm32l4xx_hal_crc.c ****   }
 165:../../core/ST/STM32L4xx_HAL_Driver/Src/stm32l4xx_hal_crc.c ****   else
 166:../../core/ST/STM32L4xx_HAL_Driver/Src/stm32l4xx_hal_crc.c ****   {
 167:../../core/ST/STM32L4xx_HAL_Driver/Src/stm32l4xx_hal_crc.c ****     WRITE_REG(hcrc->Instance->INIT, hcrc->Init.InitValue);
 168:../../core/ST/STM32L4xx_HAL_Driver/Src/stm32l4xx_hal_crc.c ****   }
 169:../../core/ST/STM32L4xx_HAL_Driver/Src/stm32l4xx_hal_crc.c **** 
 170:../../core/ST/STM32L4xx_HAL_Driver/Src/stm32l4xx_hal_crc.c **** 
 171:../../core/ST/STM32L4xx_HAL_Driver/Src/stm32l4xx_hal_crc.c ****   /* set input data inversion mode */
 172:../../core/ST/STM32L4xx_HAL_Driver/Src/stm32l4xx_hal_crc.c ****   assert_param(IS_CRC_INPUTDATA_INVERSION_MODE(hcrc->Init.InputDataInversionMode));
 173:../../core/ST/STM32L4xx_HAL_Driver/Src/stm32l4xx_hal_crc.c ****   MODIFY_REG(hcrc->Instance->CR, CRC_CR_REV_IN, hcrc->Init.InputDataInversionMode);
 174:../../core/ST/STM32L4xx_HAL_Driver/Src/stm32l4xx_hal_crc.c **** 
 175:../../core/ST/STM32L4xx_HAL_Driver/Src/stm32l4xx_hal_crc.c ****   /* set output data inversion mode */
 176:../../core/ST/STM32L4xx_HAL_Driver/Src/stm32l4xx_hal_crc.c ****   assert_param(IS_CRC_OUTPUTDATA_INVERSION_MODE(hcrc->Init.OutputDataInversionMode));
 177:../../core/ST/STM32L4xx_HAL_Driver/Src/stm32l4xx_hal_crc.c ****   MODIFY_REG(hcrc->Instance->CR, CRC_CR_REV_OUT, hcrc->Init.OutputDataInversionMode);
 178:../../core/ST/STM32L4xx_HAL_Driver/Src/stm32l4xx_hal_crc.c **** 
 179:../../core/ST/STM32L4xx_HAL_Driver/Src/stm32l4xx_hal_crc.c ****   /* makes sure the input data format (bytes, halfwords or words stream)
 180:../../core/ST/STM32L4xx_HAL_Driver/Src/stm32l4xx_hal_crc.c ****    * is properly specified by user */
 181:../../core/ST/STM32L4xx_HAL_Driver/Src/stm32l4xx_hal_crc.c ****   assert_param(IS_CRC_INPUTDATA_FORMAT(hcrc->InputDataFormat));
 182:../../core/ST/STM32L4xx_HAL_Driver/Src/stm32l4xx_hal_crc.c **** 
 183:../../core/ST/STM32L4xx_HAL_Driver/Src/stm32l4xx_hal_crc.c ****   /* Change CRC peripheral state */
 184:../../core/ST/STM32L4xx_HAL_Driver/Src/stm32l4xx_hal_crc.c ****   hcrc->State = HAL_CRC_STATE_READY;
 185:../../core/ST/STM32L4xx_HAL_Driver/Src/stm32l4xx_hal_crc.c **** 
 186:../../core/ST/STM32L4xx_HAL_Driver/Src/stm32l4xx_hal_crc.c ****   /* Return function status */
 187:../../core/ST/STM32L4xx_HAL_Driver/Src/stm32l4xx_hal_crc.c ****   return HAL_OK;
 188:../../core/ST/STM32L4xx_HAL_Driver/Src/stm32l4xx_hal_crc.c **** }
 189:../../core/ST/STM32L4xx_HAL_Driver/Src/stm32l4xx_hal_crc.c **** 
 190:../../core/ST/STM32L4xx_HAL_Driver/Src/stm32l4xx_hal_crc.c **** /**
 191:../../core/ST/STM32L4xx_HAL_Driver/Src/stm32l4xx_hal_crc.c ****   * @brief  DeInitialize the CRC peripheral.
 192:../../core/ST/STM32L4xx_HAL_Driver/Src/stm32l4xx_hal_crc.c ****   * @param  hcrc CRC handle
 193:../../core/ST/STM32L4xx_HAL_Driver/Src/stm32l4xx_hal_crc.c ****   * @retval HAL status
 194:../../core/ST/STM32L4xx_HAL_Driver/Src/stm32l4xx_hal_crc.c ****   */
 195:../../core/ST/STM32L4xx_HAL_Driver/Src/stm32l4xx_hal_crc.c **** HAL_StatusTypeDef HAL_CRC_DeInit(CRC_HandleTypeDef *hcrc)
 196:../../core/ST/STM32L4xx_HAL_Driver/Src/stm32l4xx_hal_crc.c **** {
 197:../../core/ST/STM32L4xx_HAL_Driver/Src/stm32l4xx_hal_crc.c ****   /* Check the CRC handle allocation */
 198:../../core/ST/STM32L4xx_HAL_Driver/Src/stm32l4xx_hal_crc.c ****   if (hcrc == NULL)
 199:../../core/ST/STM32L4xx_HAL_Driver/Src/stm32l4xx_hal_crc.c ****   {
 200:../../core/ST/STM32L4xx_HAL_Driver/Src/stm32l4xx_hal_crc.c ****     return HAL_ERROR;
 201:../../core/ST/STM32L4xx_HAL_Driver/Src/stm32l4xx_hal_crc.c ****   }
 202:../../core/ST/STM32L4xx_HAL_Driver/Src/stm32l4xx_hal_crc.c **** 
 203:../../core/ST/STM32L4xx_HAL_Driver/Src/stm32l4xx_hal_crc.c ****   /* Check the parameters */
ARM GAS  /tmp/ccFXOif7.s 			page 5


 204:../../core/ST/STM32L4xx_HAL_Driver/Src/stm32l4xx_hal_crc.c ****   assert_param(IS_CRC_ALL_INSTANCE(hcrc->Instance));
 205:../../core/ST/STM32L4xx_HAL_Driver/Src/stm32l4xx_hal_crc.c **** 
 206:../../core/ST/STM32L4xx_HAL_Driver/Src/stm32l4xx_hal_crc.c ****   /* Check the CRC peripheral state */
 207:../../core/ST/STM32L4xx_HAL_Driver/Src/stm32l4xx_hal_crc.c ****   if (hcrc->State == HAL_CRC_STATE_BUSY)
 208:../../core/ST/STM32L4xx_HAL_Driver/Src/stm32l4xx_hal_crc.c ****   {
 209:../../core/ST/STM32L4xx_HAL_Driver/Src/stm32l4xx_hal_crc.c ****     return HAL_BUSY;
 210:../../core/ST/STM32L4xx_HAL_Driver/Src/stm32l4xx_hal_crc.c ****   }
 211:../../core/ST/STM32L4xx_HAL_Driver/Src/stm32l4xx_hal_crc.c **** 
 212:../../core/ST/STM32L4xx_HAL_Driver/Src/stm32l4xx_hal_crc.c ****   /* Change CRC peripheral state */
 213:../../core/ST/STM32L4xx_HAL_Driver/Src/stm32l4xx_hal_crc.c ****   hcrc->State = HAL_CRC_STATE_BUSY;
 214:../../core/ST/STM32L4xx_HAL_Driver/Src/stm32l4xx_hal_crc.c **** 
 215:../../core/ST/STM32L4xx_HAL_Driver/Src/stm32l4xx_hal_crc.c ****   /* Reset CRC calculation unit */
 216:../../core/ST/STM32L4xx_HAL_Driver/Src/stm32l4xx_hal_crc.c ****   __HAL_CRC_DR_RESET(hcrc);
 217:../../core/ST/STM32L4xx_HAL_Driver/Src/stm32l4xx_hal_crc.c **** 
 218:../../core/ST/STM32L4xx_HAL_Driver/Src/stm32l4xx_hal_crc.c ****   /* Reset IDR register content */
 219:../../core/ST/STM32L4xx_HAL_Driver/Src/stm32l4xx_hal_crc.c ****   CLEAR_BIT(hcrc->Instance->IDR, CRC_IDR_IDR);
 220:../../core/ST/STM32L4xx_HAL_Driver/Src/stm32l4xx_hal_crc.c **** 
 221:../../core/ST/STM32L4xx_HAL_Driver/Src/stm32l4xx_hal_crc.c ****   /* DeInit the low level hardware */
 222:../../core/ST/STM32L4xx_HAL_Driver/Src/stm32l4xx_hal_crc.c ****   HAL_CRC_MspDeInit(hcrc);
 223:../../core/ST/STM32L4xx_HAL_Driver/Src/stm32l4xx_hal_crc.c **** 
 224:../../core/ST/STM32L4xx_HAL_Driver/Src/stm32l4xx_hal_crc.c ****   /* Change CRC peripheral state */
 225:../../core/ST/STM32L4xx_HAL_Driver/Src/stm32l4xx_hal_crc.c ****   hcrc->State = HAL_CRC_STATE_RESET;
 226:../../core/ST/STM32L4xx_HAL_Driver/Src/stm32l4xx_hal_crc.c **** 
 227:../../core/ST/STM32L4xx_HAL_Driver/Src/stm32l4xx_hal_crc.c ****   /* Process unlocked */
 228:../../core/ST/STM32L4xx_HAL_Driver/Src/stm32l4xx_hal_crc.c ****   __HAL_UNLOCK(hcrc);
 229:../../core/ST/STM32L4xx_HAL_Driver/Src/stm32l4xx_hal_crc.c **** 
 230:../../core/ST/STM32L4xx_HAL_Driver/Src/stm32l4xx_hal_crc.c ****   /* Return function status */
 231:../../core/ST/STM32L4xx_HAL_Driver/Src/stm32l4xx_hal_crc.c ****   return HAL_OK;
 232:../../core/ST/STM32L4xx_HAL_Driver/Src/stm32l4xx_hal_crc.c **** }
 233:../../core/ST/STM32L4xx_HAL_Driver/Src/stm32l4xx_hal_crc.c **** 
 234:../../core/ST/STM32L4xx_HAL_Driver/Src/stm32l4xx_hal_crc.c **** /**
 235:../../core/ST/STM32L4xx_HAL_Driver/Src/stm32l4xx_hal_crc.c ****   * @brief  Initializes the CRC MSP.
 236:../../core/ST/STM32L4xx_HAL_Driver/Src/stm32l4xx_hal_crc.c ****   * @param  hcrc CRC handle
 237:../../core/ST/STM32L4xx_HAL_Driver/Src/stm32l4xx_hal_crc.c ****   * @retval None
 238:../../core/ST/STM32L4xx_HAL_Driver/Src/stm32l4xx_hal_crc.c ****   */
 239:../../core/ST/STM32L4xx_HAL_Driver/Src/stm32l4xx_hal_crc.c **** __weak void HAL_CRC_MspInit(CRC_HandleTypeDef *hcrc)
 240:../../core/ST/STM32L4xx_HAL_Driver/Src/stm32l4xx_hal_crc.c **** {
 241:../../core/ST/STM32L4xx_HAL_Driver/Src/stm32l4xx_hal_crc.c ****   /* Prevent unused argument(s) compilation warning */
 242:../../core/ST/STM32L4xx_HAL_Driver/Src/stm32l4xx_hal_crc.c ****   UNUSED(hcrc);
 243:../../core/ST/STM32L4xx_HAL_Driver/Src/stm32l4xx_hal_crc.c **** 
 244:../../core/ST/STM32L4xx_HAL_Driver/Src/stm32l4xx_hal_crc.c ****   /* NOTE : This function should not be modified, when the callback is needed,
 245:../../core/ST/STM32L4xx_HAL_Driver/Src/stm32l4xx_hal_crc.c ****             the HAL_CRC_MspInit can be implemented in the user file
 246:../../core/ST/STM32L4xx_HAL_Driver/Src/stm32l4xx_hal_crc.c ****    */
 247:../../core/ST/STM32L4xx_HAL_Driver/Src/stm32l4xx_hal_crc.c **** }
 248:../../core/ST/STM32L4xx_HAL_Driver/Src/stm32l4xx_hal_crc.c **** 
 249:../../core/ST/STM32L4xx_HAL_Driver/Src/stm32l4xx_hal_crc.c **** /**
 250:../../core/ST/STM32L4xx_HAL_Driver/Src/stm32l4xx_hal_crc.c ****   * @brief  DeInitialize the CRC MSP.
 251:../../core/ST/STM32L4xx_HAL_Driver/Src/stm32l4xx_hal_crc.c ****   * @param  hcrc CRC handle
 252:../../core/ST/STM32L4xx_HAL_Driver/Src/stm32l4xx_hal_crc.c ****   * @retval None
 253:../../core/ST/STM32L4xx_HAL_Driver/Src/stm32l4xx_hal_crc.c ****   */
 254:../../core/ST/STM32L4xx_HAL_Driver/Src/stm32l4xx_hal_crc.c **** __weak void HAL_CRC_MspDeInit(CRC_HandleTypeDef *hcrc)
 255:../../core/ST/STM32L4xx_HAL_Driver/Src/stm32l4xx_hal_crc.c **** {
 256:../../core/ST/STM32L4xx_HAL_Driver/Src/stm32l4xx_hal_crc.c ****   /* Prevent unused argument(s) compilation warning */
 257:../../core/ST/STM32L4xx_HAL_Driver/Src/stm32l4xx_hal_crc.c ****   UNUSED(hcrc);
 258:../../core/ST/STM32L4xx_HAL_Driver/Src/stm32l4xx_hal_crc.c **** 
 259:../../core/ST/STM32L4xx_HAL_Driver/Src/stm32l4xx_hal_crc.c ****   /* NOTE : This function should not be modified, when the callback is needed,
 260:../../core/ST/STM32L4xx_HAL_Driver/Src/stm32l4xx_hal_crc.c ****             the HAL_CRC_MspDeInit can be implemented in the user file
ARM GAS  /tmp/ccFXOif7.s 			page 6


 261:../../core/ST/STM32L4xx_HAL_Driver/Src/stm32l4xx_hal_crc.c ****    */
 262:../../core/ST/STM32L4xx_HAL_Driver/Src/stm32l4xx_hal_crc.c **** }
 263:../../core/ST/STM32L4xx_HAL_Driver/Src/stm32l4xx_hal_crc.c **** 
 264:../../core/ST/STM32L4xx_HAL_Driver/Src/stm32l4xx_hal_crc.c **** /**
 265:../../core/ST/STM32L4xx_HAL_Driver/Src/stm32l4xx_hal_crc.c ****   * @}
 266:../../core/ST/STM32L4xx_HAL_Driver/Src/stm32l4xx_hal_crc.c ****   */
 267:../../core/ST/STM32L4xx_HAL_Driver/Src/stm32l4xx_hal_crc.c **** 
 268:../../core/ST/STM32L4xx_HAL_Driver/Src/stm32l4xx_hal_crc.c **** /** @defgroup CRC_Exported_Functions_Group2 Peripheral Control functions
 269:../../core/ST/STM32L4xx_HAL_Driver/Src/stm32l4xx_hal_crc.c ****  *  @brief    management functions.
 270:../../core/ST/STM32L4xx_HAL_Driver/Src/stm32l4xx_hal_crc.c ****  *
 271:../../core/ST/STM32L4xx_HAL_Driver/Src/stm32l4xx_hal_crc.c **** @verbatim
 272:../../core/ST/STM32L4xx_HAL_Driver/Src/stm32l4xx_hal_crc.c ****  ===============================================================================
 273:../../core/ST/STM32L4xx_HAL_Driver/Src/stm32l4xx_hal_crc.c ****                       ##### Peripheral Control functions #####
 274:../../core/ST/STM32L4xx_HAL_Driver/Src/stm32l4xx_hal_crc.c ****  ===============================================================================
 275:../../core/ST/STM32L4xx_HAL_Driver/Src/stm32l4xx_hal_crc.c ****     [..]  This section provides functions allowing to:
 276:../../core/ST/STM32L4xx_HAL_Driver/Src/stm32l4xx_hal_crc.c ****       (+) compute the 7, 8, 16 or 32-bit CRC value of an 8, 16 or 32-bit data buffer
 277:../../core/ST/STM32L4xx_HAL_Driver/Src/stm32l4xx_hal_crc.c ****           using combination of the previous CRC value and the new one.
 278:../../core/ST/STM32L4xx_HAL_Driver/Src/stm32l4xx_hal_crc.c **** 
 279:../../core/ST/STM32L4xx_HAL_Driver/Src/stm32l4xx_hal_crc.c ****        [..]  or
 280:../../core/ST/STM32L4xx_HAL_Driver/Src/stm32l4xx_hal_crc.c **** 
 281:../../core/ST/STM32L4xx_HAL_Driver/Src/stm32l4xx_hal_crc.c ****       (+) compute the 7, 8, 16 or 32-bit CRC value of an 8, 16 or 32-bit data buffer
 282:../../core/ST/STM32L4xx_HAL_Driver/Src/stm32l4xx_hal_crc.c ****           independently of the previous CRC value.
 283:../../core/ST/STM32L4xx_HAL_Driver/Src/stm32l4xx_hal_crc.c **** 
 284:../../core/ST/STM32L4xx_HAL_Driver/Src/stm32l4xx_hal_crc.c **** @endverbatim
 285:../../core/ST/STM32L4xx_HAL_Driver/Src/stm32l4xx_hal_crc.c ****   * @{
 286:../../core/ST/STM32L4xx_HAL_Driver/Src/stm32l4xx_hal_crc.c ****   */
 287:../../core/ST/STM32L4xx_HAL_Driver/Src/stm32l4xx_hal_crc.c **** 
 288:../../core/ST/STM32L4xx_HAL_Driver/Src/stm32l4xx_hal_crc.c **** /**
 289:../../core/ST/STM32L4xx_HAL_Driver/Src/stm32l4xx_hal_crc.c ****   * @brief  Compute the 7, 8, 16 or 32-bit CRC value of an 8, 16 or 32-bit data buffer
 290:../../core/ST/STM32L4xx_HAL_Driver/Src/stm32l4xx_hal_crc.c ****   *         starting with the previously computed CRC as initialization value.
 291:../../core/ST/STM32L4xx_HAL_Driver/Src/stm32l4xx_hal_crc.c ****   * @param  hcrc CRC handle
 292:../../core/ST/STM32L4xx_HAL_Driver/Src/stm32l4xx_hal_crc.c ****   * @param  pBuffer pointer to the input data buffer, exact input data format is
 293:../../core/ST/STM32L4xx_HAL_Driver/Src/stm32l4xx_hal_crc.c ****   *         provided by hcrc->InputDataFormat.
 294:../../core/ST/STM32L4xx_HAL_Driver/Src/stm32l4xx_hal_crc.c ****   * @param  BufferLength input data buffer length (number of bytes if pBuffer
 295:../../core/ST/STM32L4xx_HAL_Driver/Src/stm32l4xx_hal_crc.c ****   *         type is * uint8_t, number of half-words if pBuffer type is * uint16_t,
 296:../../core/ST/STM32L4xx_HAL_Driver/Src/stm32l4xx_hal_crc.c ****   *         number of words if pBuffer type is * uint32_t).
 297:../../core/ST/STM32L4xx_HAL_Driver/Src/stm32l4xx_hal_crc.c ****   * @note  By default, the API expects a uint32_t pointer as input buffer parameter.
 298:../../core/ST/STM32L4xx_HAL_Driver/Src/stm32l4xx_hal_crc.c ****   *        Input buffer pointers with other types simply need to be cast in uint32_t
 299:../../core/ST/STM32L4xx_HAL_Driver/Src/stm32l4xx_hal_crc.c ****   *        and the API will internally adjust its input data processing based on the
 300:../../core/ST/STM32L4xx_HAL_Driver/Src/stm32l4xx_hal_crc.c ****   *        handle field hcrc->InputDataFormat.
 301:../../core/ST/STM32L4xx_HAL_Driver/Src/stm32l4xx_hal_crc.c ****   * @retval uint32_t CRC (returned value LSBs for CRC shorter than 32 bits)
 302:../../core/ST/STM32L4xx_HAL_Driver/Src/stm32l4xx_hal_crc.c ****   */
 303:../../core/ST/STM32L4xx_HAL_Driver/Src/stm32l4xx_hal_crc.c **** uint32_t HAL_CRC_Accumulate(CRC_HandleTypeDef *hcrc, uint32_t pBuffer[], uint32_t BufferLength)
 304:../../core/ST/STM32L4xx_HAL_Driver/Src/stm32l4xx_hal_crc.c **** {
 305:../../core/ST/STM32L4xx_HAL_Driver/Src/stm32l4xx_hal_crc.c ****   uint32_t index;      /* CRC input data buffer index */
 306:../../core/ST/STM32L4xx_HAL_Driver/Src/stm32l4xx_hal_crc.c ****   uint32_t temp = 0U;  /* CRC output (read from hcrc->Instance->DR register) */
 307:../../core/ST/STM32L4xx_HAL_Driver/Src/stm32l4xx_hal_crc.c **** 
 308:../../core/ST/STM32L4xx_HAL_Driver/Src/stm32l4xx_hal_crc.c ****   /* Change CRC peripheral state */
 309:../../core/ST/STM32L4xx_HAL_Driver/Src/stm32l4xx_hal_crc.c ****   hcrc->State = HAL_CRC_STATE_BUSY;
 310:../../core/ST/STM32L4xx_HAL_Driver/Src/stm32l4xx_hal_crc.c **** 
 311:../../core/ST/STM32L4xx_HAL_Driver/Src/stm32l4xx_hal_crc.c ****   switch (hcrc->InputDataFormat)
 312:../../core/ST/STM32L4xx_HAL_Driver/Src/stm32l4xx_hal_crc.c ****   {
 313:../../core/ST/STM32L4xx_HAL_Driver/Src/stm32l4xx_hal_crc.c ****     case CRC_INPUTDATA_FORMAT_WORDS:
 314:../../core/ST/STM32L4xx_HAL_Driver/Src/stm32l4xx_hal_crc.c ****       /* Enter Data to the CRC calculator */
 315:../../core/ST/STM32L4xx_HAL_Driver/Src/stm32l4xx_hal_crc.c ****       for (index = 0U; index < BufferLength; index++)
 316:../../core/ST/STM32L4xx_HAL_Driver/Src/stm32l4xx_hal_crc.c ****       {
 317:../../core/ST/STM32L4xx_HAL_Driver/Src/stm32l4xx_hal_crc.c ****         hcrc->Instance->DR = pBuffer[index];
ARM GAS  /tmp/ccFXOif7.s 			page 7


 318:../../core/ST/STM32L4xx_HAL_Driver/Src/stm32l4xx_hal_crc.c ****       }
 319:../../core/ST/STM32L4xx_HAL_Driver/Src/stm32l4xx_hal_crc.c ****       temp = hcrc->Instance->DR;
 320:../../core/ST/STM32L4xx_HAL_Driver/Src/stm32l4xx_hal_crc.c ****       break;
 321:../../core/ST/STM32L4xx_HAL_Driver/Src/stm32l4xx_hal_crc.c **** 
 322:../../core/ST/STM32L4xx_HAL_Driver/Src/stm32l4xx_hal_crc.c ****     case CRC_INPUTDATA_FORMAT_BYTES:
 323:../../core/ST/STM32L4xx_HAL_Driver/Src/stm32l4xx_hal_crc.c ****       temp = CRC_Handle_8(hcrc, (uint8_t *)pBuffer, BufferLength);
 324:../../core/ST/STM32L4xx_HAL_Driver/Src/stm32l4xx_hal_crc.c ****       break;
 325:../../core/ST/STM32L4xx_HAL_Driver/Src/stm32l4xx_hal_crc.c **** 
 326:../../core/ST/STM32L4xx_HAL_Driver/Src/stm32l4xx_hal_crc.c ****     case CRC_INPUTDATA_FORMAT_HALFWORDS:
 327:../../core/ST/STM32L4xx_HAL_Driver/Src/stm32l4xx_hal_crc.c ****       temp = CRC_Handle_16(hcrc, (uint16_t *)(void *)pBuffer, BufferLength);    /* Derogation Misra
 328:../../core/ST/STM32L4xx_HAL_Driver/Src/stm32l4xx_hal_crc.c ****       break;
 329:../../core/ST/STM32L4xx_HAL_Driver/Src/stm32l4xx_hal_crc.c ****     default:
 330:../../core/ST/STM32L4xx_HAL_Driver/Src/stm32l4xx_hal_crc.c ****       break;
 331:../../core/ST/STM32L4xx_HAL_Driver/Src/stm32l4xx_hal_crc.c ****   }
 332:../../core/ST/STM32L4xx_HAL_Driver/Src/stm32l4xx_hal_crc.c **** 
 333:../../core/ST/STM32L4xx_HAL_Driver/Src/stm32l4xx_hal_crc.c ****   /* Change CRC peripheral state */
 334:../../core/ST/STM32L4xx_HAL_Driver/Src/stm32l4xx_hal_crc.c ****   hcrc->State = HAL_CRC_STATE_READY;
 335:../../core/ST/STM32L4xx_HAL_Driver/Src/stm32l4xx_hal_crc.c **** 
 336:../../core/ST/STM32L4xx_HAL_Driver/Src/stm32l4xx_hal_crc.c ****   /* Return the CRC computed value */
 337:../../core/ST/STM32L4xx_HAL_Driver/Src/stm32l4xx_hal_crc.c ****   return temp;
 338:../../core/ST/STM32L4xx_HAL_Driver/Src/stm32l4xx_hal_crc.c **** }
 339:../../core/ST/STM32L4xx_HAL_Driver/Src/stm32l4xx_hal_crc.c **** 
 340:../../core/ST/STM32L4xx_HAL_Driver/Src/stm32l4xx_hal_crc.c **** /**
 341:../../core/ST/STM32L4xx_HAL_Driver/Src/stm32l4xx_hal_crc.c ****   * @brief  Compute the 7, 8, 16 or 32-bit CRC value of an 8, 16 or 32-bit data buffer
 342:../../core/ST/STM32L4xx_HAL_Driver/Src/stm32l4xx_hal_crc.c ****   *         starting with hcrc->Instance->INIT as initialization value.
 343:../../core/ST/STM32L4xx_HAL_Driver/Src/stm32l4xx_hal_crc.c ****   * @param  hcrc CRC handle
 344:../../core/ST/STM32L4xx_HAL_Driver/Src/stm32l4xx_hal_crc.c ****   * @param  pBuffer pointer to the input data buffer, exact input data format is
 345:../../core/ST/STM32L4xx_HAL_Driver/Src/stm32l4xx_hal_crc.c ****   *         provided by hcrc->InputDataFormat.
 346:../../core/ST/STM32L4xx_HAL_Driver/Src/stm32l4xx_hal_crc.c ****   * @param  BufferLength input data buffer length (number of bytes if pBuffer
 347:../../core/ST/STM32L4xx_HAL_Driver/Src/stm32l4xx_hal_crc.c ****   *         type is * uint8_t, number of half-words if pBuffer type is * uint16_t,
 348:../../core/ST/STM32L4xx_HAL_Driver/Src/stm32l4xx_hal_crc.c ****   *         number of words if pBuffer type is * uint32_t).
 349:../../core/ST/STM32L4xx_HAL_Driver/Src/stm32l4xx_hal_crc.c ****   * @note  By default, the API expects a uint32_t pointer as input buffer parameter.
 350:../../core/ST/STM32L4xx_HAL_Driver/Src/stm32l4xx_hal_crc.c ****   *        Input buffer pointers with other types simply need to be cast in uint32_t
 351:../../core/ST/STM32L4xx_HAL_Driver/Src/stm32l4xx_hal_crc.c ****   *        and the API will internally adjust its input data processing based on the
 352:../../core/ST/STM32L4xx_HAL_Driver/Src/stm32l4xx_hal_crc.c ****   *        handle field hcrc->InputDataFormat.
 353:../../core/ST/STM32L4xx_HAL_Driver/Src/stm32l4xx_hal_crc.c ****   * @retval uint32_t CRC (returned value LSBs for CRC shorter than 32 bits)
 354:../../core/ST/STM32L4xx_HAL_Driver/Src/stm32l4xx_hal_crc.c ****   */
 355:../../core/ST/STM32L4xx_HAL_Driver/Src/stm32l4xx_hal_crc.c **** uint32_t HAL_CRC_Calculate(CRC_HandleTypeDef *hcrc, uint32_t pBuffer[], uint32_t BufferLength)
 356:../../core/ST/STM32L4xx_HAL_Driver/Src/stm32l4xx_hal_crc.c **** {
 357:../../core/ST/STM32L4xx_HAL_Driver/Src/stm32l4xx_hal_crc.c ****   uint32_t index;      /* CRC input data buffer index */
 358:../../core/ST/STM32L4xx_HAL_Driver/Src/stm32l4xx_hal_crc.c ****   uint32_t temp = 0U;  /* CRC output (read from hcrc->Instance->DR register) */
 359:../../core/ST/STM32L4xx_HAL_Driver/Src/stm32l4xx_hal_crc.c **** 
 360:../../core/ST/STM32L4xx_HAL_Driver/Src/stm32l4xx_hal_crc.c ****   /* Change CRC peripheral state */
 361:../../core/ST/STM32L4xx_HAL_Driver/Src/stm32l4xx_hal_crc.c ****   hcrc->State = HAL_CRC_STATE_BUSY;
 362:../../core/ST/STM32L4xx_HAL_Driver/Src/stm32l4xx_hal_crc.c **** 
 363:../../core/ST/STM32L4xx_HAL_Driver/Src/stm32l4xx_hal_crc.c ****   /* Reset CRC Calculation Unit (hcrc->Instance->INIT is
 364:../../core/ST/STM32L4xx_HAL_Driver/Src/stm32l4xx_hal_crc.c ****   *  written in hcrc->Instance->DR) */
 365:../../core/ST/STM32L4xx_HAL_Driver/Src/stm32l4xx_hal_crc.c ****   __HAL_CRC_DR_RESET(hcrc);
 366:../../core/ST/STM32L4xx_HAL_Driver/Src/stm32l4xx_hal_crc.c **** 
 367:../../core/ST/STM32L4xx_HAL_Driver/Src/stm32l4xx_hal_crc.c ****   switch (hcrc->InputDataFormat)
 368:../../core/ST/STM32L4xx_HAL_Driver/Src/stm32l4xx_hal_crc.c ****   {
 369:../../core/ST/STM32L4xx_HAL_Driver/Src/stm32l4xx_hal_crc.c ****     case CRC_INPUTDATA_FORMAT_WORDS:
 370:../../core/ST/STM32L4xx_HAL_Driver/Src/stm32l4xx_hal_crc.c ****       /* Enter 32-bit input data to the CRC calculator */
 371:../../core/ST/STM32L4xx_HAL_Driver/Src/stm32l4xx_hal_crc.c ****       for (index = 0U; index < BufferLength; index++)
 372:../../core/ST/STM32L4xx_HAL_Driver/Src/stm32l4xx_hal_crc.c ****       {
 373:../../core/ST/STM32L4xx_HAL_Driver/Src/stm32l4xx_hal_crc.c ****         hcrc->Instance->DR = pBuffer[index];
 374:../../core/ST/STM32L4xx_HAL_Driver/Src/stm32l4xx_hal_crc.c ****       }
ARM GAS  /tmp/ccFXOif7.s 			page 8


 375:../../core/ST/STM32L4xx_HAL_Driver/Src/stm32l4xx_hal_crc.c ****       temp = hcrc->Instance->DR;
 376:../../core/ST/STM32L4xx_HAL_Driver/Src/stm32l4xx_hal_crc.c ****       break;
 377:../../core/ST/STM32L4xx_HAL_Driver/Src/stm32l4xx_hal_crc.c **** 
 378:../../core/ST/STM32L4xx_HAL_Driver/Src/stm32l4xx_hal_crc.c ****     case CRC_INPUTDATA_FORMAT_BYTES:
 379:../../core/ST/STM32L4xx_HAL_Driver/Src/stm32l4xx_hal_crc.c ****       /* Specific 8-bit input data handling  */
 380:../../core/ST/STM32L4xx_HAL_Driver/Src/stm32l4xx_hal_crc.c ****       temp = CRC_Handle_8(hcrc, (uint8_t *)pBuffer, BufferLength);
 381:../../core/ST/STM32L4xx_HAL_Driver/Src/stm32l4xx_hal_crc.c ****       break;
 382:../../core/ST/STM32L4xx_HAL_Driver/Src/stm32l4xx_hal_crc.c **** 
 383:../../core/ST/STM32L4xx_HAL_Driver/Src/stm32l4xx_hal_crc.c ****     case CRC_INPUTDATA_FORMAT_HALFWORDS:
 384:../../core/ST/STM32L4xx_HAL_Driver/Src/stm32l4xx_hal_crc.c ****       /* Specific 16-bit input data handling  */
 385:../../core/ST/STM32L4xx_HAL_Driver/Src/stm32l4xx_hal_crc.c ****       temp = CRC_Handle_16(hcrc, (uint16_t *)(void *)pBuffer, BufferLength);    /* Derogation Misra
 386:../../core/ST/STM32L4xx_HAL_Driver/Src/stm32l4xx_hal_crc.c ****       break;
 387:../../core/ST/STM32L4xx_HAL_Driver/Src/stm32l4xx_hal_crc.c **** 
 388:../../core/ST/STM32L4xx_HAL_Driver/Src/stm32l4xx_hal_crc.c ****     default:
 389:../../core/ST/STM32L4xx_HAL_Driver/Src/stm32l4xx_hal_crc.c ****       break;
 390:../../core/ST/STM32L4xx_HAL_Driver/Src/stm32l4xx_hal_crc.c ****   }
 391:../../core/ST/STM32L4xx_HAL_Driver/Src/stm32l4xx_hal_crc.c **** 
 392:../../core/ST/STM32L4xx_HAL_Driver/Src/stm32l4xx_hal_crc.c ****   /* Change CRC peripheral state */
 393:../../core/ST/STM32L4xx_HAL_Driver/Src/stm32l4xx_hal_crc.c ****   hcrc->State = HAL_CRC_STATE_READY;
 394:../../core/ST/STM32L4xx_HAL_Driver/Src/stm32l4xx_hal_crc.c **** 
 395:../../core/ST/STM32L4xx_HAL_Driver/Src/stm32l4xx_hal_crc.c ****   /* Return the CRC computed value */
 396:../../core/ST/STM32L4xx_HAL_Driver/Src/stm32l4xx_hal_crc.c ****   return temp;
 397:../../core/ST/STM32L4xx_HAL_Driver/Src/stm32l4xx_hal_crc.c **** }
 398:../../core/ST/STM32L4xx_HAL_Driver/Src/stm32l4xx_hal_crc.c **** 
 399:../../core/ST/STM32L4xx_HAL_Driver/Src/stm32l4xx_hal_crc.c **** /**
 400:../../core/ST/STM32L4xx_HAL_Driver/Src/stm32l4xx_hal_crc.c ****   * @}
 401:../../core/ST/STM32L4xx_HAL_Driver/Src/stm32l4xx_hal_crc.c ****   */
 402:../../core/ST/STM32L4xx_HAL_Driver/Src/stm32l4xx_hal_crc.c **** 
 403:../../core/ST/STM32L4xx_HAL_Driver/Src/stm32l4xx_hal_crc.c **** /** @defgroup CRC_Exported_Functions_Group3 Peripheral State functions
 404:../../core/ST/STM32L4xx_HAL_Driver/Src/stm32l4xx_hal_crc.c ****  *  @brief    Peripheral State functions.
 405:../../core/ST/STM32L4xx_HAL_Driver/Src/stm32l4xx_hal_crc.c ****  *
 406:../../core/ST/STM32L4xx_HAL_Driver/Src/stm32l4xx_hal_crc.c **** @verbatim
 407:../../core/ST/STM32L4xx_HAL_Driver/Src/stm32l4xx_hal_crc.c ****  ===============================================================================
 408:../../core/ST/STM32L4xx_HAL_Driver/Src/stm32l4xx_hal_crc.c ****                       ##### Peripheral State functions #####
 409:../../core/ST/STM32L4xx_HAL_Driver/Src/stm32l4xx_hal_crc.c ****  ===============================================================================
 410:../../core/ST/STM32L4xx_HAL_Driver/Src/stm32l4xx_hal_crc.c ****     [..]
 411:../../core/ST/STM32L4xx_HAL_Driver/Src/stm32l4xx_hal_crc.c ****     This subsection permits to get in run-time the status of the peripheral.
 412:../../core/ST/STM32L4xx_HAL_Driver/Src/stm32l4xx_hal_crc.c **** 
 413:../../core/ST/STM32L4xx_HAL_Driver/Src/stm32l4xx_hal_crc.c **** @endverbatim
 414:../../core/ST/STM32L4xx_HAL_Driver/Src/stm32l4xx_hal_crc.c ****   * @{
 415:../../core/ST/STM32L4xx_HAL_Driver/Src/stm32l4xx_hal_crc.c ****   */
 416:../../core/ST/STM32L4xx_HAL_Driver/Src/stm32l4xx_hal_crc.c **** 
 417:../../core/ST/STM32L4xx_HAL_Driver/Src/stm32l4xx_hal_crc.c **** /**
 418:../../core/ST/STM32L4xx_HAL_Driver/Src/stm32l4xx_hal_crc.c ****   * @brief  Return the CRC handle state.
 419:../../core/ST/STM32L4xx_HAL_Driver/Src/stm32l4xx_hal_crc.c ****   * @param  hcrc CRC handle
 420:../../core/ST/STM32L4xx_HAL_Driver/Src/stm32l4xx_hal_crc.c ****   * @retval HAL state
 421:../../core/ST/STM32L4xx_HAL_Driver/Src/stm32l4xx_hal_crc.c ****   */
 422:../../core/ST/STM32L4xx_HAL_Driver/Src/stm32l4xx_hal_crc.c **** HAL_CRC_StateTypeDef HAL_CRC_GetState(CRC_HandleTypeDef *hcrc)
 423:../../core/ST/STM32L4xx_HAL_Driver/Src/stm32l4xx_hal_crc.c **** {
 424:../../core/ST/STM32L4xx_HAL_Driver/Src/stm32l4xx_hal_crc.c ****   /* Return CRC handle state */
 425:../../core/ST/STM32L4xx_HAL_Driver/Src/stm32l4xx_hal_crc.c ****   return hcrc->State;
 426:../../core/ST/STM32L4xx_HAL_Driver/Src/stm32l4xx_hal_crc.c **** }
 427:../../core/ST/STM32L4xx_HAL_Driver/Src/stm32l4xx_hal_crc.c **** 
 428:../../core/ST/STM32L4xx_HAL_Driver/Src/stm32l4xx_hal_crc.c **** /**
 429:../../core/ST/STM32L4xx_HAL_Driver/Src/stm32l4xx_hal_crc.c ****   * @}
 430:../../core/ST/STM32L4xx_HAL_Driver/Src/stm32l4xx_hal_crc.c ****   */
 431:../../core/ST/STM32L4xx_HAL_Driver/Src/stm32l4xx_hal_crc.c **** 
ARM GAS  /tmp/ccFXOif7.s 			page 9


 432:../../core/ST/STM32L4xx_HAL_Driver/Src/stm32l4xx_hal_crc.c **** /**
 433:../../core/ST/STM32L4xx_HAL_Driver/Src/stm32l4xx_hal_crc.c ****   * @}
 434:../../core/ST/STM32L4xx_HAL_Driver/Src/stm32l4xx_hal_crc.c ****   */
 435:../../core/ST/STM32L4xx_HAL_Driver/Src/stm32l4xx_hal_crc.c **** 
 436:../../core/ST/STM32L4xx_HAL_Driver/Src/stm32l4xx_hal_crc.c **** /** @addtogroup CRC_Private_Functions
 437:../../core/ST/STM32L4xx_HAL_Driver/Src/stm32l4xx_hal_crc.c ****  * @{
 438:../../core/ST/STM32L4xx_HAL_Driver/Src/stm32l4xx_hal_crc.c ****  */
 439:../../core/ST/STM32L4xx_HAL_Driver/Src/stm32l4xx_hal_crc.c **** 
 440:../../core/ST/STM32L4xx_HAL_Driver/Src/stm32l4xx_hal_crc.c **** /**
 441:../../core/ST/STM32L4xx_HAL_Driver/Src/stm32l4xx_hal_crc.c ****   * @brief  Enter 8-bit input data to the CRC calculator.
 442:../../core/ST/STM32L4xx_HAL_Driver/Src/stm32l4xx_hal_crc.c ****   *         Specific data handling to optimize processing time.
 443:../../core/ST/STM32L4xx_HAL_Driver/Src/stm32l4xx_hal_crc.c ****   * @param  hcrc CRC handle
 444:../../core/ST/STM32L4xx_HAL_Driver/Src/stm32l4xx_hal_crc.c ****   * @param  pBuffer pointer to the input data buffer
 445:../../core/ST/STM32L4xx_HAL_Driver/Src/stm32l4xx_hal_crc.c ****   * @param  BufferLength input data buffer length
 446:../../core/ST/STM32L4xx_HAL_Driver/Src/stm32l4xx_hal_crc.c ****   * @retval uint32_t CRC (returned value LSBs for CRC shorter than 32 bits)
 447:../../core/ST/STM32L4xx_HAL_Driver/Src/stm32l4xx_hal_crc.c ****   */
 448:../../core/ST/STM32L4xx_HAL_Driver/Src/stm32l4xx_hal_crc.c **** static uint32_t CRC_Handle_8(CRC_HandleTypeDef *hcrc, uint8_t pBuffer[], uint32_t BufferLength)
 449:../../core/ST/STM32L4xx_HAL_Driver/Src/stm32l4xx_hal_crc.c **** {
  27              		.loc 1 449 0
  28              		.cfi_startproc
  29              		@ args = 0, pretend = 0, frame = 0
  30              		@ frame_needed = 0, uses_anonymous_args = 0
  31              		@ link register save eliminated.
  32              	.LVL0:
  33 0000 70B4     		push	{r4, r5, r6}
  34              	.LCFI0:
  35              		.cfi_def_cfa_offset 12
  36              		.cfi_offset 4, -12
  37              		.cfi_offset 5, -8
  38              		.cfi_offset 6, -4
  39              	.LVL1:
 450:../../core/ST/STM32L4xx_HAL_Driver/Src/stm32l4xx_hal_crc.c ****   uint32_t i; /* input data buffer index */
 451:../../core/ST/STM32L4xx_HAL_Driver/Src/stm32l4xx_hal_crc.c ****   uint16_t data;
 452:../../core/ST/STM32L4xx_HAL_Driver/Src/stm32l4xx_hal_crc.c ****   __IO uint16_t *pReg;
 453:../../core/ST/STM32L4xx_HAL_Driver/Src/stm32l4xx_hal_crc.c **** 
 454:../../core/ST/STM32L4xx_HAL_Driver/Src/stm32l4xx_hal_crc.c ****   /* Processing time optimization: 4 bytes are entered in a row with a single word write,
 455:../../core/ST/STM32L4xx_HAL_Driver/Src/stm32l4xx_hal_crc.c ****    * last bytes must be carefully fed to the CRC calculator to ensure a correct type
 456:../../core/ST/STM32L4xx_HAL_Driver/Src/stm32l4xx_hal_crc.c ****    * handling by the IP */
 457:../../core/ST/STM32L4xx_HAL_Driver/Src/stm32l4xx_hal_crc.c ****   for (i = 0U; i < (BufferLength / 4U); i++)
  40              		.loc 1 457 0
  41 0002 0024     		movs	r4, #0
  42 0004 0FE0     		b	.L2
  43              	.LVL2:
  44              	.L3:
 458:../../core/ST/STM32L4xx_HAL_Driver/Src/stm32l4xx_hal_crc.c ****   {
 459:../../core/ST/STM32L4xx_HAL_Driver/Src/stm32l4xx_hal_crc.c ****     hcrc->Instance->DR = ((uint32_t)pBuffer[4U * i] << 24U) | \
  45              		.loc 1 459 0 discriminator 3
  46 0006 11F82460 		ldrb	r6, [r1, r4, lsl #2]	@ zero_extendqisi2
 460:../../core/ST/STM32L4xx_HAL_Driver/Src/stm32l4xx_hal_crc.c ****                          ((uint32_t)pBuffer[(4U * i) + 1U] << 16U) | \
  47              		.loc 1 460 0 discriminator 3
  48 000a 01EB8405 		add	r5, r1, r4, lsl #2
  49 000e 6B78     		ldrb	r3, [r5, #1]	@ zero_extendqisi2
  50 0010 1B04     		lsls	r3, r3, #16
 459:../../core/ST/STM32L4xx_HAL_Driver/Src/stm32l4xx_hal_crc.c ****                          ((uint32_t)pBuffer[(4U * i) + 1U] << 16U) | \
  51              		.loc 1 459 0 discriminator 3
  52 0012 43EA0663 		orr	r3, r3, r6, lsl #24
 461:../../core/ST/STM32L4xx_HAL_Driver/Src/stm32l4xx_hal_crc.c ****                          ((uint32_t)pBuffer[(4U * i) + 2U] << 8U)  | \
ARM GAS  /tmp/ccFXOif7.s 			page 10


  53              		.loc 1 461 0 discriminator 3
  54 0016 AE78     		ldrb	r6, [r5, #2]	@ zero_extendqisi2
 460:../../core/ST/STM32L4xx_HAL_Driver/Src/stm32l4xx_hal_crc.c ****                          ((uint32_t)pBuffer[(4U * i) + 1U] << 16U) | \
  55              		.loc 1 460 0 discriminator 3
  56 0018 43EA0623 		orr	r3, r3, r6, lsl #8
 462:../../core/ST/STM32L4xx_HAL_Driver/Src/stm32l4xx_hal_crc.c ****                          (uint32_t)pBuffer[(4U * i) + 3U];
  57              		.loc 1 462 0 discriminator 3
  58 001c EE78     		ldrb	r6, [r5, #3]	@ zero_extendqisi2
 459:../../core/ST/STM32L4xx_HAL_Driver/Src/stm32l4xx_hal_crc.c ****                          ((uint32_t)pBuffer[(4U * i) + 1U] << 16U) | \
  59              		.loc 1 459 0 discriminator 3
  60 001e 0568     		ldr	r5, [r0]
 461:../../core/ST/STM32L4xx_HAL_Driver/Src/stm32l4xx_hal_crc.c ****                          ((uint32_t)pBuffer[(4U * i) + 2U] << 8U)  | \
  61              		.loc 1 461 0 discriminator 3
  62 0020 3343     		orrs	r3, r3, r6
 459:../../core/ST/STM32L4xx_HAL_Driver/Src/stm32l4xx_hal_crc.c ****                          ((uint32_t)pBuffer[(4U * i) + 1U] << 16U) | \
  63              		.loc 1 459 0 discriminator 3
  64 0022 2B60     		str	r3, [r5]
 457:../../core/ST/STM32L4xx_HAL_Driver/Src/stm32l4xx_hal_crc.c ****   {
  65              		.loc 1 457 0 discriminator 3
  66 0024 0134     		adds	r4, r4, #1
  67              	.LVL3:
  68              	.L2:
 457:../../core/ST/STM32L4xx_HAL_Driver/Src/stm32l4xx_hal_crc.c ****   {
  69              		.loc 1 457 0 is_stmt 0 discriminator 1
  70 0026 B4EB920F 		cmp	r4, r2, lsr #2
  71 002a ECD3     		bcc	.L3
 463:../../core/ST/STM32L4xx_HAL_Driver/Src/stm32l4xx_hal_crc.c ****   }
 464:../../core/ST/STM32L4xx_HAL_Driver/Src/stm32l4xx_hal_crc.c ****   /* last bytes specific handling */
 465:../../core/ST/STM32L4xx_HAL_Driver/Src/stm32l4xx_hal_crc.c ****   if ((BufferLength % 4U) != 0U)
  72              		.loc 1 465 0 is_stmt 1
  73 002c 12F00302 		ands	r2, r2, #3
  74              	.LVL4:
  75 0030 05D0     		beq	.L4
 466:../../core/ST/STM32L4xx_HAL_Driver/Src/stm32l4xx_hal_crc.c ****   {
 467:../../core/ST/STM32L4xx_HAL_Driver/Src/stm32l4xx_hal_crc.c ****     if ((BufferLength % 4U) == 1U)
  76              		.loc 1 467 0
  77 0032 012A     		cmp	r2, #1
  78 0034 07D0     		beq	.L8
  79              	.L5:
 468:../../core/ST/STM32L4xx_HAL_Driver/Src/stm32l4xx_hal_crc.c ****     {
 469:../../core/ST/STM32L4xx_HAL_Driver/Src/stm32l4xx_hal_crc.c ****       *(__IO uint8_t *)(__IO void *)(&hcrc->Instance->DR) = pBuffer[4U * i];         /* Derogation 
 470:../../core/ST/STM32L4xx_HAL_Driver/Src/stm32l4xx_hal_crc.c ****     }
 471:../../core/ST/STM32L4xx_HAL_Driver/Src/stm32l4xx_hal_crc.c ****     if ((BufferLength % 4U) == 2U)
  80              		.loc 1 471 0
  81 0036 022A     		cmp	r2, #2
  82 0038 0AD0     		beq	.L9
  83              	.L6:
 472:../../core/ST/STM32L4xx_HAL_Driver/Src/stm32l4xx_hal_crc.c ****     {
 473:../../core/ST/STM32L4xx_HAL_Driver/Src/stm32l4xx_hal_crc.c ****       data = ((uint16_t)(pBuffer[4U * i]) << 8U) | (uint16_t)pBuffer[(4U * i) + 1U];
 474:../../core/ST/STM32L4xx_HAL_Driver/Src/stm32l4xx_hal_crc.c ****       pReg = (__IO uint16_t *)(__IO void *)(&hcrc->Instance->DR);                    /* Derogation 
 475:../../core/ST/STM32L4xx_HAL_Driver/Src/stm32l4xx_hal_crc.c ****       *pReg = data;
 476:../../core/ST/STM32L4xx_HAL_Driver/Src/stm32l4xx_hal_crc.c ****     }
 477:../../core/ST/STM32L4xx_HAL_Driver/Src/stm32l4xx_hal_crc.c ****     if ((BufferLength % 4U) == 3U)
  84              		.loc 1 477 0
  85 003a 032A     		cmp	r2, #3
  86 003c 12D0     		beq	.L10
  87              	.LVL5:
ARM GAS  /tmp/ccFXOif7.s 			page 11


  88              	.L4:
 478:../../core/ST/STM32L4xx_HAL_Driver/Src/stm32l4xx_hal_crc.c ****     {
 479:../../core/ST/STM32L4xx_HAL_Driver/Src/stm32l4xx_hal_crc.c ****       data = ((uint16_t)(pBuffer[4U * i]) << 8U) | (uint16_t)pBuffer[(4U * i) + 1U];
 480:../../core/ST/STM32L4xx_HAL_Driver/Src/stm32l4xx_hal_crc.c ****       pReg = (__IO uint16_t *)(__IO void *)(&hcrc->Instance->DR);                    /* Derogation 
 481:../../core/ST/STM32L4xx_HAL_Driver/Src/stm32l4xx_hal_crc.c ****       *pReg = data;
 482:../../core/ST/STM32L4xx_HAL_Driver/Src/stm32l4xx_hal_crc.c **** 
 483:../../core/ST/STM32L4xx_HAL_Driver/Src/stm32l4xx_hal_crc.c ****       *(__IO uint8_t *)(__IO void *)(&hcrc->Instance->DR) = pBuffer[(4U * i) + 2U];  /* Derogation 
 484:../../core/ST/STM32L4xx_HAL_Driver/Src/stm32l4xx_hal_crc.c ****     }
 485:../../core/ST/STM32L4xx_HAL_Driver/Src/stm32l4xx_hal_crc.c ****   }
 486:../../core/ST/STM32L4xx_HAL_Driver/Src/stm32l4xx_hal_crc.c **** 
 487:../../core/ST/STM32L4xx_HAL_Driver/Src/stm32l4xx_hal_crc.c ****   /* Return the CRC computed value */
 488:../../core/ST/STM32L4xx_HAL_Driver/Src/stm32l4xx_hal_crc.c ****   return hcrc->Instance->DR;
  89              		.loc 1 488 0
  90 003e 0368     		ldr	r3, [r0]
  91 0040 1868     		ldr	r0, [r3]
  92              	.LVL6:
 489:../../core/ST/STM32L4xx_HAL_Driver/Src/stm32l4xx_hal_crc.c **** }
  93              		.loc 1 489 0
  94 0042 70BC     		pop	{r4, r5, r6}
  95              	.LCFI1:
  96              		.cfi_remember_state
  97              		.cfi_restore 6
  98              		.cfi_restore 5
  99              		.cfi_restore 4
 100              		.cfi_def_cfa_offset 0
 101              	.LVL7:
 102 0044 7047     		bx	lr
 103              	.LVL8:
 104              	.L8:
 105              	.LCFI2:
 106              		.cfi_restore_state
 469:../../core/ST/STM32L4xx_HAL_Driver/Src/stm32l4xx_hal_crc.c ****     }
 107              		.loc 1 469 0
 108 0046 0368     		ldr	r3, [r0]
 109 0048 11F82450 		ldrb	r5, [r1, r4, lsl #2]	@ zero_extendqisi2
 110 004c 1D70     		strb	r5, [r3]
 111 004e F2E7     		b	.L5
 112              	.L9:
 473:../../core/ST/STM32L4xx_HAL_Driver/Src/stm32l4xx_hal_crc.c ****       pReg = (__IO uint16_t *)(__IO void *)(&hcrc->Instance->DR);                    /* Derogation 
 113              		.loc 1 473 0
 114 0050 11F82450 		ldrb	r5, [r1, r4, lsl #2]	@ zero_extendqisi2
 115 0054 01EB8403 		add	r3, r1, r4, lsl #2
 116 0058 5B78     		ldrb	r3, [r3, #1]	@ zero_extendqisi2
 117 005a 43EA0523 		orr	r3, r3, r5, lsl #8
 118              	.LVL9:
 474:../../core/ST/STM32L4xx_HAL_Driver/Src/stm32l4xx_hal_crc.c ****       *pReg = data;
 119              		.loc 1 474 0
 120 005e 0568     		ldr	r5, [r0]
 121              	.LVL10:
 475:../../core/ST/STM32L4xx_HAL_Driver/Src/stm32l4xx_hal_crc.c ****     }
 122              		.loc 1 475 0
 123 0060 2B80     		strh	r3, [r5]	@ movhi
 124 0062 EAE7     		b	.L6
 125              	.LVL11:
 126              	.L10:
 479:../../core/ST/STM32L4xx_HAL_Driver/Src/stm32l4xx_hal_crc.c ****       pReg = (__IO uint16_t *)(__IO void *)(&hcrc->Instance->DR);                    /* Derogation 
 127              		.loc 1 479 0
ARM GAS  /tmp/ccFXOif7.s 			page 12


 128 0064 11F82420 		ldrb	r2, [r1, r4, lsl #2]	@ zero_extendqisi2
 129 0068 01EB8401 		add	r1, r1, r4, lsl #2
 130              	.LVL12:
 131 006c 4B78     		ldrb	r3, [r1, #1]	@ zero_extendqisi2
 132 006e 43EA0223 		orr	r3, r3, r2, lsl #8
 133              	.LVL13:
 480:../../core/ST/STM32L4xx_HAL_Driver/Src/stm32l4xx_hal_crc.c ****       *pReg = data;
 134              		.loc 1 480 0
 135 0072 0268     		ldr	r2, [r0]
 136              	.LVL14:
 481:../../core/ST/STM32L4xx_HAL_Driver/Src/stm32l4xx_hal_crc.c **** 
 137              		.loc 1 481 0
 138 0074 1380     		strh	r3, [r2]	@ movhi
 483:../../core/ST/STM32L4xx_HAL_Driver/Src/stm32l4xx_hal_crc.c ****     }
 139              		.loc 1 483 0
 140 0076 0368     		ldr	r3, [r0]
 141              	.LVL15:
 142 0078 8A78     		ldrb	r2, [r1, #2]	@ zero_extendqisi2
 143              	.LVL16:
 144 007a 1A70     		strb	r2, [r3]
 145 007c DFE7     		b	.L4
 146              		.cfi_endproc
 147              	.LFE130:
 149              		.section	.text.CRC_Handle_16,"ax",%progbits
 150              		.align	1
 151              		.syntax unified
 152              		.thumb
 153              		.thumb_func
 154              		.fpu fpv4-sp-d16
 156              	CRC_Handle_16:
 157              	.LFB131:
 490:../../core/ST/STM32L4xx_HAL_Driver/Src/stm32l4xx_hal_crc.c **** 
 491:../../core/ST/STM32L4xx_HAL_Driver/Src/stm32l4xx_hal_crc.c **** /**
 492:../../core/ST/STM32L4xx_HAL_Driver/Src/stm32l4xx_hal_crc.c ****   * @brief  Enter 16-bit input data to the CRC calculator.
 493:../../core/ST/STM32L4xx_HAL_Driver/Src/stm32l4xx_hal_crc.c ****   *         Specific data handling to optimize processing time.
 494:../../core/ST/STM32L4xx_HAL_Driver/Src/stm32l4xx_hal_crc.c ****   * @param  hcrc CRC handle
 495:../../core/ST/STM32L4xx_HAL_Driver/Src/stm32l4xx_hal_crc.c ****   * @param  pBuffer pointer to the input data buffer
 496:../../core/ST/STM32L4xx_HAL_Driver/Src/stm32l4xx_hal_crc.c ****   * @param  BufferLength input data buffer length
 497:../../core/ST/STM32L4xx_HAL_Driver/Src/stm32l4xx_hal_crc.c ****   * @retval uint32_t CRC (returned value LSBs for CRC shorter than 32 bits)
 498:../../core/ST/STM32L4xx_HAL_Driver/Src/stm32l4xx_hal_crc.c ****   */
 499:../../core/ST/STM32L4xx_HAL_Driver/Src/stm32l4xx_hal_crc.c **** static uint32_t CRC_Handle_16(CRC_HandleTypeDef *hcrc, uint16_t pBuffer[], uint32_t BufferLength)
 500:../../core/ST/STM32L4xx_HAL_Driver/Src/stm32l4xx_hal_crc.c **** {
 158              		.loc 1 500 0
 159              		.cfi_startproc
 160              		@ args = 0, pretend = 0, frame = 0
 161              		@ frame_needed = 0, uses_anonymous_args = 0
 162              		@ link register save eliminated.
 163              	.LVL17:
 501:../../core/ST/STM32L4xx_HAL_Driver/Src/stm32l4xx_hal_crc.c ****   uint32_t i;  /* input data buffer index */
 502:../../core/ST/STM32L4xx_HAL_Driver/Src/stm32l4xx_hal_crc.c ****   __IO uint16_t *pReg;
 503:../../core/ST/STM32L4xx_HAL_Driver/Src/stm32l4xx_hal_crc.c **** 
 504:../../core/ST/STM32L4xx_HAL_Driver/Src/stm32l4xx_hal_crc.c ****   /* Processing time optimization: 2 HalfWords are entered in a row with a single word write,
 505:../../core/ST/STM32L4xx_HAL_Driver/Src/stm32l4xx_hal_crc.c ****    * in case of odd length, last HalfWord must be carefully fed to the CRC calculator to ensure
 506:../../core/ST/STM32L4xx_HAL_Driver/Src/stm32l4xx_hal_crc.c ****    * a correct type handling by the IP */
 507:../../core/ST/STM32L4xx_HAL_Driver/Src/stm32l4xx_hal_crc.c ****   for (i = 0U; i < (BufferLength / 2U); i++)
 164              		.loc 1 507 0
 165 0000 0023     		movs	r3, #0
ARM GAS  /tmp/ccFXOif7.s 			page 13


 166              	.LVL18:
 167 0002 B3EB520F 		cmp	r3, r2, lsr #1
 168 0006 18D2     		bcs	.L21
 500:../../core/ST/STM32L4xx_HAL_Driver/Src/stm32l4xx_hal_crc.c ****   uint32_t i;  /* input data buffer index */
 169              		.loc 1 500 0
 170 0008 70B4     		push	{r4, r5, r6}
 171              	.LCFI3:
 172              		.cfi_def_cfa_offset 12
 173              		.cfi_offset 4, -12
 174              		.cfi_offset 5, -8
 175              		.cfi_offset 6, -4
 176              	.L13:
 508:../../core/ST/STM32L4xx_HAL_Driver/Src/stm32l4xx_hal_crc.c ****   {
 509:../../core/ST/STM32L4xx_HAL_Driver/Src/stm32l4xx_hal_crc.c ****     hcrc->Instance->DR = ((uint32_t)pBuffer[2U * i] << 16U) | (uint32_t)pBuffer[(2U * i) + 1U];
 177              		.loc 1 509 0 discriminator 3
 178 000a 31F82360 		ldrh	r6, [r1, r3, lsl #2]
 179 000e 01EB8304 		add	r4, r1, r3, lsl #2
 180 0012 6488     		ldrh	r4, [r4, #2]
 181 0014 0568     		ldr	r5, [r0]
 182 0016 44EA0644 		orr	r4, r4, r6, lsl #16
 183 001a 2C60     		str	r4, [r5]
 507:../../core/ST/STM32L4xx_HAL_Driver/Src/stm32l4xx_hal_crc.c ****   {
 184              		.loc 1 507 0 discriminator 3
 185 001c 0133     		adds	r3, r3, #1
 186              	.LVL19:
 187 001e B3EB520F 		cmp	r3, r2, lsr #1
 188 0022 F2D3     		bcc	.L13
 510:../../core/ST/STM32L4xx_HAL_Driver/Src/stm32l4xx_hal_crc.c ****   }
 511:../../core/ST/STM32L4xx_HAL_Driver/Src/stm32l4xx_hal_crc.c ****   if ((BufferLength % 2U) != 0U)
 189              		.loc 1 511 0
 190 0024 12F0010F 		tst	r2, #1
 191 0028 03D0     		beq	.L14
 512:../../core/ST/STM32L4xx_HAL_Driver/Src/stm32l4xx_hal_crc.c ****   {
 513:../../core/ST/STM32L4xx_HAL_Driver/Src/stm32l4xx_hal_crc.c ****     pReg = (__IO uint16_t *)(__IO void *)(&hcrc->Instance->DR);                 /* Derogation Misra
 192              		.loc 1 513 0
 193 002a 0268     		ldr	r2, [r0]
 194              	.LVL20:
 514:../../core/ST/STM32L4xx_HAL_Driver/Src/stm32l4xx_hal_crc.c ****     *pReg = pBuffer[2U * i];
 195              		.loc 1 514 0
 196 002c 31F82330 		ldrh	r3, [r1, r3, lsl #2]
 197              	.LVL21:
 198 0030 1380     		strh	r3, [r2]	@ movhi
 199              	.LVL22:
 200              	.L14:
 515:../../core/ST/STM32L4xx_HAL_Driver/Src/stm32l4xx_hal_crc.c ****   }
 516:../../core/ST/STM32L4xx_HAL_Driver/Src/stm32l4xx_hal_crc.c **** 
 517:../../core/ST/STM32L4xx_HAL_Driver/Src/stm32l4xx_hal_crc.c ****   /* Return the CRC computed value */
 518:../../core/ST/STM32L4xx_HAL_Driver/Src/stm32l4xx_hal_crc.c ****   return hcrc->Instance->DR;
 201              		.loc 1 518 0
 202 0032 0368     		ldr	r3, [r0]
 203 0034 1868     		ldr	r0, [r3]
 204              	.LVL23:
 519:../../core/ST/STM32L4xx_HAL_Driver/Src/stm32l4xx_hal_crc.c **** }
 205              		.loc 1 519 0
 206 0036 70BC     		pop	{r4, r5, r6}
 207              	.LCFI4:
 208              		.cfi_restore 6
ARM GAS  /tmp/ccFXOif7.s 			page 14


 209              		.cfi_restore 5
 210              		.cfi_restore 4
 211              		.cfi_def_cfa_offset 0
 212 0038 7047     		bx	lr
 213              	.LVL24:
 214              	.L21:
 511:../../core/ST/STM32L4xx_HAL_Driver/Src/stm32l4xx_hal_crc.c ****   {
 215              		.loc 1 511 0
 216 003a 12F0010F 		tst	r2, #1
 217 003e 03D0     		beq	.L19
 513:../../core/ST/STM32L4xx_HAL_Driver/Src/stm32l4xx_hal_crc.c ****     *pReg = pBuffer[2U * i];
 218              		.loc 1 513 0
 219 0040 0268     		ldr	r2, [r0]
 220              	.LVL25:
 514:../../core/ST/STM32L4xx_HAL_Driver/Src/stm32l4xx_hal_crc.c ****   }
 221              		.loc 1 514 0
 222 0042 31F82330 		ldrh	r3, [r1, r3, lsl #2]
 223              	.LVL26:
 224 0046 1380     		strh	r3, [r2]	@ movhi
 225              	.LVL27:
 226              	.L19:
 518:../../core/ST/STM32L4xx_HAL_Driver/Src/stm32l4xx_hal_crc.c **** }
 227              		.loc 1 518 0
 228 0048 0368     		ldr	r3, [r0]
 229 004a 1868     		ldr	r0, [r3]
 230              	.LVL28:
 231              		.loc 1 519 0
 232 004c 7047     		bx	lr
 233              		.cfi_endproc
 234              	.LFE131:
 236              		.section	.text.HAL_CRC_MspInit,"ax",%progbits
 237              		.align	1
 238              		.weak	HAL_CRC_MspInit
 239              		.syntax unified
 240              		.thumb
 241              		.thumb_func
 242              		.fpu fpv4-sp-d16
 244              	HAL_CRC_MspInit:
 245              	.LFB125:
 240:../../core/ST/STM32L4xx_HAL_Driver/Src/stm32l4xx_hal_crc.c ****   /* Prevent unused argument(s) compilation warning */
 246              		.loc 1 240 0
 247              		.cfi_startproc
 248              		@ args = 0, pretend = 0, frame = 0
 249              		@ frame_needed = 0, uses_anonymous_args = 0
 250              		@ link register save eliminated.
 251              	.LVL29:
 247:../../core/ST/STM32L4xx_HAL_Driver/Src/stm32l4xx_hal_crc.c **** 
 252              		.loc 1 247 0
 253 0000 7047     		bx	lr
 254              		.cfi_endproc
 255              	.LFE125:
 257              		.section	.text.HAL_CRC_Init,"ax",%progbits
 258              		.align	1
 259              		.global	HAL_CRC_Init
 260              		.syntax unified
 261              		.thumb
 262              		.thumb_func
ARM GAS  /tmp/ccFXOif7.s 			page 15


 263              		.fpu fpv4-sp-d16
 265              	HAL_CRC_Init:
 266              	.LFB123:
 120:../../core/ST/STM32L4xx_HAL_Driver/Src/stm32l4xx_hal_crc.c ****   /* Check the CRC handle allocation */
 267              		.loc 1 120 0
 268              		.cfi_startproc
 269              		@ args = 0, pretend = 0, frame = 0
 270              		@ frame_needed = 0, uses_anonymous_args = 0
 271              	.LVL30:
 122:../../core/ST/STM32L4xx_HAL_Driver/Src/stm32l4xx_hal_crc.c ****   {
 272              		.loc 1 122 0
 273 0000 0028     		cmp	r0, #0
 274 0002 38D0     		beq	.L30
 120:../../core/ST/STM32L4xx_HAL_Driver/Src/stm32l4xx_hal_crc.c ****   /* Check the CRC handle allocation */
 275              		.loc 1 120 0
 276 0004 10B5     		push	{r4, lr}
 277              	.LCFI5:
 278              		.cfi_def_cfa_offset 8
 279              		.cfi_offset 4, -8
 280              		.cfi_offset 14, -4
 281 0006 0446     		mov	r4, r0
 130:../../core/ST/STM32L4xx_HAL_Driver/Src/stm32l4xx_hal_crc.c ****   {
 282              		.loc 1 130 0
 283 0008 437F     		ldrb	r3, [r0, #29]	@ zero_extendqisi2
 284 000a 1BB3     		cbz	r3, .L36
 285              	.LVL31:
 286              	.L25:
 138:../../core/ST/STM32L4xx_HAL_Driver/Src/stm32l4xx_hal_crc.c **** 
 287              		.loc 1 138 0
 288 000c 0223     		movs	r3, #2
 289 000e 6377     		strb	r3, [r4, #29]
 143:../../core/ST/STM32L4xx_HAL_Driver/Src/stm32l4xx_hal_crc.c ****   {
 290              		.loc 1 143 0
 291 0010 2379     		ldrb	r3, [r4, #4]	@ zero_extendqisi2
 292 0012 1BBB     		cbnz	r3, .L26
 146:../../core/ST/STM32L4xx_HAL_Driver/Src/stm32l4xx_hal_crc.c ****     MODIFY_REG(hcrc->Instance->CR, CRC_CR_POLYSIZE, CRC_POLYLENGTH_32B);
 293              		.loc 1 146 0
 294 0014 2368     		ldr	r3, [r4]
 295 0016 194A     		ldr	r2, .L37
 296 0018 5A61     		str	r2, [r3, #20]
 147:../../core/ST/STM32L4xx_HAL_Driver/Src/stm32l4xx_hal_crc.c ****   }
 297              		.loc 1 147 0
 298 001a 2268     		ldr	r2, [r4]
 299 001c 9368     		ldr	r3, [r2, #8]
 300 001e 23F01803 		bic	r3, r3, #24
 301 0022 9360     		str	r3, [r2, #8]
 302              	.L27:
 161:../../core/ST/STM32L4xx_HAL_Driver/Src/stm32l4xx_hal_crc.c ****   {
 303              		.loc 1 161 0
 304 0024 6379     		ldrb	r3, [r4, #5]	@ zero_extendqisi2
 305 0026 13BB     		cbnz	r3, .L28
 163:../../core/ST/STM32L4xx_HAL_Driver/Src/stm32l4xx_hal_crc.c ****   }
 306              		.loc 1 163 0
 307 0028 2368     		ldr	r3, [r4]
 308 002a 4FF0FF32 		mov	r2, #-1
 309 002e 1A61     		str	r2, [r3, #16]
 310              	.L29:
ARM GAS  /tmp/ccFXOif7.s 			page 16


 173:../../core/ST/STM32L4xx_HAL_Driver/Src/stm32l4xx_hal_crc.c **** 
 311              		.loc 1 173 0
 312 0030 2268     		ldr	r2, [r4]
 313 0032 9368     		ldr	r3, [r2, #8]
 314 0034 23F06003 		bic	r3, r3, #96
 315 0038 6169     		ldr	r1, [r4, #20]
 316 003a 0B43     		orrs	r3, r3, r1
 317 003c 9360     		str	r3, [r2, #8]
 177:../../core/ST/STM32L4xx_HAL_Driver/Src/stm32l4xx_hal_crc.c **** 
 318              		.loc 1 177 0
 319 003e 2268     		ldr	r2, [r4]
 320 0040 9368     		ldr	r3, [r2, #8]
 321 0042 23F08003 		bic	r3, r3, #128
 322 0046 A169     		ldr	r1, [r4, #24]
 323 0048 0B43     		orrs	r3, r3, r1
 324 004a 9360     		str	r3, [r2, #8]
 184:../../core/ST/STM32L4xx_HAL_Driver/Src/stm32l4xx_hal_crc.c **** 
 325              		.loc 1 184 0
 326 004c 0123     		movs	r3, #1
 327 004e 6377     		strb	r3, [r4, #29]
 187:../../core/ST/STM32L4xx_HAL_Driver/Src/stm32l4xx_hal_crc.c **** }
 328              		.loc 1 187 0
 329 0050 0020     		movs	r0, #0
 330              	.L24:
 188:../../core/ST/STM32L4xx_HAL_Driver/Src/stm32l4xx_hal_crc.c **** 
 331              		.loc 1 188 0
 332 0052 10BD     		pop	{r4, pc}
 333              	.LVL32:
 334              	.L36:
 133:../../core/ST/STM32L4xx_HAL_Driver/Src/stm32l4xx_hal_crc.c ****     /* Init the low level hardware */
 335              		.loc 1 133 0
 336 0054 0377     		strb	r3, [r0, #28]
 135:../../core/ST/STM32L4xx_HAL_Driver/Src/stm32l4xx_hal_crc.c ****   }
 337              		.loc 1 135 0
 338 0056 FFF7FEFF 		bl	HAL_CRC_MspInit
 339              	.LVL33:
 340 005a D7E7     		b	.L25
 341              	.L26:
 152:../../core/ST/STM32L4xx_HAL_Driver/Src/stm32l4xx_hal_crc.c ****     {
 342              		.loc 1 152 0
 343 005c E268     		ldr	r2, [r4, #12]
 344 005e A168     		ldr	r1, [r4, #8]
 345 0060 2046     		mov	r0, r4
 346 0062 FFF7FEFF 		bl	HAL_CRCEx_Polynomial_Set
 347              	.LVL34:
 348 0066 0028     		cmp	r0, #0
 349 0068 DCD0     		beq	.L27
 154:../../core/ST/STM32L4xx_HAL_Driver/Src/stm32l4xx_hal_crc.c ****     }
 350              		.loc 1 154 0
 351 006a 0120     		movs	r0, #1
 352 006c F1E7     		b	.L24
 353              	.L28:
 167:../../core/ST/STM32L4xx_HAL_Driver/Src/stm32l4xx_hal_crc.c ****   }
 354              		.loc 1 167 0
 355 006e 2368     		ldr	r3, [r4]
 356 0070 2269     		ldr	r2, [r4, #16]
 357 0072 1A61     		str	r2, [r3, #16]
ARM GAS  /tmp/ccFXOif7.s 			page 17


 358 0074 DCE7     		b	.L29
 359              	.LVL35:
 360              	.L30:
 361              	.LCFI6:
 362              		.cfi_def_cfa_offset 0
 363              		.cfi_restore 4
 364              		.cfi_restore 14
 124:../../core/ST/STM32L4xx_HAL_Driver/Src/stm32l4xx_hal_crc.c ****   }
 365              		.loc 1 124 0
 366 0076 0120     		movs	r0, #1
 367              	.LVL36:
 188:../../core/ST/STM32L4xx_HAL_Driver/Src/stm32l4xx_hal_crc.c **** 
 368              		.loc 1 188 0
 369 0078 7047     		bx	lr
 370              	.L38:
 371 007a 00BF     		.align	2
 372              	.L37:
 373 007c B71DC104 		.word	79764919
 374              		.cfi_endproc
 375              	.LFE123:
 377              		.section	.text.HAL_CRC_MspDeInit,"ax",%progbits
 378              		.align	1
 379              		.weak	HAL_CRC_MspDeInit
 380              		.syntax unified
 381              		.thumb
 382              		.thumb_func
 383              		.fpu fpv4-sp-d16
 385              	HAL_CRC_MspDeInit:
 386              	.LFB126:
 255:../../core/ST/STM32L4xx_HAL_Driver/Src/stm32l4xx_hal_crc.c ****   /* Prevent unused argument(s) compilation warning */
 387              		.loc 1 255 0
 388              		.cfi_startproc
 389              		@ args = 0, pretend = 0, frame = 0
 390              		@ frame_needed = 0, uses_anonymous_args = 0
 391              		@ link register save eliminated.
 392              	.LVL37:
 262:../../core/ST/STM32L4xx_HAL_Driver/Src/stm32l4xx_hal_crc.c **** 
 393              		.loc 1 262 0
 394 0000 7047     		bx	lr
 395              		.cfi_endproc
 396              	.LFE126:
 398              		.section	.text.HAL_CRC_DeInit,"ax",%progbits
 399              		.align	1
 400              		.global	HAL_CRC_DeInit
 401              		.syntax unified
 402              		.thumb
 403              		.thumb_func
 404              		.fpu fpv4-sp-d16
 406              	HAL_CRC_DeInit:
 407              	.LFB124:
 196:../../core/ST/STM32L4xx_HAL_Driver/Src/stm32l4xx_hal_crc.c ****   /* Check the CRC handle allocation */
 408              		.loc 1 196 0
 409              		.cfi_startproc
 410              		@ args = 0, pretend = 0, frame = 0
 411              		@ frame_needed = 0, uses_anonymous_args = 0
 412              	.LVL38:
 198:../../core/ST/STM32L4xx_HAL_Driver/Src/stm32l4xx_hal_crc.c ****   {
ARM GAS  /tmp/ccFXOif7.s 			page 18


 413              		.loc 1 198 0
 414 0000 B0B1     		cbz	r0, .L42
 196:../../core/ST/STM32L4xx_HAL_Driver/Src/stm32l4xx_hal_crc.c ****   /* Check the CRC handle allocation */
 415              		.loc 1 196 0
 416 0002 38B5     		push	{r3, r4, r5, lr}
 417              	.LCFI7:
 418              		.cfi_def_cfa_offset 16
 419              		.cfi_offset 3, -16
 420              		.cfi_offset 4, -12
 421              		.cfi_offset 5, -8
 422              		.cfi_offset 14, -4
 423 0004 0446     		mov	r4, r0
 207:../../core/ST/STM32L4xx_HAL_Driver/Src/stm32l4xx_hal_crc.c ****   {
 424              		.loc 1 207 0
 425 0006 437F     		ldrb	r3, [r0, #29]	@ zero_extendqisi2
 426 0008 DBB2     		uxtb	r3, r3
 427 000a 022B     		cmp	r3, #2
 428 000c 12D0     		beq	.L43
 213:../../core/ST/STM32L4xx_HAL_Driver/Src/stm32l4xx_hal_crc.c **** 
 429              		.loc 1 213 0
 430 000e 0223     		movs	r3, #2
 431 0010 4377     		strb	r3, [r0, #29]
 216:../../core/ST/STM32L4xx_HAL_Driver/Src/stm32l4xx_hal_crc.c **** 
 432              		.loc 1 216 0
 433 0012 0268     		ldr	r2, [r0]
 434 0014 9368     		ldr	r3, [r2, #8]
 435 0016 43F00103 		orr	r3, r3, #1
 436 001a 9360     		str	r3, [r2, #8]
 219:../../core/ST/STM32L4xx_HAL_Driver/Src/stm32l4xx_hal_crc.c **** 
 437              		.loc 1 219 0
 438 001c 0368     		ldr	r3, [r0]
 439 001e 1A79     		ldrb	r2, [r3, #4]	@ zero_extendqisi2
 440 0020 0025     		movs	r5, #0
 441 0022 1D71     		strb	r5, [r3, #4]
 222:../../core/ST/STM32L4xx_HAL_Driver/Src/stm32l4xx_hal_crc.c **** 
 442              		.loc 1 222 0
 443 0024 FFF7FEFF 		bl	HAL_CRC_MspDeInit
 444              	.LVL39:
 225:../../core/ST/STM32L4xx_HAL_Driver/Src/stm32l4xx_hal_crc.c **** 
 445              		.loc 1 225 0
 446 0028 6577     		strb	r5, [r4, #29]
 228:../../core/ST/STM32L4xx_HAL_Driver/Src/stm32l4xx_hal_crc.c **** 
 447              		.loc 1 228 0
 448 002a 2577     		strb	r5, [r4, #28]
 231:../../core/ST/STM32L4xx_HAL_Driver/Src/stm32l4xx_hal_crc.c **** }
 449              		.loc 1 231 0
 450 002c 2846     		mov	r0, r5
 451              	.L41:
 232:../../core/ST/STM32L4xx_HAL_Driver/Src/stm32l4xx_hal_crc.c **** 
 452              		.loc 1 232 0
 453 002e 38BD     		pop	{r3, r4, r5, pc}
 454              	.LVL40:
 455              	.L42:
 456              	.LCFI8:
 457              		.cfi_def_cfa_offset 0
 458              		.cfi_restore 3
 459              		.cfi_restore 4
ARM GAS  /tmp/ccFXOif7.s 			page 19


 460              		.cfi_restore 5
 461              		.cfi_restore 14
 200:../../core/ST/STM32L4xx_HAL_Driver/Src/stm32l4xx_hal_crc.c ****   }
 462              		.loc 1 200 0
 463 0030 0120     		movs	r0, #1
 464              	.LVL41:
 232:../../core/ST/STM32L4xx_HAL_Driver/Src/stm32l4xx_hal_crc.c **** 
 465              		.loc 1 232 0
 466 0032 7047     		bx	lr
 467              	.LVL42:
 468              	.L43:
 469              	.LCFI9:
 470              		.cfi_def_cfa_offset 16
 471              		.cfi_offset 3, -16
 472              		.cfi_offset 4, -12
 473              		.cfi_offset 5, -8
 474              		.cfi_offset 14, -4
 209:../../core/ST/STM32L4xx_HAL_Driver/Src/stm32l4xx_hal_crc.c ****   }
 475              		.loc 1 209 0
 476 0034 0220     		movs	r0, #2
 477              	.LVL43:
 478 0036 FAE7     		b	.L41
 479              		.cfi_endproc
 480              	.LFE124:
 482              		.section	.text.HAL_CRC_Accumulate,"ax",%progbits
 483              		.align	1
 484              		.global	HAL_CRC_Accumulate
 485              		.syntax unified
 486              		.thumb
 487              		.thumb_func
 488              		.fpu fpv4-sp-d16
 490              	HAL_CRC_Accumulate:
 491              	.LFB127:
 304:../../core/ST/STM32L4xx_HAL_Driver/Src/stm32l4xx_hal_crc.c ****   uint32_t index;      /* CRC input data buffer index */
 492              		.loc 1 304 0
 493              		.cfi_startproc
 494              		@ args = 0, pretend = 0, frame = 0
 495              		@ frame_needed = 0, uses_anonymous_args = 0
 496              	.LVL44:
 497 0000 38B5     		push	{r3, r4, r5, lr}
 498              	.LCFI10:
 499              		.cfi_def_cfa_offset 16
 500              		.cfi_offset 3, -16
 501              		.cfi_offset 4, -12
 502              		.cfi_offset 5, -8
 503              		.cfi_offset 14, -4
 504 0002 0446     		mov	r4, r0
 505              	.LVL45:
 309:../../core/ST/STM32L4xx_HAL_Driver/Src/stm32l4xx_hal_crc.c **** 
 506              		.loc 1 309 0
 507 0004 0223     		movs	r3, #2
 508 0006 4377     		strb	r3, [r0, #29]
 311:../../core/ST/STM32L4xx_HAL_Driver/Src/stm32l4xx_hal_crc.c ****   {
 509              		.loc 1 311 0
 510 0008 036A     		ldr	r3, [r0, #32]
 511 000a 022B     		cmp	r3, #2
 512 000c 16D0     		beq	.L50
ARM GAS  /tmp/ccFXOif7.s 			page 20


 513 000e 032B     		cmp	r3, #3
 514 0010 0FD0     		beq	.L55
 515 0012 012B     		cmp	r3, #1
 516 0014 0FD0     		beq	.L58
 306:../../core/ST/STM32L4xx_HAL_Driver/Src/stm32l4xx_hal_crc.c **** 
 517              		.loc 1 306 0
 518 0016 0020     		movs	r0, #0
 519              	.LVL46:
 520 0018 08E0     		b	.L49
 521              	.LVL47:
 522              	.L53:
 317:../../core/ST/STM32L4xx_HAL_Driver/Src/stm32l4xx_hal_crc.c ****       }
 523              		.loc 1 317 0 discriminator 3
 524 001a 2068     		ldr	r0, [r4]
 525 001c 51F82350 		ldr	r5, [r1, r3, lsl #2]
 526 0020 0560     		str	r5, [r0]
 315:../../core/ST/STM32L4xx_HAL_Driver/Src/stm32l4xx_hal_crc.c ****       {
 527              		.loc 1 315 0 discriminator 3
 528 0022 0133     		adds	r3, r3, #1
 529              	.LVL48:
 530              	.L51:
 315:../../core/ST/STM32L4xx_HAL_Driver/Src/stm32l4xx_hal_crc.c ****       {
 531              		.loc 1 315 0 is_stmt 0 discriminator 1
 532 0024 9342     		cmp	r3, r2
 533 0026 F8D3     		bcc	.L53
 319:../../core/ST/STM32L4xx_HAL_Driver/Src/stm32l4xx_hal_crc.c ****       break;
 534              		.loc 1 319 0 is_stmt 1
 535 0028 2368     		ldr	r3, [r4]
 536              	.LVL49:
 537 002a 1868     		ldr	r0, [r3]
 538              	.LVL50:
 539              	.L49:
 334:../../core/ST/STM32L4xx_HAL_Driver/Src/stm32l4xx_hal_crc.c **** 
 540              		.loc 1 334 0
 541 002c 0123     		movs	r3, #1
 542 002e 6377     		strb	r3, [r4, #29]
 338:../../core/ST/STM32L4xx_HAL_Driver/Src/stm32l4xx_hal_crc.c **** 
 543              		.loc 1 338 0
 544 0030 38BD     		pop	{r3, r4, r5, pc}
 545              	.LVL51:
 546              	.L55:
 315:../../core/ST/STM32L4xx_HAL_Driver/Src/stm32l4xx_hal_crc.c ****       {
 547              		.loc 1 315 0
 548 0032 0023     		movs	r3, #0
 549 0034 F6E7     		b	.L51
 550              	.L58:
 323:../../core/ST/STM32L4xx_HAL_Driver/Src/stm32l4xx_hal_crc.c ****       break;
 551              		.loc 1 323 0
 552 0036 FFF7FEFF 		bl	CRC_Handle_8
 553              	.LVL52:
 324:../../core/ST/STM32L4xx_HAL_Driver/Src/stm32l4xx_hal_crc.c **** 
 554              		.loc 1 324 0
 555 003a F7E7     		b	.L49
 556              	.LVL53:
 557              	.L50:
 327:../../core/ST/STM32L4xx_HAL_Driver/Src/stm32l4xx_hal_crc.c ****       break;
 558              		.loc 1 327 0
ARM GAS  /tmp/ccFXOif7.s 			page 21


 559 003c FFF7FEFF 		bl	CRC_Handle_16
 560              	.LVL54:
 328:../../core/ST/STM32L4xx_HAL_Driver/Src/stm32l4xx_hal_crc.c ****     default:
 561              		.loc 1 328 0
 562 0040 F4E7     		b	.L49
 563              		.cfi_endproc
 564              	.LFE127:
 566              		.section	.text.HAL_CRC_Calculate,"ax",%progbits
 567              		.align	1
 568              		.global	HAL_CRC_Calculate
 569              		.syntax unified
 570              		.thumb
 571              		.thumb_func
 572              		.fpu fpv4-sp-d16
 574              	HAL_CRC_Calculate:
 575              	.LFB128:
 356:../../core/ST/STM32L4xx_HAL_Driver/Src/stm32l4xx_hal_crc.c ****   uint32_t index;      /* CRC input data buffer index */
 576              		.loc 1 356 0
 577              		.cfi_startproc
 578              		@ args = 0, pretend = 0, frame = 0
 579              		@ frame_needed = 0, uses_anonymous_args = 0
 580              	.LVL55:
 581 0000 38B5     		push	{r3, r4, r5, lr}
 582              	.LCFI11:
 583              		.cfi_def_cfa_offset 16
 584              		.cfi_offset 3, -16
 585              		.cfi_offset 4, -12
 586              		.cfi_offset 5, -8
 587              		.cfi_offset 14, -4
 588 0002 0446     		mov	r4, r0
 589              	.LVL56:
 361:../../core/ST/STM32L4xx_HAL_Driver/Src/stm32l4xx_hal_crc.c **** 
 590              		.loc 1 361 0
 591 0004 0223     		movs	r3, #2
 592 0006 4377     		strb	r3, [r0, #29]
 365:../../core/ST/STM32L4xx_HAL_Driver/Src/stm32l4xx_hal_crc.c **** 
 593              		.loc 1 365 0
 594 0008 0068     		ldr	r0, [r0]
 595              	.LVL57:
 596 000a 8368     		ldr	r3, [r0, #8]
 597 000c 43F00103 		orr	r3, r3, #1
 598 0010 8360     		str	r3, [r0, #8]
 367:../../core/ST/STM32L4xx_HAL_Driver/Src/stm32l4xx_hal_crc.c ****   {
 599              		.loc 1 367 0
 600 0012 236A     		ldr	r3, [r4, #32]
 601 0014 022B     		cmp	r3, #2
 602 0016 17D0     		beq	.L61
 603 0018 032B     		cmp	r3, #3
 604 001a 0FD0     		beq	.L66
 605 001c 012B     		cmp	r3, #1
 606 001e 0FD0     		beq	.L69
 358:../../core/ST/STM32L4xx_HAL_Driver/Src/stm32l4xx_hal_crc.c **** 
 607              		.loc 1 358 0
 608 0020 0020     		movs	r0, #0
 609 0022 08E0     		b	.L60
 610              	.LVL58:
 611              	.L64:
ARM GAS  /tmp/ccFXOif7.s 			page 22


 373:../../core/ST/STM32L4xx_HAL_Driver/Src/stm32l4xx_hal_crc.c ****       }
 612              		.loc 1 373 0 discriminator 3
 613 0024 2068     		ldr	r0, [r4]
 614 0026 51F82350 		ldr	r5, [r1, r3, lsl #2]
 615 002a 0560     		str	r5, [r0]
 371:../../core/ST/STM32L4xx_HAL_Driver/Src/stm32l4xx_hal_crc.c ****       {
 616              		.loc 1 371 0 discriminator 3
 617 002c 0133     		adds	r3, r3, #1
 618              	.LVL59:
 619              	.L62:
 371:../../core/ST/STM32L4xx_HAL_Driver/Src/stm32l4xx_hal_crc.c ****       {
 620              		.loc 1 371 0 is_stmt 0 discriminator 1
 621 002e 9342     		cmp	r3, r2
 622 0030 F8D3     		bcc	.L64
 375:../../core/ST/STM32L4xx_HAL_Driver/Src/stm32l4xx_hal_crc.c ****       break;
 623              		.loc 1 375 0 is_stmt 1
 624 0032 2368     		ldr	r3, [r4]
 625              	.LVL60:
 626 0034 1868     		ldr	r0, [r3]
 627              	.LVL61:
 628              	.L60:
 393:../../core/ST/STM32L4xx_HAL_Driver/Src/stm32l4xx_hal_crc.c **** 
 629              		.loc 1 393 0
 630 0036 0123     		movs	r3, #1
 631 0038 6377     		strb	r3, [r4, #29]
 397:../../core/ST/STM32L4xx_HAL_Driver/Src/stm32l4xx_hal_crc.c **** 
 632              		.loc 1 397 0
 633 003a 38BD     		pop	{r3, r4, r5, pc}
 634              	.LVL62:
 635              	.L66:
 371:../../core/ST/STM32L4xx_HAL_Driver/Src/stm32l4xx_hal_crc.c ****       {
 636              		.loc 1 371 0
 637 003c 0023     		movs	r3, #0
 638 003e F6E7     		b	.L62
 639              	.L69:
 380:../../core/ST/STM32L4xx_HAL_Driver/Src/stm32l4xx_hal_crc.c ****       break;
 640              		.loc 1 380 0
 641 0040 2046     		mov	r0, r4
 642 0042 FFF7FEFF 		bl	CRC_Handle_8
 643              	.LVL63:
 381:../../core/ST/STM32L4xx_HAL_Driver/Src/stm32l4xx_hal_crc.c **** 
 644              		.loc 1 381 0
 645 0046 F6E7     		b	.L60
 646              	.LVL64:
 647              	.L61:
 385:../../core/ST/STM32L4xx_HAL_Driver/Src/stm32l4xx_hal_crc.c ****       break;
 648              		.loc 1 385 0
 649 0048 2046     		mov	r0, r4
 650 004a FFF7FEFF 		bl	CRC_Handle_16
 651              	.LVL65:
 386:../../core/ST/STM32L4xx_HAL_Driver/Src/stm32l4xx_hal_crc.c **** 
 652              		.loc 1 386 0
 653 004e F2E7     		b	.L60
 654              		.cfi_endproc
 655              	.LFE128:
 657              		.section	.text.HAL_CRC_GetState,"ax",%progbits
 658              		.align	1
ARM GAS  /tmp/ccFXOif7.s 			page 23


 659              		.global	HAL_CRC_GetState
 660              		.syntax unified
 661              		.thumb
 662              		.thumb_func
 663              		.fpu fpv4-sp-d16
 665              	HAL_CRC_GetState:
 666              	.LFB129:
 423:../../core/ST/STM32L4xx_HAL_Driver/Src/stm32l4xx_hal_crc.c ****   /* Return CRC handle state */
 667              		.loc 1 423 0
 668              		.cfi_startproc
 669              		@ args = 0, pretend = 0, frame = 0
 670              		@ frame_needed = 0, uses_anonymous_args = 0
 671              		@ link register save eliminated.
 672              	.LVL66:
 425:../../core/ST/STM32L4xx_HAL_Driver/Src/stm32l4xx_hal_crc.c **** }
 673              		.loc 1 425 0
 674 0000 407F     		ldrb	r0, [r0, #29]	@ zero_extendqisi2
 675              	.LVL67:
 426:../../core/ST/STM32L4xx_HAL_Driver/Src/stm32l4xx_hal_crc.c **** 
 676              		.loc 1 426 0
 677 0002 7047     		bx	lr
 678              		.cfi_endproc
 679              	.LFE129:
 681              		.text
 682              	.Letext0:
 683              		.file 2 "/home/mats/gcc-arm-none-eabi-7-2018-q2-update/arm-none-eabi/include/machine/_default_type
 684              		.file 3 "/home/mats/gcc-arm-none-eabi-7-2018-q2-update/arm-none-eabi/include/sys/_stdint.h"
 685              		.file 4 "../../core/ST/CMSIS/Include/core_cm4.h"
 686              		.file 5 "../../core/ST/CMSIS/Device/ST/STM32L4xx/Include/system_stm32l4xx.h"
 687              		.file 6 "../../core/ST/CMSIS/Device/ST/STM32L4xx/Include/stm32l496xx.h"
 688              		.file 7 "../../core/ST/STM32L4xx_HAL_Driver/Inc/stm32l4xx_hal_def.h"
 689              		.file 8 "../../core/ST/STM32L4xx_HAL_Driver/Inc/stm32l4xx_hal_crc.h"
 690              		.file 9 "../../core/ST/STM32L4xx_HAL_Driver/Inc/stm32l4xx_hal.h"
 691              		.file 10 "../../core/ST/STM32L4xx_HAL_Driver/Inc/stm32l4xx_hal_crc_ex.h"
ARM GAS  /tmp/ccFXOif7.s 			page 24

